 LSCrypt

 Timestamp is 6225b4ed (Mon Mar  7 15:31:57 2022)

 Preferred load address is 0000000180000000

 Start         Length     Name                   Class
 0001:00000000 0000c160H .text$di                CODE
 0001:0000c160 001039c0H .text$mn                CODE
 0001:0010fb20 00001040H .text$mn$00             CODE
 0001:00110b60 00003210H .text$x                 CODE
 0001:00113d70 000010eeH .text$yd                CODE
 0002:00000000 00000110H .CRT$XCA                DATA
 0002:00000110 00000110H .CRT$XCC                DATA
 0002:00000220 00000110H .CRT$XCL                DATA
 0002:00000330 000002e0H .CRT$XCU                DATA
 0002:00000610 00000110H .CRT$XCZ                DATA
 0002:00000720 00000110H .CRT$XIA                DATA
 0002:00000830 00000130H .CRT$XIC                DATA
 0002:00000960 00000110H .CRT$XIZ                DATA
 0002:00000a70 00000110H .CRT$XPA                DATA
 0002:00000b80 00000120H .CRT$XPX                DATA
 0002:00000ca0 00000110H .CRT$XPXA               DATA
 0002:00000db0 00000110H .CRT$XPZ                DATA
 0002:00000ec0 00000110H .CRT$XTA                DATA
 0002:00000fd0 00000110H .CRT$XTZ                DATA
 0002:000010e0 0003f520H .rdata                  DATA
 0002:00040600 00000200H .rdata$CastGuardVftablesA DATA
 0002:00040800 000001a0H .rdata$CastGuardVftablesC DATA
 0002:000409a0 00001e1cH .rdata$r                DATA
 0002:000427bc 0000016cH .rdata$zzzdbg           DATA
 0002:00042928 00000110H .rtc$IAA                DATA
 0002:00042a38 000001e8H .rtc$IMZ                DATA
 0002:00042c20 00000110H .rtc$IZZ                DATA
 0002:00042d30 00000110H .rtc$TAA                DATA
 0002:00042e40 000001e8H .rtc$TMZ                DATA
 0002:00043028 00000110H .rtc$TZZ                DATA
 0002:00043138 0000af08H .xdata                  DATA
 0002:0004e040 00000620H .xdata$x                DATA
 0002:0004e660 00000110H ATL$__a                 DATA
 0002:0004e770 00000110H ATL$__m                 DATA
 0002:0004e880 00000110H ATL$__z                 DATA
 0002:0004e990 0000024eH .edata                  DATA
 0003:00000000 00000eb0H .data                   DATA
 0003:00000eb0 000003a0H .data$r                 DATA
 0003:00001250 000009e0H .data$rs                DATA
 0003:00001c30 00004d80H .bss                    DATA
 0004:00000000 0000c3ccH .pdata                  DATA
 0005:00000000 00000a40H .idata$5                DATA
 0005:00000a40 0000008cH .idata$2                DATA
 0005:00000acc 00000014H .idata$3                DATA
 0005:00000ae0 00000a40H .idata$4                DATA
 0005:00001520 00001066H .idata$6                DATA
 0006:00000000 00000163H .00cfg                  DATA
 0007:00000000 00000222H _RDATA                  DATA
 0008:00000000 000008c0H .rsrc$01                DATA
 0008:000008c0 00014976H .rsrc$02                DATA

  Address         Publics by Value              Rva+Base               Lib:Object

 0000:00000000       __guard_fids_table         0000000000000000     <absolute>
 0000:00000000       ___safe_se_handler_count   0000000000000000     <absolute>
 0000:00000000       __guard_check_icall_a64n_fptr 0000000000000000     <absolute>
 0000:00000000       __guard_longjmp_count      0000000000000000     <absolute>
 0000:00000000       __arm64x_extra_rfe_table_size 0000000000000000     <absolute>
 0000:00000000       __x64_code_ranges_to_entry_points_count 0000000000000000     <absolute>
 0000:00000000       __volatile_metadata        0000000000000000     <absolute>
 0000:00000000       __hybrid_code_map_count    0000000000000000     <absolute>
 0000:00000000       __arm64x_native_entrypoint 0000000000000000     <absolute>
 0000:00000000       __guard_longjmp_table      0000000000000000     <absolute>
 0000:00000000       __hybrid_code_map          0000000000000000     <absolute>
 0000:00000000       __x64_code_ranges_to_entry_points 0000000000000000     <absolute>
 0000:00000000       __dynamic_value_reloc_table 0000000000000000     <absolute>
 0000:00000000       __guard_iat_count          0000000000000000     <absolute>
 0000:00000000       __guard_eh_cont_table      0000000000000000     <absolute>
 0000:00000000       ___safe_se_handler_table   0000000000000000     <absolute>
 0000:00000000       __arm64x_redirection_metadata 0000000000000000     <absolute>
 0000:00000000       __arm64x_redirection_metadata_count 0000000000000000     <absolute>
 0000:00000000       __arm64x_extra_rfe_table   0000000000000000     <absolute>
 0000:00000000       __enclave_config           0000000000000000     <absolute>
 0000:00000000       __guard_eh_cont_count      0000000000000000     <absolute>
 0000:00000000       __hybrid_auxiliary_iat     0000000000000000     <absolute>
 0000:00000000       __AbsoluteZero             0000000000000000     <absolute>
 0000:00000000       __guard_fids_count         0000000000000000     <absolute>
 0000:00000000       __hybrid_auxiliary_iat_copy 0000000000000000     <absolute>
 0000:00000000       __guard_iat_table          0000000000000000     <absolute>
 0000:00000100       __guard_flags              0000000000000100     <absolute>
 0000:00000000       __ImageBase                0000000180000000     <linker-defined>
 0001:0000c160       ??0CAes@@QEAA@XZ           000000018000d160 f   aes.obj
 0001:0000c1b0       ??1CAes@@QEAA@XZ           000000018000d1b0 f   aes.obj
 0001:0000c200       ?BurnBlock@CAes@@QEAA_NPEAU_aes_Block@@0K@Z 000000018000d200 f   aes.obj
 0001:0000c350       ?GetMinMultiAesBlock@CAes@@SAKK@Z 000000018000d350 f   aes.obj
 0001:0000c3e0       ?Init@CAes@@QEAAXPEBDW4aesDirection@1@W4aesKeyLen@1@@Z 000000018000d3e0 f   aes.obj
 0001:0000c590       ?Init@CAes@@QEAAXPEB_WW4aesDirection@1@W4aesKeyLen@1@@Z 000000018000d590 f   aes.obj
 0001:0000c690       ??0LSFile@@QEAA@XZ         000000018000d690 f   LSFile.obj
 0001:0000c6f0       ??1LSFile@@QEAA@XZ         000000018000d6f0 f   LSFile.obj
 0001:0000c760       ?CheckFlags@LSFile@@QEAA_NXZ 000000018000d760 f   LSFile.obj
 0001:0000c830       ?Close@LSFile@@QEAA_NXZ    000000018000d830 f   LSFile.obj
 0001:0000c8b0       ?GetBytesOfPadding@LSFile@@QEAAEXZ 000000018000d8b0 f   LSFile.obj
 0001:0000c8d0       ?GetDir@CAes@@QEAA?AW4aesDirection@1@XZ 000000018000d8d0 f i LSFile.obj
 0001:0000c8f0       ?GetFileName@LSFile@@QEAAPEB_WXZ 000000018000d8f0 f i LSFile.obj
 0001:0000c910       ?GetHeaderSize@LSFile@@QEAAKXZ 000000018000d910 f   LSFile.obj
 0001:0000c930       ?GetOriginalFileNameA@LSFile@@QEAAPEADPEADH@Z 000000018000d930 f   LSFile.obj
 0001:0000ca80       ?GetOriginalFileNameW@LSFile@@QEAAPEA_WPEA_WH@Z 000000018000da80 f   LSFile.obj
 0001:0000cb80       ?GetSize@LSFile@@QEAAKPEAK@Z 000000018000db80 f   LSFile.obj
 0001:0000cbc0       ?Init@LSFile@@QEAAXPEBDW4aesDirection@CAes@@@Z 000000018000dbc0 f   LSFile.obj
 0001:0000cc40       ?InitHeader@LSFile@@AEAAXXZ 000000018000dc40 f   LSFile.obj
 0001:0000cd10       ?IsOpen@LSFile@@QEAA_NXZ   000000018000dd10 f   LSFile.obj
 0001:0000cd50       ?Open@LSFile@@QEAA_NPEB_WKKK@Z 000000018000dd50 f   LSFile.obj
 0001:0000ce40       ?Read@LSFile@@QEAA_NPEAXKPEAK@Z 000000018000de40 f   LSFile.obj
 0001:0000d0f0       ?ReadHeader@LSFile@@IEAA_NXZ 000000018000e0f0 f   LSFile.obj
 0001:0000d240       ?Seek@LSFile@@QEAAKJPEAJK@Z 000000018000e240 f   LSFile.obj
 0001:0000d290       ?SeekToData@LSFile@@QEAA_NXZ 000000018000e290 f   LSFile.obj
 0001:0000d310       ?SetEnd@LSFile@@QEAA_NXZ   000000018000e310 f   LSFile.obj
 0001:0000d360       ?Write@LSFile@@QEAA_NPEBXKPEAK@Z 000000018000e360 f   LSFile.obj
 0001:0000d8b0       ?WriteHeader@LSFile@@QEAA_NPEAV1@@Z 000000018000e8b0 f   LSFile.obj
 0001:0000db60       ?reset@LSFile@@AEAAXXZ     000000018000eb60 f   LSFile.obj
 0001:0000dc20       ??$?0$$V@?$_Compressed_pair@V?$allocator@U?$_List_node@PEA_WPEAX@std@@@std@@V?$_List_val@U?$_List_simple_types@PEA_W@std@@@2@$00@std@@QEAA@U_Zero_then_variadic_args_t@1@@Z 000000018000ec20 f i LSFileCrypt.obj
 0001:0000dc60       ??$?0AEBQEA_W@?$_List_node_emplace_op2@V?$allocator@U?$_List_node@PEA_WPEAX@std@@@std@@@std@@QEAA@AEAV?$allocator@U?$_List_node@PEA_WPEAX@std@@@1@AEBQEA_W@Z 000000018000ec60 f i LSFileCrypt.obj
 0001:0000dcf0       ??$?0U?$_List_node@PEA_WPEAX@std@@@?$allocator@U_Container_proxy@std@@@std@@QEAA@AEBV?$allocator@U?$_List_node@PEA_WPEAX@std@@@1@@Z 000000018000ecf0 f i LSFileCrypt.obj
 0001:0000dd10       ??$_Allocate@$0BA@U_Default_allocate_traits@std@@$0A@@std@@YAPEAX_K@Z 000000018000ed10 f i LSFileCrypt.obj
 0001:0000dd60       ??$_Allocate_manually_vector_aligned@U_Default_allocate_traits@std@@@std@@YAPEAX_K@Z 000000018000ed60 f i LSFileCrypt.obj
 0001:0000deb0       ??$_Construct_in_place@PEAU?$_List_node@PEA_WPEAX@std@@AEAPEAU12@@std@@YAXAEAPEAU?$_List_node@PEA_WPEAX@0@0@Z 000000018000eeb0 f i LSFileCrypt.obj
 0001:0000df20       ??$_Construct_in_place@PEAU?$_List_node@PEA_WPEAX@std@@AEBQEAU12@@std@@YAXAEAPEAU?$_List_node@PEA_WPEAX@0@AEBQEAU10@@Z 000000018000ef20 f i LSFileCrypt.obj
 0001:0000df90       ??$_Construct_in_place@U_Container_proxy@std@@PEAU_Container_base12@2@@std@@YAXAEAU_Container_proxy@0@$$QEAPEAU_Container_base12@0@@Z 000000018000ef90 f i LSFileCrypt.obj
 0001:0000e000       ??$_Deallocate@$0BA@$0A@@std@@YAXPEAX_K@Z 000000018000f000 f i LSFileCrypt.obj
 0001:0000e050       ??$_Deallocate_plain@V?$allocator@U_Container_proxy@std@@@std@@@std@@YAXAEAV?$allocator@U_Container_proxy@std@@@0@QEAU_Container_proxy@0@@Z 000000018000f050 f i LSFileCrypt.obj
 0001:0000e090       ??$_Delete_plain_internal@V?$allocator@U_Container_proxy@std@@@std@@@std@@YAXAEAV?$allocator@U_Container_proxy@std@@@0@QEAU_Container_proxy@0@@Z 000000018000f090 f i LSFileCrypt.obj
 0001:0000e0c0       ??$_Destroy_in_place@PEAU?$_List_node@PEA_WPEAX@std@@@std@@YAXAEAPEAU?$_List_node@PEA_WPEAX@0@@Z 000000018000f0c0 f i LSFileCrypt.obj
 0001:0000e0d0       ??$_Emplace@AEBQEA_W@?$list@PEA_WV?$allocator@PEA_W@std@@@std@@QEAAPEAU?$_List_node@PEA_WPEAX@1@QEAU21@AEBQEA_W@Z 000000018000f0d0 f i LSFileCrypt.obj
 0001:0000e200       ??$_Free_non_head@V?$allocator@U?$_List_node@PEA_WPEAX@std@@@std@@@?$_List_node@PEA_WPEAX@std@@SAXAEAV?$allocator@U?$_List_node@PEA_WPEAX@std@@@1@PEAU01@@Z 000000018000f200 f i LSFileCrypt.obj
 0001:0000e280       ??$_Freenode0@V?$allocator@U?$_List_node@PEA_WPEAX@std@@@std@@@?$_List_node@PEA_WPEAX@std@@SAXAEAV?$allocator@U?$_List_node@PEA_WPEAX@std@@@1@PEAU01@@Z 000000018000f280 f i LSFileCrypt.obj
 0001:0000e2e0       ??$_Freenode@V?$allocator@U?$_List_node@PEA_WPEAX@std@@@std@@@?$_List_node@PEA_WPEAX@std@@SAXAEAV?$allocator@U?$_List_node@PEA_WPEAX@std@@@1@PEAU01@@Z 000000018000f2e0 f i LSFileCrypt.obj
 0001:0000e340       ??$_Get_size_of_n@$0BA@@std@@YA_K_K@Z 000000018000f340 f i LSFileCrypt.obj
 0001:0000e390       ??$_Get_size_of_n@$0BI@@std@@YA_K_K@Z 000000018000f390 f i LSFileCrypt.obj
 0001:0000e3e0       ??$_Unfancy@U_Container_proxy@std@@@std@@YAPEAU_Container_proxy@0@PEAU10@@Z 000000018000f3e0 f i LSFileCrypt.obj
 0001:0000e3f0       ??$_Voidify_iter@PEAPEAU?$_List_node@PEA_WPEAX@std@@@std@@YAPEAXPEAPEAU?$_List_node@PEA_WPEAX@0@@Z 000000018000f3f0 f i LSFileCrypt.obj
 0001:0000e400       ??$_Voidify_iter@PEAPEA_W@std@@YAPEAXPEAPEA_W@Z 000000018000f400 f i LSFileCrypt.obj
 0001:0000e410       ??$_Voidify_iter@PEAU_Container_proxy@std@@@std@@YAPEAXPEAU_Container_proxy@0@@Z 000000018000f410 f i LSFileCrypt.obj
 0001:0000e420       ??$addressof@PEAU?$_List_node@PEA_WPEAX@std@@@std@@YAPEAPEAU?$_List_node@PEA_WPEAX@0@AEAPEAU10@@Z 000000018000f420 f i LSFileCrypt.obj
 0001:0000e430       ??$addressof@PEA_W@std@@YAPEAPEA_WAEAPEA_W@Z 000000018000f430 f i LSFileCrypt.obj
 0001:0000e440       ??$addressof@U_Container_base12@std@@@std@@YAPEAU_Container_base12@0@AEAU10@@Z 000000018000f440 f i LSFileCrypt.obj
 0001:0000e450       ??$addressof@U_Container_proxy@std@@@std@@YAPEAU_Container_proxy@0@AEAU10@@Z 000000018000f450 f i LSFileCrypt.obj
 0001:0000e460       ??$addressof@V?$_List_val@U?$_List_simple_types@PEA_W@std@@@std@@@std@@YAPEAV?$_List_val@U?$_List_simple_types@PEA_W@std@@@0@AEAV10@@Z 000000018000f460 f i LSFileCrypt.obj
 0001:0000e470       ??$construct@PEA_WAEBQEA_W@?$_Default_allocator_traits@V?$allocator@U?$_List_node@PEA_WPEAX@std@@@std@@@std@@SAXAEAV?$allocator@U?$_List_node@PEA_WPEAX@std@@@1@QEAPEA_WAEBQEA_W@Z 000000018000f470 f i LSFileCrypt.obj
 0001:0000e4d0       ??$destroy@PEA_W@?$_Default_allocator_traits@V?$allocator@U?$_List_node@PEA_WPEAX@std@@@std@@@std@@SAXAEAV?$allocator@U?$_List_node@PEA_WPEAX@std@@@1@QEAPEA_W@Z 000000018000f4d0 f i LSFileCrypt.obj
 0001:0000e4e0       ??$forward@AEAPEAU?$_List_node@PEA_WPEAX@std@@@std@@YAAEAPEAU?$_List_node@PEA_WPEAX@0@AEAPEAU10@@Z 000000018000f4e0 f i LSFileCrypt.obj
 0001:0000e4f0       ??$forward@AEBQEAU?$_List_node@PEA_WPEAX@std@@@std@@YAAEBQEAU?$_List_node@PEA_WPEAX@0@AEBQEAU10@@Z 000000018000f4f0 f i LSFileCrypt.obj
 0001:0000e500       ??$forward@AEBQEA_W@std@@YAAEBQEA_WAEBQEA_W@Z 000000018000f500 f i LSFileCrypt.obj
 0001:0000e510       ??$forward@PEAU_Container_base12@std@@@std@@YA$$QEAPEAU_Container_base12@0@AEAPEAU10@@Z 000000018000f510 f i LSFileCrypt.obj
 0001:0000e520       ??$min@_K@std@@YAAEB_KAEB_K0@Z 000000018000f520 f i LSFileCrypt.obj
 0001:0000e580       ??0?$_Alloc_construct_ptr@V?$allocator@U?$_List_node@PEA_WPEAX@std@@@std@@@std@@QEAA@AEAV?$allocator@U?$_List_node@PEA_WPEAX@std@@@1@@Z 000000018000f580 f i LSFileCrypt.obj
 0001:0000e5c0       ??0?$_Container_proxy_ptr12@V?$allocator@U_Container_proxy@std@@@std@@@std@@QEAA@AEAV?$allocator@U_Container_proxy@std@@@1@AEAU_Container_base12@1@@Z 000000018000f5c0 f i LSFileCrypt.obj
 0001:0000e670       ??0?$_List_const_iterator@V?$_List_val@U?$_List_simple_types@PEA_W@std@@@std@@@std@@QEAA@$$QEAV01@@Z 000000018000f670 f i LSFileCrypt.obj
 0001:0000e6b0       ??0?$_List_const_iterator@V?$_List_val@U?$_List_simple_types@PEA_W@std@@@std@@@std@@QEAA@AEBV01@@Z 000000018000f6b0 f i LSFileCrypt.obj
 0001:0000e6f0       ??0?$_List_const_iterator@V?$_List_val@U?$_List_simple_types@PEA_W@std@@@std@@@std@@QEAA@PEAU?$_List_node@PEA_WPEAX@1@PEBV?$_List_val@U?$_List_simple_types@PEA_W@std@@@1@@Z 000000018000f6f0 f i LSFileCrypt.obj
 0001:0000e730       ??0?$_List_const_iterator@V?$_List_val@U?$_List_simple_types@PEA_W@std@@@std@@@std@@QEAA@XZ 000000018000f730 f i LSFileCrypt.obj
 0001:0000e760       ??0?$_List_iterator@V?$_List_val@U?$_List_simple_types@PEA_W@std@@@std@@@std@@QEAA@$$QEAV01@@Z 000000018000f760 f i LSFileCrypt.obj
 0001:0000e7a0       ??0?$_List_iterator@V?$_List_val@U?$_List_simple_types@PEA_W@std@@@std@@@std@@QEAA@AEBV01@@Z 000000018000f7a0 f i LSFileCrypt.obj
 0001:0000e7e0       ??0?$_List_iterator@V?$_List_val@U?$_List_simple_types@PEA_W@std@@@std@@@std@@QEAA@PEAU?$_List_node@PEA_WPEAX@1@PEBV?$_List_val@U?$_List_simple_types@PEA_W@std@@@1@@Z 000000018000f7e0 f i LSFileCrypt.obj
 0001:0000e820       ??0?$_List_iterator@V?$_List_val@U?$_List_simple_types@PEA_W@std@@@std@@@std@@QEAA@XZ 000000018000f820 f i LSFileCrypt.obj
 0001:0000e850       ??0?$_List_unchecked_const_iterator@V?$_List_val@U?$_List_simple_types@PEA_W@std@@@std@@U_Iterator_base12@2@@std@@QEAA@$$QEAV01@@Z 000000018000f850 f i LSFileCrypt.obj
 0001:0000e8a0       ??0?$_List_unchecked_const_iterator@V?$_List_val@U?$_List_simple_types@PEA_W@std@@@std@@U_Iterator_base12@2@@std@@QEAA@AEBV01@@Z 000000018000f8a0 f i LSFileCrypt.obj
 0001:0000e8f0       ??0?$_List_unchecked_const_iterator@V?$_List_val@U?$_List_simple_types@PEA_W@std@@@std@@U_Iterator_base12@2@@std@@QEAA@PEAU?$_List_node@PEA_WPEAX@1@PEBV?$_List_val@U?$_List_simple_types@PEA_W@std@@@1@@Z 000000018000f8f0 f i LSFileCrypt.obj
 0001:0000e950       ??0?$_List_unchecked_const_iterator@V?$_List_val@U?$_List_simple_types@PEA_W@std@@@std@@U_Iterator_base12@2@@std@@QEAA@XZ 000000018000f950 f i LSFileCrypt.obj
 0001:0000e990       ??0?$_List_val@U?$_List_simple_types@PEA_W@std@@@std@@QEAA@XZ 000000018000f990 f i LSFileCrypt.obj
 0001:0000e9e0       ??0?$allocator@U?$_List_node@PEA_WPEAX@std@@@std@@QEAA@XZ 000000018000f9e0 f i LSFileCrypt.obj
 0001:0000e9f0       ??0?$list@PEA_WV?$allocator@PEA_W@std@@@std@@QEAA@XZ 000000018000f9f0 f i LSFileCrypt.obj
 0001:0000ea30       ??0LSFileCrypt@@QEAA@XZ    000000018000fa30 f   LSFileCrypt.obj
 0001:0000eaa0       ??0_Basic_container_proxy_ptr12@std@@IEAA@XZ 000000018000faa0 f i LSFileCrypt.obj
 0001:0000eac0       ??0_Container_base12@std@@QEAA@XZ 000000018000fac0 f i LSFileCrypt.obj
 0001:0000eae0       ??0_Container_proxy@std@@QEAA@PEAU_Container_base12@1@@Z 000000018000fae0 f i LSFileCrypt.obj
 0001:0000eb20       ??0_Iterator_base12@std@@QEAA@AEBU01@@Z 000000018000fb20 f i LSFileCrypt.obj
 0001:0000eb80       ??0_Iterator_base12@std@@QEAA@XZ 000000018000fb80 f i LSFileCrypt.obj
 0001:0000ebb0       ??0bad_alloc@std@@AEAA@QEBD@Z 000000018000fbb0 f i LSFileCrypt.obj
 0001:0000ec00       ??0bad_alloc@std@@QEAA@AEBV01@@Z 000000018000fc00 f i LSFileCrypt.obj
 0001:0000ec50       ??0bad_array_new_length@std@@QEAA@AEBV01@@Z 000000018000fc50 f i LSFileCrypt.obj
 0001:0000eca0       ??0bad_array_new_length@std@@QEAA@XZ 000000018000fca0 f i LSFileCrypt.obj
 0001:0000ecf0       ??0exception@std@@QEAA@AEBV01@@Z 000000018000fcf0 f i LSFileCrypt.obj
 0001:0000ed60       ??0exception@std@@QEAA@QEBDH@Z 000000018000fd60 f i LSFileCrypt.obj
 0001:0000edc0       ??1?$_Alloc_construct_ptr@V?$allocator@U?$_List_node@PEA_WPEAX@std@@@std@@@std@@QEAA@XZ 000000018000fdc0 f i LSFileCrypt.obj
 0001:0000ee10       ??1?$_Container_proxy_ptr12@V?$allocator@U_Container_proxy@std@@@std@@@std@@QEAA@XZ 000000018000fe10 f i LSFileCrypt.obj
 0001:0000ee50       ??1?$_List_const_iterator@V?$_List_val@U?$_List_simple_types@PEA_W@std@@@std@@@std@@QEAA@XZ 000000018000fe50 f i LSFileCrypt.obj
 0001:0000ee70       ??1?$_List_iterator@V?$_List_val@U?$_List_simple_types@PEA_W@std@@@std@@@std@@QEAA@XZ 000000018000fe70 f i LSFileCrypt.obj
 0001:0000ee90       ??1?$_List_node_emplace_op2@V?$allocator@U?$_List_node@PEA_WPEAX@std@@@std@@@std@@QEAA@XZ 000000018000fe90 f i LSFileCrypt.obj
 0001:0000eef0       ??1?$_List_unchecked_const_iterator@V?$_List_val@U?$_List_simple_types@PEA_W@std@@@std@@U_Iterator_base12@2@@std@@QEAA@XZ 000000018000fef0 f i LSFileCrypt.obj
 0001:0000ef10       ??1?$list@PEA_WV?$allocator@PEA_W@std@@@std@@QEAA@XZ 000000018000ff10 f i LSFileCrypt.obj
 0001:0000efa0       ??1LSFileCrypt@@QEAA@XZ    000000018000ffa0 f   LSFileCrypt.obj
 0001:0000efe0       ??1_Iterator_base12@std@@QEAA@XZ 000000018000ffe0 f i LSFileCrypt.obj
 0001:0000f000       ??1bad_alloc@std@@UEAA@XZ  0000000180010000 f i LSFileCrypt.obj
 0001:0000f020       ??1bad_array_new_length@std@@UEAA@XZ 0000000180010020 f i LSFileCrypt.obj
 0001:0000f040       ??1exception@std@@UEAA@XZ  0000000180010040 f i LSFileCrypt.obj
 0001:0000f080       ??2@YAPEAX_KPEAX@Z         0000000180010080 f i LSFileCrypt.obj
 0001:0000f0a0       ??4?$_List_const_iterator@V?$_List_val@U?$_List_simple_types@PEA_W@std@@@std@@@std@@QEAAAEAV01@$$QEAV01@@Z 00000001800100a0 f i LSFileCrypt.obj
 0001:0000f0e0       ??4?$_List_iterator@V?$_List_val@U?$_List_simple_types@PEA_W@std@@@std@@@std@@QEAAAEAV01@$$QEAV01@@Z 00000001800100e0 f i LSFileCrypt.obj
 0001:0000f120       ??4?$_List_unchecked_const_iterator@V?$_List_val@U?$_List_simple_types@PEA_W@std@@@std@@U_Iterator_base12@2@@std@@QEAAAEAV01@$$QEAV01@@Z 0000000180010120 f i LSFileCrypt.obj
 0001:0000f170       ??4_Iterator_base12@std@@QEAAAEAU01@AEBU01@@Z 0000000180010170 f i LSFileCrypt.obj
 0001:0000f1b0       ??8?$_List_const_iterator@V?$_List_val@U?$_List_simple_types@PEA_W@std@@@std@@@std@@QEBA_NAEBV01@@Z 00000001800101b0 f i LSFileCrypt.obj
 0001:0000f2c0       ??9?$_List_const_iterator@V?$_List_val@U?$_List_simple_types@PEA_W@std@@@std@@@std@@QEBA_NAEBV01@@Z 00000001800102c0 f i LSFileCrypt.obj
 0001:0000f320       ??D?$_List_const_iterator@V?$_List_val@U?$_List_simple_types@PEA_W@std@@@std@@@std@@QEBAAEBQEA_WXZ 0000000180010320 f i LSFileCrypt.obj
 0001:0000f4a0       ??D?$_List_iterator@V?$_List_val@U?$_List_simple_types@PEA_W@std@@@std@@@std@@QEBAAEAPEA_WXZ 00000001800104a0 f i LSFileCrypt.obj
 0001:0000f4c0       ??E?$_List_const_iterator@V?$_List_val@U?$_List_simple_types@PEA_W@std@@@std@@@std@@QEAAAEAV01@XZ 00000001800104c0 f i LSFileCrypt.obj
 0001:0000f650       ??E?$_List_iterator@V?$_List_val@U?$_List_simple_types@PEA_W@std@@@std@@@std@@QEAA?AV01@H@Z 0000000180010650 f i LSFileCrypt.obj
 0001:0000f6f0       ??_Ebad_alloc@std@@UEAAPEAXI@Z 00000001800106f0 f i LSFileCrypt.obj
 0001:0000f6f0       ??_Gbad_alloc@std@@UEAAPEAXI@Z 00000001800106f0 f i LSFileCrypt.obj
 0001:0000f740       ??_Ebad_array_new_length@std@@UEAAPEAXI@Z 0000000180010740 f i LSFileCrypt.obj
 0001:0000f740       ??_Gbad_array_new_length@std@@UEAAPEAXI@Z 0000000180010740 f i LSFileCrypt.obj
 0001:0000f790       ??_Eexception@std@@UEAAPEAXI@Z 0000000180010790 f i LSFileCrypt.obj
 0001:0000f790       ??_Gexception@std@@UEAAPEAXI@Z 0000000180010790 f i LSFileCrypt.obj
 0001:0000f7e0       ?Decrypt@LSFileCrypt@@QEAAKPEADPEB_W1_N2PEA_WH@Z 00000001800107e0 f   LSFileCrypt.obj
 0001:00010230       ?DecryptDirectory@LSFileCrypt@@QEAAKPEADPEB_W@Z 0000000180011230 f   LSFileCrypt.obj
 0001:00010740       ?DynamicBufferSize@LSFileCrypt@@AEAAK_K@Z 0000000180011740 f   LSFileCrypt.obj
 0001:00010810       ?Encrypt@LSFileCrypt@@QEAAKPEADPEB_W1_N2PEA_WH@Z 0000000180011810 f   LSFileCrypt.obj
 0001:00011170       ?EncryptDirectory@LSFileCrypt@@QEAAKPEADPEB_W@Z 0000000180012170 f   LSFileCrypt.obj
 0001:00011680       ?GetAllRefFileList@LSFileCrypt@@SAHPEB_W0AEAV?$list@PEA_WV?$allocator@PEA_W@std@@@std@@@Z 0000000180012680 f   LSFileCrypt.obj
 0001:00011c50       ?GetDefaultEnFileName@LSFileCrypt@@AEAAPEA_WPEB_WPEA_W@Z 0000000180012c50 f   LSFileCrypt.obj
 0001:00011e20       ?GetDirFileListEx@LSFileCrypt@@SAHPEB_WAEAV?$list@PEA_WV?$allocator@PEA_W@std@@@std@@1_N2@Z 0000000180012e20 f   LSFileCrypt.obj
 0001:000122b0       ?GetDirFileList_free@LSFileCrypt@@SAXAEAV?$list@PEA_WV?$allocator@PEA_W@std@@@std@@@Z 00000001800132b0 f   LSFileCrypt.obj
 0001:00012420       ?GetFileExtName@LSFileCrypt@@SAPEA_WPEB_WPEA_W@Z 0000000180013420 f   LSFileCrypt.obj
 0001:00012570       ?GetPath@LSFileCrypt@@SAPEA_WPEB_WPEA_W@Z 0000000180013570 f   LSFileCrypt.obj
 0001:000126a0       ?GetPathFileName@LSFileCrypt@@SAPEA_WPEB_WPEA_W@Z 00000001800136a0 f   LSFileCrypt.obj
 0001:000127c0       ?GetTempFile@LSFileCrypt@@SAPEA_WPEA_W@Z 00000001800137c0 f   LSFileCrypt.obj
 0001:000128c0       ?IsFileExists@LSFileCrypt@@SA_NPEB_W@Z 00000001800138c0 f   LSFileCrypt.obj
 0001:00012910       ?SetCallback@LSFileCrypt@@QEAAXP6AKK_K0@Z@Z 0000000180013910 f   LSFileCrypt.obj
 0001:00012940       ?_Adjust_manually_vector_aligned@std@@YAXAEAPEAXAEA_K@Z 0000000180013940 f i LSFileCrypt.obj
 0001:00012b40       ?_Adopt@_Iterator_base12@std@@QEAAXPEBU_Container_base12@2@@Z 0000000180013b40 f i LSFileCrypt.obj
 0001:00012b70       ?_Adopt_locked@_Iterator_base12@std@@AEAAXPEBU_Container_base12@2@@Z 0000000180013b70 f i LSFileCrypt.obj
 0001:00012bf0       ?_Adopt_unlocked@_Iterator_base12@std@@AEAAXPEBU_Container_base12@2@@Z 0000000180013bf0 f i LSFileCrypt.obj
 0001:00012ca0       ?_Alloc_sentinel_and_proxy@?$list@PEA_WV?$allocator@PEA_W@std@@@std@@AEAAXXZ 0000000180013ca0 f i LSFileCrypt.obj
 0001:00012df0       ?_Allocate@?$_Alloc_construct_ptr@V?$allocator@U?$_List_node@PEA_WPEAX@std@@@std@@@std@@QEAAXXZ 0000000180013df0 f i LSFileCrypt.obj
 0001:00012e40       ?_Allocate@_Default_allocate_traits@std@@SAPEAX_K@Z 0000000180013e40 f i LSFileCrypt.obj
 0001:00012e60       ?_Assign_locked@_Iterator_base12@std@@AEAAXAEBU12@@Z 0000000180013e60 f i LSFileCrypt.obj
 0001:00012ee0       ?_Assign_unlocked@_Iterator_base12@std@@AEAAXAEBU12@@Z 0000000180013ee0 f i LSFileCrypt.obj
 0001:00012f50       ?_Get_first@?$_Compressed_pair@V?$allocator@U?$_List_node@PEA_WPEAX@std@@@std@@V?$_List_val@U?$_List_simple_types@PEA_W@std@@@2@$00@std@@QEAAAEAV?$allocator@U?$_List_node@PEA_WPEAX@std@@@2@XZ 0000000180013f50 f i LSFileCrypt.obj
 0001:00012f60       ?_Get_first@?$_Compressed_pair@V?$allocator@U?$_List_node@PEA_WPEAX@std@@@std@@V?$_List_val@U?$_List_simple_types@PEA_W@std@@@2@$00@std@@QEBAAEBV?$allocator@U?$_List_node@PEA_WPEAX@std@@@2@XZ 0000000180013f60 f i LSFileCrypt.obj
 0001:00012f70       ?_Getal@?$list@PEA_WV?$allocator@PEA_W@std@@@std@@AEAAAEAV?$allocator@U?$_List_node@PEA_WPEAX@std@@@2@XZ 0000000180013f70 f i LSFileCrypt.obj
 0001:00012fa0       ?_Getal@?$list@PEA_WV?$allocator@PEA_W@std@@@std@@AEBAAEBV?$allocator@U?$_List_node@PEA_WPEAX@std@@@2@XZ 0000000180013fa0 f i LSFileCrypt.obj
 0001:00012fd0       ?_Getcont@_Iterator_base12@std@@QEBAPEBU_Container_base12@2@XZ 0000000180013fd0 f i LSFileCrypt.obj
 0001:00013020       ?_Orphan_all@_Container_base12@std@@QEAAXXZ 0000000180014020 f i LSFileCrypt.obj
 0001:00013040       ?_Orphan_all_locked_v3@_Container_base12@std@@AEAAXXZ 0000000180014040 f i LSFileCrypt.obj
 0001:000130b0       ?_Orphan_all_unlocked_v3@_Container_base12@std@@AEAAXXZ 00000001800140b0 f i LSFileCrypt.obj
 0001:00013140       ?_Orphan_me_locked_v3@_Iterator_base12@std@@AEAAXXZ 0000000180014140 f i LSFileCrypt.obj
 0001:000131b0       ?_Orphan_me_unlocked_v3@_Iterator_base12@std@@AEAAXXZ 00000001800141b0 f i LSFileCrypt.obj
 0001:00013300       ?_Orphan_non_end@?$_List_val@U?$_List_simple_types@PEA_W@std@@@std@@QEAAXXZ 0000000180014300 f i LSFileCrypt.obj
 0001:00013400       ?_Release@_Basic_container_proxy_ptr12@std@@QEAAXXZ 0000000180014400 f i LSFileCrypt.obj
 0001:00013420       ?_Throw_bad_array_new_length@std@@YAXXZ 0000000180014420 f i LSFileCrypt.obj
 0001:00013450       ?_Tidy@?$list@PEA_WV?$allocator@PEA_W@std@@@std@@AEAAXXZ 0000000180014450 f i LSFileCrypt.obj
 0001:000134c0       ?_Transfer_before@?$_List_node_emplace_op2@V?$allocator@U?$_List_node@PEA_WPEAX@std@@@std@@@std@@QEAAPEAU?$_List_node@PEA_WPEAX@2@QEAU32@@Z 00000001800144c0 f i LSFileCrypt.obj
 0001:000135b0       ?allocate@?$allocator@U?$_List_node@PEA_WPEAX@std@@@std@@QEAAPEAU?$_List_node@PEA_WPEAX@2@_K@Z 00000001800145b0 f i LSFileCrypt.obj
 0001:000135e0       ?allocate@?$allocator@U_Container_proxy@std@@@std@@QEAAPEAU_Container_proxy@2@_K@Z 00000001800145e0 f i LSFileCrypt.obj
 0001:00013610       ?begin@?$list@PEA_WV?$allocator@PEA_W@std@@@std@@QEAA?AV?$_List_iterator@V?$_List_val@U?$_List_simple_types@PEA_W@std@@@std@@@2@XZ 0000000180014610 f i LSFileCrypt.obj
 0001:00013660       ?clear@?$list@PEA_WV?$allocator@PEA_W@std@@@std@@QEAAXXZ 0000000180014660 f i LSFileCrypt.obj
 0001:00013700       ?deallocate@?$_Default_allocator_traits@V?$allocator@U?$_List_node@PEA_WPEAX@std@@@std@@@std@@SAXAEAV?$allocator@U?$_List_node@PEA_WPEAX@std@@@2@QEAU?$_List_node@PEA_WPEAX@2@_K@Z 0000000180014700 f i LSFileCrypt.obj
 0001:00013740       ?deallocate@?$_Default_allocator_traits@V?$allocator@U_Container_proxy@std@@@std@@@std@@SAXAEAV?$allocator@U_Container_proxy@std@@@2@QEAU_Container_proxy@2@_K@Z 0000000180014740 f i LSFileCrypt.obj
 0001:00013780       ?deallocate@?$allocator@U?$_List_node@PEA_WPEAX@std@@@std@@QEAAXQEAU?$_List_node@PEA_WPEAX@2@_K@Z 0000000180014780 f i LSFileCrypt.obj
 0001:000137c0       ?end@?$list@PEA_WV?$allocator@PEA_W@std@@@std@@QEAA?AV?$_List_iterator@V?$_List_val@U?$_List_simple_types@PEA_W@std@@@std@@@2@XZ 00000001800147c0 f i LSFileCrypt.obj
 0001:00013810       ?max@?$numeric_limits@_J@std@@SA_JXZ 0000000180014810 f i LSFileCrypt.obj
 0001:00013830       ?max_size@?$_Default_allocator_traits@V?$allocator@U?$_List_node@PEA_WPEAX@std@@@std@@@std@@SA_KAEBV?$allocator@U?$_List_node@PEA_WPEAX@std@@@2@@Z 0000000180014830 f i LSFileCrypt.obj
 0001:00013850       ?max_size@?$list@PEA_WV?$allocator@PEA_W@std@@@std@@QEBA_KXZ 0000000180014850 f i LSFileCrypt.obj
 0001:000138b0       ?push_back@?$list@PEA_WV?$allocator@PEA_W@std@@@std@@QEAAXAEBQEA_W@Z 00000001800148b0 f i LSFileCrypt.obj
 0001:000138f0       ?strcpyExW@LSFileCrypt@@SAPEA_WPEA_WPEB_WPEAPEA_WPEAH@Z 00000001800148f0 f   LSFileCrypt.obj
 0001:00013a00       ?what@exception@std@@UEBAPEBDXZ 0000000180014a00 f i LSFileCrypt.obj
 0001:00013a50       __local_stdio_printf_options 0000000180014a50 f i LSFileCrypt.obj
 0001:00013a60       _vswprintf_s_l             0000000180014a60 f i LSFileCrypt.obj
 0001:00013af0       swprintf_s                 0000000180014af0 f i LSFileCrypt.obj
 0001:00013ba0       rijndaelDecrypt            0000000180014ba0 f   rijndael-alg-fst.obj
 0001:00014670       rijndaelEncrypt            0000000180015670 f   rijndael-alg-fst.obj
 0001:00015140       rijndaelKeySetupDec        0000000180016140 f   rijndael-alg-fst.obj
 0001:00015820       rijndaelKeySetupEnc        0000000180016820 f   rijndael-alg-fst.obj
 0001:00016380       ?ObjectMain@CComObjectRootBase@ATL@@SAX_N@Z 0000000180017380 f i About.obj
 0001:00016390       ?GetCategoryMap@CComObjectRootBase@ATL@@SAPEBU_ATL_CATMAP_ENTRY@2@XZ 0000000180017390 f i About.obj
 0001:000163a0       ?GetObjectDescription@?$CComCoClass@VLSFCryptShellExt@@$1?CLSID_LSCryptShellExt@@3U_GUID@@B@ATL@@SAPEB_WXZ 00000001800173a0 f i About.obj
 0001:000163b0       ?UpdateRegistry@LSFCryptShellExt@@SAJH@Z 00000001800173b0 f i About.obj
 0001:000163f0       ?CreateInstance@?$CComCreator@V?$CComObjectCached@VCComClassFactory@ATL@@@ATL@@@ATL@@SAJPEAXAEBU_GUID@@PEAPEAX@Z 00000001800173f0 f i About.obj
 0001:00016660       ?CreateInstance@?$CComCreator2@V?$CComCreator@V?$CComObject@VLSFCryptShellExt@@@ATL@@@ATL@@V?$CComCreator@V?$CComAggObject@VLSFCryptShellExt@@@ATL@@@2@@ATL@@SAJPEAXAEBU_GUID@@PEAPEAX@Z 0000000180017660 f i About.obj
 0001:00016720       ??$?2PEA_W@?$Wrapper@PEA_W@?$CSimpleMap@PEA_WPEA_WVCExpansionVectorEqualHelper@ATL@@@ATL@@SAPEAX_KPEAPEA_W@Z 0000000180017720 f i About.obj
 0001:00016740       ??$?3PEA_W@?$Wrapper@PEA_W@?$CSimpleMap@PEA_WPEA_WVCExpansionVectorEqualHelper@ATL@@@ATL@@SAXPEAXPEAPEA_W@Z 0000000180017740 f i About.obj
 0001:00016750       ??$?4UITypeInfo2@@@?$CComPtr@UITypeInfo@@@ATL@@QEAAPEAUITypeInfo@@AEBV?$CComPtr@UITypeInfo2@@@1@@Z 0000000180017750 f i About.obj
 0001:000167d0       ??$AtlMultiply@K@ATL@@YAJPEAKKK@Z 00000001800177d0 f i About.obj
 0001:00016840       ??$AtlMultiply@_K@ATL@@YAJPEA_K_K1@Z 0000000180017840 f i About.obj
 0001:000168d0       ??$AtlMultiplyThrow@_K@ATL@@YA_K_K0@Z 00000001800178d0 f i About.obj
 0001:00016960       ??$QueryInterface@UITypeInfo2@@@IUnknown@@QEAAJPEAPEAUITypeInfo2@@@Z 0000000180017960 f i About.obj
 0001:000169a0       ??0?$CAtlSafeAllocBufferManager@VCCRTAllocator@ATL@@@_ATL_SAFE_ALLOCA_IMPL@ATL@@QEAA@XZ 00000001800179a0 f i About.obj
 0001:000169c0       ??0?$CAutoVectorPtr@_W@ATL@@QEAA@XZ 00000001800179c0 f i About.obj
 0001:000169e0       ??0?$CComAggObject@VLSFCryptShellExt@@@ATL@@QEAA@PEAX@Z 00000001800179e0 f i About.obj
 0001:00016a70       ??0?$CComContainedObject@VLSFCryptShellExt@@@ATL@@QEAA@PEAX@Z 0000000180017a70 f i About.obj
 0001:00016af0       ??0?$CComCritSecLock@VCComCriticalSection@ATL@@@ATL@@QEAA@AEAVCComCriticalSection@1@_N@Z 0000000180017af0 f i About.obj
 0001:00016b70       ??0?$CComObject@VLSFCryptShellExt@@@ATL@@QEAA@PEAX@Z 0000000180017b70 f i About.obj
 0001:00016c00       ??0?$CComObjectCached@VCComClassFactory@ATL@@@ATL@@QEAA@PEAX@Z 0000000180017c00 f i About.obj
 0001:00016c40       ??0?$CComObjectRootEx@VCComMultiThreadModel@ATL@@@ATL@@QEAA@XZ 0000000180017c40 f i About.obj
 0001:00016c80       ??0?$CComObjectRootEx@VCComSingleThreadModel@ATL@@@ATL@@QEAA@XZ 0000000180017c80 f i About.obj
 0001:00016cb0       ??0?$CComPtr@UITypeInfo2@@@ATL@@QEAA@XZ 0000000180017cb0 f i About.obj
 0001:00016ce0       ??0?$CComPtr@UITypeInfo@@@ATL@@QEAA@AEBV01@@Z 0000000180017ce0 f i About.obj
 0001:00016d20       ??0?$CComPtr@UITypeInfo@@@ATL@@QEAA@XZ 0000000180017d20 f i About.obj
 0001:00016d50       ??0?$CComPtr@UITypeLib@@@ATL@@QEAA@XZ 0000000180017d50 f i About.obj
 0001:00016d80       ??0?$CComPtr@UIUnknown@@@ATL@@QEAA@XZ 0000000180017d80 f i About.obj
 0001:00016db0       ??0?$CComPtrBase@UITypeInfo2@@@ATL@@IEAA@XZ 0000000180017db0 f i About.obj
 0001:00016dd0       ??0?$CComPtrBase@UITypeInfo@@@ATL@@IEAA@PEAUITypeInfo@@@Z 0000000180017dd0 f i About.obj
 0001:00016e30       ??0?$CComPtrBase@UITypeInfo@@@ATL@@IEAA@XZ 0000000180017e30 f i About.obj
 0001:00016e50       ??0?$CComPtrBase@UITypeLib@@@ATL@@IEAA@XZ 0000000180017e50 f i About.obj
 0001:00016e70       ??0?$CComPtrBase@UIUnknown@@@ATL@@IEAA@XZ 0000000180017e70 f i About.obj
 0001:00016e90       ??0?$CHeapPtr@_WVCCRTAllocator@ATL@@@ATL@@QEAA@XZ 0000000180017e90 f i About.obj
 0001:00016ec0       ??0?$CHeapPtrBase@_WVCCRTAllocator@ATL@@@ATL@@IEAA@XZ 0000000180017ec0 f i About.obj
 0001:00016ee0       ??0?$CSimpleMap@PEA_WPEA_WVCExpansionVectorEqualHelper@ATL@@@ATL@@QEAA@XZ 0000000180017ee0 f i About.obj
 0001:00016f20       ??0?$CTempBuffer@E$0BAA@VCCRTAllocator@ATL@@@ATL@@QEAA@XZ 0000000180017f20 f i About.obj
 0001:00016f40       ??0?$CTempBuffer@_W$0BAA@VCCRTAllocator@ATL@@@ATL@@QEAA@XZ 0000000180017f40 f i About.obj
 0001:00016f60       ??0?$CTempBuffer@_W$0EAA@VCCRTAllocator@ATL@@@ATL@@QEAA@XZ 0000000180017f60 f i About.obj
 0001:00016f80       ??0?$CTraceCategoryEx@$00$0A@@ATL@@QEAA@PEB_W@Z 0000000180017f80 f i About.obj
 0001:00016fc0       ??0?$CTraceCategoryEx@$01$0A@@ATL@@QEAA@PEB_W@Z 0000000180017fc0 f i About.obj
 0001:00017000       ??0?$CTraceCategoryEx@$07$0A@@ATL@@QEAA@PEB_W@Z 0000000180018000 f i About.obj
 0001:00017040       ??0?$CTraceCategoryEx@$0CAAA@$0A@@ATL@@QEAA@PEB_W@Z 0000000180018040 f i About.obj
 0001:00017080       ??0?$IDispatchImpl@UILSCryptShellExt@@$1?IID_ILSCryptShellExt@@3U_GUID@@B$1?LIBID_LSCryptLib@@3U3@B$00$0A@VCComTypeInfoHolder@ATL@@@ATL@@QEAA@XZ 0000000180018080 f i About.obj
 0001:000170b0       ??0?$Wrapper@PEA_W@?$CSimpleMap@PEA_WPEA_WVCExpansionVectorEqualHelper@ATL@@@ATL@@QEAA@AEBQEA_W@Z 00000001800180b0 f i About.obj
 0001:000170e0       ??0CAtlException@ATL@@QEAA@J@Z 00000001800180e0 f i About.obj
 0001:00017110       ??0CComAutoDeleteCriticalSection@ATL@@QEAA@XZ 0000000180018110 f i About.obj
 0001:00017140       ??0CComBSTR@ATL@@QEAA@XZ   0000000180018140 f i About.obj
 0001:00017160       ??0CComClassFactory@ATL@@QEAA@XZ 0000000180018160 f i About.obj
 0001:000171b0       ??0CComCriticalSection@ATL@@QEAA@XZ 00000001800181b0 f i About.obj
 0001:000171f0       ??0CComObjectRootBase@ATL@@QEAA@XZ 00000001800181f0 f i About.obj
 0001:00017210       ??0CComSafeDeleteCriticalSection@ATL@@QEAA@XZ 0000000180018210 f i About.obj
 0001:00017250       ??0CExpansionVector@ATL@@QEAA@XZ 0000000180018250 f i About.obj
 0001:00017280       ??0CParseBuffer@CRegParser@ATL@@QEAA@H@Z 0000000180018280 f i About.obj
 0001:00017320       ??0CPreserveLastError@ATL@@QEAA@XZ 0000000180018320 f i About.obj
 0001:00017350       ??0CRegKey@ATL@@QEAA@PEAVCAtlTransactionManager@1@@Z 0000000180018350 f i About.obj
 0001:000173a0       ??0CRegObject@ATL@@QEAA@XZ 00000001800183a0 f i About.obj
 0001:000173f0       ??0CRegParser@ATL@@QEAA@PEAVCRegObject@1@@Z 00000001800183f0 f i About.obj
 0001:00017430       ??0CTraceFileAndLineInfo@ATL@@QEAA@PEBDH@Z 0000000180018430 f i About.obj
 0001:00017470       ??0IClassFactory@@QEAA@XZ  0000000180018470 f i About.obj
 0001:000174a0       ??0IContextMenu@@QEAA@XZ   00000001800184a0 f i About.obj
 0001:000174d0       ??0IDispatch@@QEAA@XZ      00000001800184d0 f i About.obj
 0001:00017500       ??0ILSCryptShellExt@@QEAA@XZ 0000000180018500 f i About.obj
 0001:00017530       ??0IRegistrarBase@@QEAA@XZ 0000000180018530 f i About.obj
 0001:00017560       ??0IShellExtInit@@QEAA@XZ  0000000180018560 f i About.obj
 0001:00017590       ??0IUnknown@@QEAA@XZ       0000000180018590 f i About.obj
 0001:000175a0       ??0LSFCryptShellExt@@QEAA@XZ 00000001800185a0 f i About.obj
 0001:00017630       ??0ModuleLockHelper@ATL@@QEAA@XZ 0000000180018630 f i About.obj
 0001:00017670       ??0stringdispid@CComTypeInfoHolder@ATL@@QEAA@XZ 0000000180018670 f i About.obj
 0001:000176c0       ??1?$CAtlSafeAllocBufferManager@VCCRTAllocator@ATL@@@_ATL_SAFE_ALLOCA_IMPL@ATL@@QEAA@XZ 00000001800186c0 f i About.obj
 0001:00017720       ??1?$CAutoVectorPtr@_W@ATL@@QEAA@XZ 0000000180018720 f i About.obj
 0001:00017740       ??1?$CComAggObject@VLSFCryptShellExt@@@ATL@@UEAA@XZ 0000000180018740 f i About.obj
 0001:000177d0       ??1?$CComContainedObject@VLSFCryptShellExt@@@ATL@@QEAA@XZ 00000001800187d0 f i About.obj
 0001:000177f0       ??1?$CComCritSecLock@VCComCriticalSection@ATL@@@ATL@@QEAA@XZ 00000001800187f0 f i About.obj
 0001:00017820       ??1?$CComObject@VLSFCryptShellExt@@@ATL@@UEAA@XZ 0000000180018820 f i About.obj
 0001:000178c0       ??1?$CComObjectCached@VCComClassFactory@ATL@@@ATL@@UEAA@XZ 00000001800188c0 f i About.obj
 0001:00017920       ??1?$CComObjectRootEx@VCComMultiThreadModel@ATL@@@ATL@@QEAA@XZ 0000000180018920 f i About.obj
 0001:00017960       ??1?$CComObjectRootEx@VCComSingleThreadModel@ATL@@@ATL@@QEAA@XZ 0000000180018960 f i About.obj
 0001:00017980       ??1?$CComPtr@UITypeInfo2@@@ATL@@QEAA@XZ 0000000180018980 f i About.obj
 0001:000179a0       ??1?$CComPtr@UITypeInfo@@@ATL@@QEAA@XZ 00000001800189a0 f i About.obj
 0001:000179c0       ??1?$CComPtr@UITypeLib@@@ATL@@QEAA@XZ 00000001800189c0 f i About.obj
 0001:000179e0       ??1?$CComPtr@UIUnknown@@@ATL@@QEAA@XZ 00000001800189e0 f i About.obj
 0001:00017a00       ??1?$CComPtrBase@UITypeInfo2@@@ATL@@QEAA@XZ 0000000180018a00 f i About.obj
 0001:00017a40       ??1?$CComPtrBase@UITypeInfo@@@ATL@@QEAA@XZ 0000000180018a40 f i About.obj
 0001:00017a80       ??1?$CComPtrBase@UITypeLib@@@ATL@@QEAA@XZ 0000000180018a80 f i About.obj
 0001:00017ac0       ??1?$CComPtrBase@UIUnknown@@@ATL@@QEAA@XZ 0000000180018ac0 f i About.obj
 0001:00017b00       ??1?$CHeapPtr@_WVCCRTAllocator@ATL@@@ATL@@QEAA@XZ 0000000180018b00 f i About.obj
 0001:00017b20       ??1?$CHeapPtrBase@_WVCCRTAllocator@ATL@@@ATL@@QEAA@XZ 0000000180018b20 f i About.obj
 0001:00017b40       ??1?$CSimpleMap@PEA_WPEA_WVCExpansionVectorEqualHelper@ATL@@@ATL@@QEAA@XZ 0000000180018b40 f i About.obj
 0001:00017b70       ??1?$CTempBuffer@E$0BAA@VCCRTAllocator@ATL@@@ATL@@QEAA@XZ 0000000180018b70 f i About.obj
 0001:00017bb0       ??1?$CTempBuffer@_W$0BAA@VCCRTAllocator@ATL@@@ATL@@QEAA@XZ 0000000180018bb0 f i About.obj
 0001:00017bf0       ??1?$CTempBuffer@_W$0EAA@VCCRTAllocator@ATL@@@ATL@@QEAA@XZ 0000000180018bf0 f i About.obj
 0001:00017c30       ??1CComAutoDeleteCriticalSection@ATL@@QEAA@XZ 0000000180018c30 f i About.obj
 0001:00017c50       ??1CComBSTR@ATL@@QEAA@XZ   0000000180018c50 f i About.obj
 0001:00017c80       ??1CComClassFactory@ATL@@UEAA@XZ 0000000180018c80 f i About.obj
 0001:00017cc0       ??1CComCriticalSection@ATL@@QEAA@XZ 0000000180018cc0 f i About.obj
 0001:00017cd0       ??1CComObjectRootBase@ATL@@QEAA@XZ 0000000180018cd0 f i About.obj
 0001:00017ce0       ??1CComSafeDeleteCriticalSection@ATL@@QEAA@XZ 0000000180018ce0 f i About.obj
 0001:00017d30       ??1CExpansionVector@ATL@@QEAA@XZ 0000000180018d30 f i About.obj
 0001:00017d60       ??1CParseBuffer@CRegParser@ATL@@QEAA@XZ 0000000180018d60 f i About.obj
 0001:00017d90       ??1CPreserveLastError@ATL@@QEAA@XZ 0000000180018d90 f i About.obj
 0001:00017dc0       ??1CRegKey@ATL@@QEAA@XZ    0000000180018dc0 f i About.obj
 0001:00017de0       ??1CRegObject@ATL@@UEAA@XZ 0000000180018de0 f i About.obj
 0001:00017e30       ??1LSFCryptShellExt@@QEAA@XZ 0000000180018e30 f i About.obj
 0001:00017e90       ??1ModuleLockHelper@ATL@@QEAA@XZ 0000000180018e90 f i About.obj
 0001:00017ec0       ??1stringdispid@CComTypeInfoHolder@ATL@@QEAA@XZ 0000000180018ec0 f i About.obj
 0001:00017ef0       ??8?$CComPtrBase@UIUnknown@@@ATL@@QEBA_NPEAUIUnknown@@@Z 0000000180018ef0 f i About.obj
 0001:00017f40       ??B?$CComPtrBase@UITypeInfo2@@@ATL@@QEBAPEAUITypeInfo2@@XZ 0000000180018f40 f i About.obj
 0001:00017f60       ??B?$CComPtrBase@UITypeInfo@@@ATL@@QEBAPEAUITypeInfo@@XZ 0000000180018f60 f i About.obj
 0001:00017f80       ??B?$CComPtrBase@UIUnknown@@@ATL@@QEBAPEAUIUnknown@@XZ 0000000180018f80 f i About.obj
 0001:00017fa0       ??B?$CHeapPtrBase@_WVCCRTAllocator@ATL@@@ATL@@QEBAPEA_WXZ 0000000180018fa0 f i About.obj
 0001:00017fc0       ??B?$CTempBuffer@E$0BAA@VCCRTAllocator@ATL@@@ATL@@QEBAPEAEXZ 0000000180018fc0 f i About.obj
 0001:00017fe0       ??B?$CTempBuffer@_W$0BAA@VCCRTAllocator@ATL@@@ATL@@QEBAPEA_WXZ 0000000180018fe0 f i About.obj
 0001:00018000       ??B?$CTempBuffer@_W$0EAA@VCCRTAllocator@ATL@@@ATL@@QEBAPEA_WXZ 0000000180019000 f i About.obj
 0001:00018020       ??B?$CTraceCategoryEx@$00$0A@@ATL@@QEAAIXZ 0000000180019020 f i About.obj
 0001:00018030       ??B?$CTraceCategoryEx@$01$0A@@ATL@@QEAAIXZ 0000000180019030 f i About.obj
 0001:00018040       ??B?$CTraceCategoryEx@$07$0A@@ATL@@QEAAIXZ 0000000180019040 f i About.obj
 0001:00018050       ??B?$CTraceCategoryEx@$0CAAA@$0A@@ATL@@QEAAIXZ 0000000180019050 f i About.obj
 0001:00018060       ??BCComBSTR@ATL@@QEBAPEA_WXZ 0000000180019060 f i About.obj
 0001:00018080       ??BCRegKey@ATL@@QEBAPEAUHKEY__@@XZ 0000000180019080 f i About.obj
 0001:000180a0       ??C?$CComPtrBase@UITypeInfo@@@ATL@@QEBAPEAV?$_NoAddRefReleaseOnCComPtr@UITypeInfo@@@1@XZ 00000001800190a0 f i About.obj
 0001:00018120       ??C?$CComPtrBase@UITypeLib@@@ATL@@QEBAPEAV?$_NoAddRefReleaseOnCComPtr@UITypeLib@@@1@XZ 0000000180019120 f i About.obj
 0001:000181a0       ??I?$CComPtrBase@UITypeInfo2@@@ATL@@QEAAPEAPEAUITypeInfo2@@XZ 00000001800191a0 f i About.obj
 0001:00018210       ??I?$CComPtrBase@UITypeInfo@@@ATL@@QEAAPEAPEAUITypeInfo@@XZ 0000000180019210 f i About.obj
 0001:00018280       ??I?$CComPtrBase@UITypeLib@@@ATL@@QEAAPEAPEAUITypeLib@@XZ 0000000180019280 f i About.obj
 0001:000182f0       ??I?$CComPtrBase@UIUnknown@@@ATL@@QEAAPEAPEAUIUnknown@@XZ 00000001800192f0 f i About.obj
 0001:00018360       ??ICComBSTR@ATL@@QEAAPEAPEA_WXZ 0000000180019360 f i About.obj
 0001:00018370       ??RCTraceFileAndLineInfo@ATL@@QEBAXHIPEB_WZZ 0000000180019370 f i About.obj
 0001:00018450       ??_Estringdispid@CComTypeInfoHolder@ATL@@QEAAPEAXI@Z 0000000180019450 f i About.obj
 0001:00018520       ??_G?$CComAggObject@VLSFCryptShellExt@@@ATL@@UEAAPEAXI@Z 0000000180019520 f i About.obj
 0001:00018520       ??_E?$CComAggObject@VLSFCryptShellExt@@@ATL@@UEAAPEAXI@Z 0000000180019520 f i About.obj
 0001:00018570       ??_G?$CComObject@VLSFCryptShellExt@@@ATL@@UEAAPEAXI@Z 0000000180019570 f i About.obj
 0001:00018570       ??_E?$CComObject@VLSFCryptShellExt@@@ATL@@UEAAPEAXI@Z 0000000180019570 f i About.obj
 0001:000185c0       ??_E?$CComObjectCached@VCComClassFactory@ATL@@@ATL@@UEAAPEAXI@Z 00000001800195c0 f i About.obj
 0001:000185c0       ??_G?$CComObjectCached@VCComClassFactory@ATL@@@ATL@@UEAAPEAXI@Z 00000001800195c0 f i About.obj
 0001:00018610       ??_GCComClassFactory@ATL@@UEAAPEAXI@Z 0000000180019610 f i About.obj
 0001:00018610       ??_ECComClassFactory@ATL@@UEAAPEAXI@Z 0000000180019610 f i About.obj
 0001:00018660       ??_ECRegObject@ATL@@UEAAPEAXI@Z 0000000180019660 f i About.obj
 0001:00018660       ??_GCRegObject@ATL@@UEAAPEAXI@Z 0000000180019660 f i About.obj
 0001:000186b0       ?AboutDialogProc@@YA_JPEAUHWND__@@I_K_J@Z 00000001800196b0 f   About.obj
 0001:00018d30       ?Add@?$CSimpleMap@PEA_WPEA_WVCExpansionVectorEqualHelper@ATL@@@ATL@@QEAAHAEBQEA_W0@Z 0000000180019d30 f i About.obj
 0001:00018e40       ?Add@CExpansionVector@ATL@@QEAAHPEB_W0@Z 0000000180019e40 f i About.obj
 0001:00019250       ?AddChar@CParseBuffer@CRegParser@ATL@@QEAAHPEB_W@Z 000000018001a250 f i About.obj
 0001:00019290       ?AddRef@?$CComAggObject@VLSFCryptShellExt@@@ATL@@UEAAKXZ 000000018001a290 f i About.obj
 0001:000192c0       ?AddRef@?$CComContainedObject@VLSFCryptShellExt@@@ATL@@UEAAKXZ 000000018001a2c0 f i About.obj
 0001:000192ec       ?AddRef@?$CComContainedObject@VLSFCryptShellExt@@@ATL@@W7EAAKXZ 000000018001a2ec f i About.obj
 0001:000192f8       ?AddRef@?$CComContainedObject@VLSFCryptShellExt@@@ATL@@WBA@EAAKXZ 000000018001a2f8 f i About.obj
 0001:00019310       ?AddRef@?$CComObject@VLSFCryptShellExt@@@ATL@@UEAAKXZ 000000018001a310 f i About.obj
 0001:0001933c       ?AddRef@?$CComObject@VLSFCryptShellExt@@@ATL@@W7EAAKXZ 000000018001a33c f i About.obj
 0001:00019348       ?AddRef@?$CComObject@VLSFCryptShellExt@@@ATL@@WBA@EAAKXZ 000000018001a348 f i About.obj
 0001:00019360       ?AddRef@?$CComObjectCached@VCComClassFactory@ATL@@@ATL@@UEAAKXZ 000000018001a360 f i About.obj
 0001:000193c0       ?AddRef@CRegObject@ATL@@UEAAKXZ 000000018001a3c0 f i About.obj
 0001:00019440       ?AddReplacement@CRegObject@ATL@@UEAAJPEB_W0@Z 000000018001a440 f i About.obj
 0001:000195c0       ?AddString@CParseBuffer@CRegParser@ATL@@QEAAHPEB_W@Z 000000018001a5c0 f i About.obj
 0001:000196f0       ?AddTermFunc@CAtlModule@ATL@@QEAAJP6AX_K@Z0@Z 000000018001a6f0 f i About.obj
 0001:00019760       ?AddValue@CRegParser@ATL@@IEAAJAEAVCRegKey@2@PEB_WPEA_W@Z 000000018001a760 f i About.obj
 0001:0001a280       ?Allocate@?$CHeapPtr@_WVCCRTAllocator@ATL@@@ATL@@QEAA_N_K@Z 000000018001b280 f i About.obj
 0001:0001a320       ?Allocate@?$CTempBuffer@E$0BAA@VCCRTAllocator@ATL@@@ATL@@QEAAPEAE_K@Z 000000018001b320 f i About.obj
 0001:0001a360       ?Allocate@?$CTempBuffer@_W$0BAA@VCCRTAllocator@ATL@@@ATL@@QEAAPEA_W_K@Z 000000018001b360 f i About.obj
 0001:0001a3a0       ?Allocate@?$CTempBuffer@_W$0EAA@VCCRTAllocator@ATL@@@ATL@@QEAAPEA_W_K@Z 000000018001b3a0 f i About.obj
 0001:0001a3e0       ?Allocate@CCRTAllocator@ATL@@SAPEAX_K@Z 000000018001b3e0 f i About.obj
 0001:0001a400       ?AllocateBytes@?$CHeapPtrBase@_WVCCRTAllocator@ATL@@@ATL@@QEAA_N_K@Z 000000018001b400 f i About.obj
 0001:0001a4a0       ?AllocateBytes@?$CTempBuffer@E$0BAA@VCCRTAllocator@ATL@@@ATL@@QEAAPEAE_K@Z 000000018001b4a0 f i About.obj
 0001:0001a560       ?AllocateBytes@?$CTempBuffer@_W$0BAA@VCCRTAllocator@ATL@@@ATL@@QEAAPEA_W_K@Z 000000018001b560 f i About.obj
 0001:0001a620       ?AllocateBytes@?$CTempBuffer@_W$0EAA@VCCRTAllocator@ATL@@@ATL@@QEAAPEA_W_K@Z 000000018001b620 f i About.obj
 0001:0001a6e0       ?AllocateHeap@?$CTempBuffer@E$0BAA@VCCRTAllocator@ATL@@@ATL@@AEAAX_K@Z 000000018001b6e0 f i About.obj
 0001:0001a740       ?AllocateHeap@?$CTempBuffer@_W$0BAA@VCCRTAllocator@ATL@@@ATL@@AEAAX_K@Z 000000018001b740 f i About.obj
 0001:0001a7a0       ?AllocateHeap@?$CTempBuffer@_W$0EAA@VCCRTAllocator@ATL@@@ATL@@AEAAX_K@Z 000000018001b7a0 f i About.obj
 0001:0001a800       ?Append@CParseBuffer@CRegParser@ATL@@QEAAHPEB_WH@Z 000000018001b800 f i About.obj
 0001:0001aaa0       ?AtlCoTaskMemCAlloc@ATL@@YAPEAXKK@Z 000000018001baa0 f i About.obj
 0001:0001ab30       ?AtlCoTaskMemRecalloc@ATL@@YAPEAXPEAXKK@Z 000000018001bb30 f i About.obj
 0001:0001abd0       ?AtlComQIPtrAssign2@ATL@@YAXPEAPEAUIUnknown@@PEAU2@AEBU_GUID@@@Z 000000018001bbd0 f i About.obj
 0001:0001ac60       ?AtlCrtErrorCheck@ATL@@YAHH@Z 000000018001bc60 f i About.obj
 0001:0001ace0       ?AtlGetPerUserRegistration@ATL@@YAJPEA_N@Z 000000018001bce0 f i About.obj
 0001:0001ad10       ?AtlHresultFromLastError@ATL@@YAJXZ 000000018001bd10 f i About.obj
 0001:0001ad40       ?AtlHresultFromWin32@ATL@@YAJK@Z 000000018001bd40 f i About.obj
 0001:0001ad60       ?AtlInternalQueryInterface@ATL@@YAJPEAXPEBU_ATL_INTMAP_ENTRY@1@AEBU_GUID@@PEAPEAX@Z 000000018001bd60 f i About.obj
 0001:0001b0c0       ?AtlModuleAddTermFunc@ATL@@YAJPEAU_ATL_MODULE70@1@P6AX_K@Z1@Z 000000018001c0c0 f i About.obj
 0001:0001b300       ?AtlThrowImpl@ATL@@YAXJ@Z  000000018001c300 f i About.obj
 0001:0001b3a0       ?Attach@?$CAutoVectorPtr@_W@ATL@@QEAAXPEA_W@Z 000000018001c3a0 f i About.obj
 0001:0001b430       ?Attach@CComBSTR@ATL@@QEAAXPEA_W@Z 000000018001c430 f i About.obj
 0001:0001b480       ?Attach@CRegKey@ATL@@QEAAXPEAUHKEY__@@@Z 000000018001c480 f i About.obj
 0001:0001b530       ?CanForceRemoveKey@CRegParser@ATL@@IEAAHPEB_W@Z 000000018001c530 f i About.obj
 0001:0001b5a0       ?ChToByte@CRegParser@ATL@@KAE_W@Z 000000018001c5a0 f i About.obj
 0001:0001b7a0       ?Cleanup@CComTypeInfoHolder@ATL@@SAX_K@Z 000000018001c7a0 f i About.obj
 0001:0001b8b0       ?ClearReplacements@CExpansionVector@ATL@@QEAAJXZ 000000018001c8b0 f i About.obj
 0001:0001b960       ?ClearReplacements@CRegObject@ATL@@UEAAJXZ 000000018001c960 f i About.obj
 0001:0001b9c0       ?Close@CRegKey@ATL@@QEAAJXZ 000000018001c9c0 f i About.obj
 0001:0001ba30       ?Create@CRegKey@ATL@@QEAAJPEAUHKEY__@@PEB_WPEA_WKKPEAU_SECURITY_ATTRIBUTES@@PEAK@Z 000000018001ca30 f i About.obj
 0001:0001bca0       ?CreateHyperlinkControls@@YAXPEAUHWND__@@@Z 000000018001cca0 f   About.obj
 0001:0001bf00       ?CreateInstance@?$CComCreator@V?$CComAggObject@VLSFCryptShellExt@@@ATL@@@ATL@@SAJPEAXAEBU_GUID@@PEAPEAX@Z 000000018001cf00 f i About.obj
 0001:0001c160       ?CreateInstance@?$CComCreator@V?$CComObject@VLSFCryptShellExt@@@ATL@@@ATL@@SAJPEAXAEBU_GUID@@PEAPEAX@Z 000000018001d160 f i About.obj
 0001:0001c3c0       ?CreateInstance@CComClassFactory@ATL@@UEAAJPEAUIUnknown@@AEBU_GUID@@PEAPEAX@Z 000000018001d3c0 f i About.obj
 0001:0001c510       ?Decrement@CComMultiThreadModel@ATL@@SAKPEAJ@Z 000000018001d510 f i About.obj
 0001:0001c530       ?Decrement@CComSingleThreadModel@ATL@@SAKPEAJ@Z 000000018001d530 f i About.obj
 0001:0001c560       ?DeleteSubKey@CRegKey@ATL@@QEAAJPEB_W@Z 000000018001d560 f i About.obj
 0001:0001c6c0       ?DeleteValue@CRegKey@ATL@@QEAAJPEB_W@Z 000000018001d6c0 f i About.obj
 0001:0001c750       ?Detach@?$CAutoVectorPtr@_W@ATL@@QEAAPEA_WXZ 000000018001d750 f i About.obj
 0001:0001c790       ?Detach@?$CComPtrBase@UITypeInfo@@@ATL@@QEAAPEAUITypeInfo@@XZ 000000018001d790 f i About.obj
 0001:0001c7d0       ?Detach@CComBSTR@ATL@@QEAAPEA_WXZ 000000018001d7d0 f i About.obj
 0001:0001c810       ?Detach@CParseBuffer@CRegParser@ATL@@QEAAPEA_WXZ 000000018001d810 f i About.obj
 0001:0001c870       ?Detach@CRegKey@ATL@@QEAAPEAUHKEY__@@XZ 000000018001d870 f i About.obj
 0001:0001c8d0       ?EndOfVar@CRegParser@ATL@@IEAAHXZ 000000018001d8d0 f i About.obj
 0001:0001c930       ?EnsureTI@CComTypeInfoHolder@ATL@@QEAAJK@Z 000000018001d930 f i About.obj
 0001:0001c990       ?EscapeSingleQuote@CAtlModule@ATL@@SAXPEA_W_KPEB_W@Z 000000018001d990 f i About.obj
 0001:0001cab0       ?FinalConstruct@?$CComAggObject@VLSFCryptShellExt@@@ATL@@QEAAJXZ 000000018001dab0 f i About.obj
 0001:0001caf0       ?FinalConstruct@CComObjectRootBase@ATL@@QEAAJXZ 000000018001daf0 f i About.obj
 0001:0001cb00       ?FinalConstruct@CRegObject@ATL@@QEAAJXZ 000000018001db00 f i About.obj
 0001:0001cb30       ?FinalConstruct@LSFCryptShellExt@@QEAAJXZ 000000018001db30 f i About.obj
 0001:0001cb40       ?FinalRelease@?$CComAggObject@VLSFCryptShellExt@@@ATL@@QEAAXXZ 000000018001db40 f i About.obj
 0001:0001cb80       ?FinalRelease@CComObjectRootBase@ATL@@QEAAXXZ 000000018001db80 f i About.obj
 0001:0001cb90       ?FinalRelease@LSFCryptShellExt@@QEAAXXZ 000000018001db90 f i About.obj
 0001:0001cba0       ?FindKey@?$CSimpleMap@PEA_WPEA_WVCExpansionVectorEqualHelper@ATL@@@ATL@@QEBAHAEBQEA_W@Z 000000018001dba0 f i About.obj
 0001:0001cc30       ?Free@?$CAutoVectorPtr@_W@ATL@@QEAAXXZ 000000018001dc30 f i About.obj
 0001:0001cc70       ?Free@?$CHeapPtrBase@_WVCCRTAllocator@ATL@@@ATL@@QEAAXXZ 000000018001dc70 f i About.obj
 0001:0001ccb0       ?Free@CCRTAllocator@ATL@@SAXPEAX@Z 000000018001dcb0 f i About.obj
 0001:0001ccd0       ?FreeHeap@?$CTempBuffer@E$0BAA@VCCRTAllocator@ATL@@@ATL@@AEAAXXZ 000000018001dcd0 f i About.obj
 0001:0001cd00       ?FreeHeap@?$CTempBuffer@_W$0BAA@VCCRTAllocator@ATL@@@ATL@@AEAAXXZ 000000018001dd00 f i About.obj
 0001:0001cd30       ?FreeHeap@?$CTempBuffer@_W$0EAA@VCCRTAllocator@ATL@@@ATL@@AEAAXXZ 000000018001dd30 f i About.obj
 0001:0001cd60       ?GenerateError@CRegParser@ATL@@IEAAJI@Z 000000018001dd60 f i About.obj
 0001:0001cd80       ?GetCategoryName@CTrace@ATL@@CAPEA_WI@Z 000000018001dd80 f i About.obj
 0001:0001ce00       ?GetIDsOfNames@?$IDispatchImpl@UILSCryptShellExt@@$1?IID_ILSCryptShellExt@@3U_GUID@@B$1?LIBID_LSCryptLib@@3U3@B$00$0A@VCComTypeInfoHolder@ATL@@@ATL@@UEAAJAEBU_GUID@@PEAPEA_WIKPEAJ@Z 000000018001de00 f i About.obj
 0001:0001ce60       ?GetIDsOfNames@CComTypeInfoHolder@ATL@@QEAAJAEBU_GUID@@PEAPEA_WIKPEAJ@Z 000000018001de60 f i About.obj
 0001:0001d070       ?GetKeyAt@?$CSimpleMap@PEA_WPEA_WVCExpansionVectorEqualHelper@ATL@@@ATL@@QEBAAEAPEA_WH@Z 000000018001e070 f i About.obj
 0001:0001d130       ?GetModuleInstance@CAtlBaseModule@ATL@@QEAAPEAUHINSTANCE__@@XZ 000000018001e130 f i About.obj
 0001:0001d150       ?GetSize@?$CSimpleMap@PEA_WPEA_WVCExpansionVectorEqualHelper@ATL@@@ATL@@QEBAHXZ 000000018001e150 f i About.obj
 0001:0001d170       ?GetTI@CComTypeInfoHolder@ATL@@QEAAJK@Z 000000018001e170 f i About.obj
 0001:0001dc80       ?GetTI@CComTypeInfoHolder@ATL@@QEAAJKPEAPEAUITypeInfo@@@Z 000000018001ec80 f i About.obj
 0001:0001dd90       ?GetTypeInfo@?$IDispatchImpl@UILSCryptShellExt@@$1?IID_ILSCryptShellExt@@3U_GUID@@B$1?LIBID_LSCryptLib@@3U3@B$00$0A@VCComTypeInfoHolder@ATL@@@ATL@@UEAAJIKPEAPEAUITypeInfo@@@Z 000000018001ed90 f i About.obj
 0001:0001dde0       ?GetTypeInfo@CComTypeInfoHolder@ATL@@QEAAJIKPEAPEAUITypeInfo@@@Z 000000018001ede0 f i About.obj
 0001:0001de30       ?GetTypeInfoCount@?$IDispatchImpl@UILSCryptShellExt@@$1?IID_ILSCryptShellExt@@3U_GUID@@B$1?LIBID_LSCryptLib@@3U3@B$00$0A@VCComTypeInfoHolder@ATL@@@ATL@@UEAAJPEAI@Z 000000018001ee30 f i About.obj
 0001:0001de70       ?GetValueAt@?$CSimpleMap@PEA_WPEA_WVCExpansionVectorEqualHelper@ATL@@@ATL@@QEBAAEAPEA_WH@Z 000000018001ee70 f i About.obj
 0001:0001df30       ?HKeyFromString@CRegParser@ATL@@KAPEAUHKEY__@@PEA_W@Z 000000018001ef30 f i About.obj
 0001:0001dfc0       ?HasSubKeys@CRegParser@ATL@@IEAAHPEAUHKEY__@@@Z 000000018001efc0 f i About.obj
 0001:0001e180       ?Increment@CComMultiThreadModel@ATL@@SAKPEAJ@Z 000000018001f180 f i About.obj
 0001:0001e1a0       ?Increment@CComSingleThreadModel@ATL@@SAKPEAJ@Z 000000018001f1a0 f i About.obj
 0001:0001e1d0       ?Init@CComCriticalSection@ATL@@QEAAJXZ 000000018001f1d0 f i About.obj
 0001:0001e230       ?Init@CComFakeCriticalSection@ATL@@QEAAJXZ 000000018001f230 f i About.obj
 0001:0001e240       ?Init@CComSafeDeleteCriticalSection@ATL@@QEAAJXZ 000000018001f240 f i About.obj
 0001:0001e2e0       ?InlineIsEqualUnknown@ATL@@YAHAEBU_GUID@@@Z 000000018001f2e0 f i About.obj
 0001:0001e380       ?InternalAddRef@?$CComObjectRootEx@VCComMultiThreadModel@ATL@@@ATL@@QEAAKXZ 000000018001f380 f i About.obj
 0001:0001e400       ?InternalAddRef@?$CComObjectRootEx@VCComSingleThreadModel@ATL@@@ATL@@QEAAKXZ 000000018001f400 f i About.obj
 0001:0001e480       ?InternalFinalConstructAddRef@CComObjectRootBase@ATL@@QEAAXXZ 000000018001f480 f i About.obj
 0001:0001e490       ?InternalFinalConstructAddRef@LSFCryptShellExt@@QEAAXXZ 000000018001f490 f i About.obj
 0001:0001e4c0       ?InternalFinalConstructRelease@CComObjectRootBase@ATL@@QEAAXXZ 000000018001f4c0 f i About.obj
 0001:0001e530       ?InternalFinalConstructRelease@LSFCryptShellExt@@QEAAXXZ 000000018001f530 f i About.obj
 0001:0001e560       ?InternalQueryInterface@CComObjectRootBase@ATL@@SAJPEAXPEBU_ATL_INTMAP_ENTRY@2@AEBU_GUID@@PEAPEAX@Z 000000018001f560 f i About.obj
 0001:0001e6b0       ?InternalRelease@?$CComObjectRootEx@VCComMultiThreadModel@ATL@@@ATL@@QEAAKXZ 000000018001f6b0 f i About.obj
 0001:0001e740       ?InternalRelease@?$CComObjectRootEx@VCComSingleThreadModel@ATL@@@ATL@@QEAAKXZ 000000018001f740 f i About.obj
 0001:0001e7d0       ?InternalSetAtIndex@?$CSimpleMap@PEA_WPEA_WVCExpansionVectorEqualHelper@ATL@@@ATL@@QEAAXHAEBQEA_W0@Z 000000018001f7d0 f i About.obj
 0001:0001e8d0       ?Invoke@?$IDispatchImpl@UILSCryptShellExt@@$1?IID_ILSCryptShellExt@@3U_GUID@@B$1?LIBID_LSCryptLib@@3U3@B$00$0A@VCComTypeInfoHolder@ATL@@@ATL@@UEAAJJAEBU_GUID@@KGPEAUtagDISPPARAMS@@PEAUtagVARIANT@@PEAUtagEXCEPINFO@@PEAI@Z 000000018001f8d0 f i About.obj
 0001:0001e980       ?Invoke@CComTypeInfoHolder@ATL@@QEAAJPEAUIDispatch@@JAEBU_GUID@@KGPEAUtagDISPPARAMS@@PEAUtagVARIANT@@PEAUtagEXCEPINFO@@PEAI@Z 000000018001f980 f i About.obj
 0001:0001ea50       ?IsEqualKey@CExpansionVectorEqualHelper@ATL@@SA_NQEA_W0@Z 000000018001fa50 f i About.obj
 0001:0001ea90       ?IsEqualObject@?$CComPtrBase@UITypeInfo@@@ATL@@QEAA_NPEAUIUnknown@@@Z 000000018001fa90 f i About.obj
 0001:0001ec30       ?IsSpace@CRegParser@ATL@@IEAAH_W@Z 000000018001fc30 f i About.obj
 0001:0001ec80       ?LoadNameCache@CComTypeInfoHolder@ATL@@QEAAJPEAUITypeInfo@@@Z 000000018001fc80 f i About.obj
 0001:0001f0b0       ?Lock@?$CComCritSecLock@VCComCriticalSection@ATL@@@ATL@@QEAAJXZ 00000001800200b0 f i About.obj
 0001:0001f1b0       ?Lock@CComCriticalSection@ATL@@QEAAJXZ 00000001800201b0 f i About.obj
 0001:0001f1e0       ?Lock@CComFakeCriticalSection@ATL@@QEAAJXZ 00000001800201e0 f i About.obj
 0001:0001f1f0       ?LockServer@CComClassFactory@ATL@@UEAAJH@Z 00000001800201f0 f i About.obj
 0001:0001f250       ?Lookup@?$CSimpleMap@PEA_WPEA_WVCExpansionVectorEqualHelper@ATL@@@ATL@@QEBAPEA_WAEBQEA_W@Z 0000000180020250 f i About.obj
 0001:0001f2b0       ?NextToken@CRegParser@ATL@@IEAAJPEA_W@Z 00000001800202b0 f i About.obj
 0001:0001f710       ?OLE2CT_EX@@YAPEB_WPEB_WI@Z 0000000180020710 f i About.obj
 0001:0001f730       ?OnDrawItem@@YAX_K_J@Z     0000000180020730 f   About.obj
 0001:0001f840       ?OnRegistry@@YAXXZ         0000000180020840 f   About.obj
 0001:0001f8a0       ?Open@CRegKey@ATL@@QEAAJPEAUHKEY__@@PEB_WK@Z 00000001800208a0 f i About.obj
 0001:0001fa80       ?OuterAddRef@CComObjectRootBase@ATL@@QEAAKXZ 0000000180020a80 f i About.obj
 0001:0001fab0       ?OuterQueryInterface@CComObjectRootBase@ATL@@QEAAJAEBU_GUID@@PEAPEAX@Z 0000000180020ab0 f i About.obj
 0001:0001fb00       ?OuterRelease@CComObjectRootBase@ATL@@QEAAKXZ 0000000180020b00 f i About.obj
 0001:0001fb30       ?PreProcessBuffer@CRegParser@ATL@@QEAAJPEA_WPEAPEA_W@Z 0000000180020b30 f i About.obj
 0001:000203c0       ?QueryInterface@?$CComAggObject@VLSFCryptShellExt@@@ATL@@UEAAJAEBU_GUID@@PEAPEAX@Z 00000001800213c0 f i About.obj
 0001:000204d0       ?QueryInterface@?$CComContainedObject@VLSFCryptShellExt@@@ATL@@UEAAJAEBU_GUID@@PEAPEAX@Z 00000001800214d0 f i About.obj
 0001:00020514       ?QueryInterface@?$CComContainedObject@VLSFCryptShellExt@@@ATL@@W7EAAJAEBU_GUID@@PEAPEAX@Z 0000000180021514 f i About.obj
 0001:00020520       ?QueryInterface@?$CComContainedObject@VLSFCryptShellExt@@@ATL@@WBA@EAAJAEBU_GUID@@PEAPEAX@Z 0000000180021520 f i About.obj
 0001:00020530       ?QueryInterface@?$CComObject@VLSFCryptShellExt@@@ATL@@UEAAJAEBU_GUID@@PEAPEAX@Z 0000000180021530 f i About.obj
 0001:0002056c       ?QueryInterface@?$CComObject@VLSFCryptShellExt@@@ATL@@W7EAAJAEBU_GUID@@PEAPEAX@Z 000000018002156c f i About.obj
 0001:00020578       ?QueryInterface@?$CComObject@VLSFCryptShellExt@@@ATL@@WBA@EAAJAEBU_GUID@@PEAPEAX@Z 0000000180021578 f i About.obj
 0001:00020590       ?QueryInterface@?$CComObjectCached@VCComClassFactory@ATL@@@ATL@@UEAAJAEBU_GUID@@PEAPEAX@Z 0000000180021590 f i About.obj
 0001:000205d0       ?QueryInterface@CRegObject@ATL@@UEAAJAEBU_GUID@@PEAPEAX@Z 00000001800215d0 f i About.obj
 0001:00020650       ?RecurseDeleteKey@CRegKey@ATL@@QEAAJPEB_W@Z 0000000180021650 f i About.obj
 0001:000208f0       ?RegCreateKeyExW@CAtlTransactionManager@ATL@@QEAAJPEAUHKEY__@@PEB_WKPEA_WKKQEAU_SECURITY_ATTRIBUTES@@PEAPEAU3@PEAK@Z 00000001800218f0 f i About.obj
 0001:00020b10       ?RegDeleteKeyW@CAtlTransactionManager@ATL@@QEAAJPEAUHKEY__@@PEB_W@Z 0000000180021b10 f i About.obj
 0001:00020c50       ?RegOpenKeyExW@CAtlTransactionManager@ATL@@QEAAJPEAUHKEY__@@PEB_WKKPEAPEAU3@@Z 0000000180021c50 f i About.obj
 0001:00020dd0       ?RegisterBuffer@CRegParser@ATL@@QEAAJPEA_WH@Z 0000000180021dd0 f i About.obj
 0001:000212c0       ?RegisterCategory@CTrace@ATL@@SAXPEB_WI@Z 00000001800222c0 f i About.obj
 0001:000213b0       ?RegisterFromResource@CRegObject@ATL@@IEAAJPEB_W00H@Z 00000001800223b0 f i About.obj
 0001:00021940       ?RegisterSubkeys@CRegParser@ATL@@IEAAJPEA_WPEAUHKEY__@@HH@Z 0000000180022940 f i About.obj
 0001:00022aa0       ?Release@?$CComAggObject@VLSFCryptShellExt@@@ATL@@UEAAKXZ 0000000180023aa0 f i About.obj
 0001:00022b70       ?Release@?$CComContainedObject@VLSFCryptShellExt@@@ATL@@UEAAKXZ 0000000180023b70 f i About.obj
 0001:00022b9c       ?Release@?$CComContainedObject@VLSFCryptShellExt@@@ATL@@W7EAAKXZ 0000000180023b9c f i About.obj
 0001:00022ba8       ?Release@?$CComContainedObject@VLSFCryptShellExt@@@ATL@@WBA@EAAKXZ 0000000180023ba8 f i About.obj
 0001:00022bc0       ?Release@?$CComObject@VLSFCryptShellExt@@@ATL@@UEAAKXZ 0000000180023bc0 f i About.obj
 0001:00022c90       ?Release@?$CComObject@VLSFCryptShellExt@@@ATL@@W7EAAKXZ 0000000180023c90 f i About.obj
 0001:00022c9c       ?Release@?$CComObject@VLSFCryptShellExt@@@ATL@@WBA@EAAKXZ 0000000180023c9c f i About.obj
 0001:00022cb0       ?Release@?$CComObjectCached@VCComClassFactory@ATL@@@ATL@@UEAAKXZ 0000000180023cb0 f i About.obj
 0001:00022d60       ?Release@CRegObject@ATL@@UEAAKXZ 0000000180023d60 f i About.obj
 0001:00022dd0       ?RemoveAll@?$CSimpleMap@PEA_WPEA_WVCExpansionVectorEqualHelper@ATL@@@ATL@@QEAAXXZ 0000000180023dd0 f i About.obj
 0001:00022e80       ?ResourceRegister@CRegObject@ATL@@QEAAJPEB_WI0@Z 0000000180023e80 f i About.obj
 0001:00022f90       ?ResourceUnregister@CRegObject@ATL@@QEAAJPEB_WI0@Z 0000000180023f90 f i About.obj
 0001:000230a0       ?SetDWORDValue@CRegKey@ATL@@QEAAJPEB_WK@Z 00000001800240a0 f i About.obj
 0001:00023160       ?SetMultiStringValue@CRegKey@ATL@@QEAAJPEB_W0@Z 0000000180024160 f i About.obj
 0001:00023310       ?SetStringValue@CRegKey@ATL@@QEAAJPEB_W0K@Z 0000000180024310 f i About.obj
 0001:000234d0       ?SetVoid@CComClassFactory@ATL@@QEAAXPEAX@Z 00000001800244d0 f i About.obj
 0001:00023500       ?SetVoid@CComObjectRootBase@ATL@@QEAAXPEAX@Z 0000000180024500 f i About.obj
 0001:00023510       ?SkipAssignment@CRegParser@ATL@@IEAAJPEA_W@Z 0000000180024510 f i About.obj
 0001:00023650       ?SkipWhiteSpace@CRegParser@ATL@@IEAAXXZ 0000000180024650 f i About.obj
 0001:000236b0       ?StrChrW@CRegParser@ATL@@KAPEA_WPEA_W_W@Z 00000001800246b0 f i About.obj
 0001:00023740       ?StrFromMap@CRegObject@ATL@@QEAAPEB_WPEA_W@Z 0000000180024740 f i About.obj
 0001:00023810       ?T2OLE_EX@@YAPEA_WPEA_WI@Z 0000000180024810 f i About.obj
 0001:00023830       ?Term@CComCriticalSection@ATL@@QEAAJXZ 0000000180024830 f i About.obj
 0001:00023860       ?TraceV@CTrace@ATL@@CAXPEBDHIIPEB_W@Z 0000000180024860 f i About.obj
 0001:00023bc0       ?TraceV@CTrace@ATL@@SAXPEBDHIIPEB_WPEAD@Z 0000000180024bc0 f i About.obj
 0001:00023de0       ?Unlock@?$CComCritSecLock@VCComCriticalSection@ATL@@@ATL@@QEAAXXZ 0000000180024de0 f i About.obj
 0001:00023e70       ?Unlock@CComCriticalSection@ATL@@QEAAJXZ 0000000180024e70 f i About.obj
 0001:00023ea0       ?Unlock@CComFakeCriticalSection@ATL@@QEAAJXZ 0000000180024ea0 f i About.obj
 0001:00023eb0       ?UpdateRegistryFromResource@CAtlModule@ATL@@QEAAJIHPEAU_ATL_REGMAP_ENTRY@2@@Z 0000000180024eb0 f i About.obj
 0001:00024530       ?VTFromRegType@CRegParser@ATL@@KAHPEB_WAEAG@Z 0000000180025530 f i About.obj
 0001:00024630       ?_AtlFinalConstruct@CComObjectRootBase@ATL@@QEAAJXZ 0000000180025630 f i About.obj
 0001:00024640       ?_AtlGetConversionACP@ATL@@YAIXZ 0000000180025640 f i About.obj
 0001:00024650       ?_AtlInitialConstruct@?$CComAggObject@VLSFCryptShellExt@@@ATL@@QEAAJXZ 0000000180025650 f i About.obj
 0001:000246b0       ?_AtlInitialConstruct@?$CComObjectRootEx@VCComMultiThreadModel@ATL@@@ATL@@QEAAJXZ 00000001800256b0 f i About.obj
 0001:000246e0       ?_AtlInitialConstruct@?$CComObjectRootEx@VCComSingleThreadModel@ATL@@@ATL@@QEAAJXZ 00000001800256e0 f i About.obj
 0001:000246f0       ?_AtlInitializeCriticalSectionEx@ATL@@YAHPEAU_RTL_CRITICAL_SECTION@@KK@Z 00000001800256f0 f i About.obj
 0001:00024730       ?_AtlRaiseException@ATL@@YAXKK@Z 0000000180025730 f i About.obj
 0001:00024760       ?_GetEntries@CComClassFactory@ATL@@SAPEBU_ATL_INTMAP_ENTRY@2@XZ 0000000180025760 f i About.obj
 0001:00024780       ?_GetEntries@LSFCryptShellExt@@SAPEBU_ATL_INTMAP_ENTRY@ATL@@XZ 0000000180025780 f i About.obj
 0001:000247a0       ?_InternalQueryInterface@CComClassFactory@ATL@@QEAAJAEBU_GUID@@PEAPEAX@Z 00000001800257a0 f i About.obj
 0001:000247f0       ?_InternalQueryInterface@LSFCryptShellExt@@QEAAJAEBU_GUID@@PEAPEAX@Z 00000001800257f0 f i About.obj
 0001:00024840       ?memcpy_s@Checked@ATL@@YAXPEAX_KPEBX1@Z 0000000180025840 f i About.obj
 0001:00024890       ?ocscpy_s@@YA_NPEA_W_KPEB_W@Z 0000000180025890 f i About.obj
 0001:00024910       ?ocslen@@YAHPEB_W@Z        0000000180025910 f i About.obj
 0001:00024940       ?tcsncpy_s@Checked@ATL@@YAHPEA_W_KPEB_W1@Z 0000000180025940 f i About.obj
 0001:00024990       ?wcsstr@@YAPEA_WPEA_WPEB_W@Z 0000000180025990 f i About.obj
 0001:000249c0       HRESULT_FROM_WIN32         00000001800259c0 f i About.obj
 0001:00024a10       InlineIsEqualGUID          0000000180025a10 f i About.obj
 0001:00024c90       ??0CFileList@@QEAA@XZ      0000000180025c90 f   FileList.obj
 0001:00024cb0       ??1CFileList@@QEAA@XZ      0000000180025cb0 f   FileList.obj
 0001:00024d00       ?GetFileList@CFileList@@QEAAHAEAV?$list@PEA_WV?$allocator@PEA_W@std@@@std@@0PEAH@Z 0000000180025d00 f   FileList.obj
 0001:00025020       ?GetFileListFree@CFileList@@QEAAXAEAV?$list@PEA_WV?$allocator@PEA_W@std@@@std@@@Z 0000000180026020 f   FileList.obj
 0001:000251a0       ?Reset@CFileList@@QEAAXXZ  00000001800261a0 f   FileList.obj
 0001:000251f0       ?SetDataObject@CFileList@@QEAAXPEAUIDataObject@@@Z 00000001800261f0 f   FileList.obj
 0001:00025260       ??0CHyperlink@@QEAA@XZ     0000000180026260 f   Hyperlink.obj
 0001:00025290       ??1CHyperlink@@QEAA@XZ     0000000180026290 f   Hyperlink.obj
 0001:000252c0       ?Create@CHyperlink@@QEAA_NPEAUHYPERLINKSTRUCT@@@Z 00000001800262c0 f   Hyperlink.obj
 0001:000257e0       ?Destroy@CHyperlink@@QEAAXXZ 00000001800267e0 f   Hyperlink.obj
 0001:000258a0       ?HyperlinkProc@CHyperlink@@CA_JPEAUHWND__@@I_K_J@Z 00000001800268a0 f   Hyperlink.obj
 0001:000259e0       ?OnDraw@CHyperlink@@AEAAXXZ 00000001800269e0 f   Hyperlink.obj
 0001:00025c30       ?OnMouseMove@CHyperlink@@AEAAXXZ 0000000180026c30 f   Hyperlink.obj
 0001:00025e00       ??0CMainDlg@@QEAA@HPEAUHWND__@@@Z 0000000180026e00 f   MainDlg.obj
 0001:00025f20       ??1CMainDlg@@QEAA@XZ       0000000180026f20 f   MainDlg.obj
 0001:00025f60       ??_E?$list@PEA_WV?$allocator@PEA_W@std@@@std@@QEAAPEAXI@Z 0000000180026f60 f i MainDlg.obj
 0001:00026030       ?AbortTask@CMainDlg@@IEAAXXZ 0000000180027030 f   MainDlg.obj
 0001:00026090       ?CenterWindow@CMainDlg@@IEAAXXZ 0000000180027090 f   MainDlg.obj
 0001:000261e0       ?DoModal@CMainDlg@@UEAA_JXZ 00000001800271e0 f   MainDlg.obj
 0001:00026250       ?DoTask@CMainDlg@@SAKPEAX@Z 0000000180027250 f   MainDlg.obj
 0001:00027640       ?ExitDlg@CMainDlg@@IEAAXH@Z 0000000180028640 f   MainDlg.obj
 0001:00027760       ?GetLastSystemError@LSFileCrypt@@QEAAKXZ 0000000180028760 f i MainDlg.obj
 0001:00027780       ?GetLastSystemErrorText@CMainDlg@@SAHPEA_WHK@Z 0000000180028780 f   MainDlg.obj
 0001:00027850       ?MainDialogProc@@YA_JPEAUHWND__@@I_K_J@Z 0000000180028850 f   MainDlg.obj
 0001:00027a60       ?MonitorProc@CMainDlg@@SAKPEAX@Z 0000000180028a60 f   MainDlg.obj
 0001:00027b90       ?OnCancel@CMainDlg@@MEAAXXZ 0000000180028b90 f   MainDlg.obj
 0001:00027d80       ?OnCommand@CMainDlg@@MEAA_N_K_J@Z 0000000180028d80 f   MainDlg.obj
 0001:00027df0       ?OnError@CMainDlg@@IEAA_N_K_J@Z 0000000180028df0 f   MainDlg.obj
 0001:000281c0       ?OnInitDialog@CMainDlg@@MEAA_NXZ 00000001800291c0 f   MainDlg.obj
 0001:00028600       ?OnMonitorThreadExit@CMainDlg@@IEAAX_K_J@Z 0000000180029600 f   MainDlg.obj
 0001:00028680       ?OnOK@CMainDlg@@MEAAXXZ    0000000180029680 f   MainDlg.obj
 0001:000286b0       ?OnTaskComplete@CMainDlg@@IEAAXXZ 00000001800296b0 f   MainDlg.obj
 0001:00028700       ?PreTranslateMessage@CMainDlg@@UEAA_NPEAUtagMSG@@@Z 0000000180029700 f   MainDlg.obj
 0001:00028960       ?SetCurrentFile@CMainDlg@@QEAAXPEB_W@Z 0000000180029960 f   MainDlg.obj
 0001:000289a0       ?SetCurrentProgressPos@CMainDlg@@QEAAHH@Z 00000001800299a0 f   MainDlg.obj
 0001:00028a10       ?SetCurrentProgressRange@CMainDlg@@QEAAXH@Z 0000000180029a10 f   MainDlg.obj
 0001:00028a80       ?SetFilesOfDone@CMainDlg@@QEAAXH@Z 0000000180029a80 f   MainDlg.obj
 0001:00028b70       ?SetItemText@CMainDlg@@QEAAXHPEB_W@Z 0000000180029b70 f   MainDlg.obj
 0001:00028bb0       ?SetPassword@CMainDlg@@QEAAXPEAD@Z 0000000180029bb0 f   MainDlg.obj
 0001:00028bf0       ?SetTask@CMainDlg@@QEAAXPEAVCFileList@@@Z 0000000180029bf0 f   MainDlg.obj
 0001:00028c20       ?SetTotalFile@CMainDlg@@QEAAHH@Z 0000000180029c20 f   MainDlg.obj
 0001:00028d30       ?SetTotalProgressPos@CMainDlg@@QEAAHH@Z 0000000180029d30 f   MainDlg.obj
 0001:00028e70       ?SetTotalProgressRange@CMainDlg@@QEAAXH@Z 0000000180029e70 f   MainDlg.obj
 0001:00028ee0       ?size@?$list@PEA_WV?$allocator@PEA_W@std@@@std@@QEBA_KXZ 0000000180029ee0 f i MainDlg.obj
 0001:00028f00       ?taskCallback@CMainDlg@@SAKK_K0@Z 0000000180029f00 f   MainDlg.obj
 0001:000291e0       ??0CPasswordDlg@@QEAA@HPEAUHWND__@@@Z 000000018002a1e0 f   PasswordDlg.obj
 0001:000293c0       ??1CPasswordDlg@@QEAA@XZ   000000018002a3c0 f   PasswordDlg.obj
 0001:00029410       ?CenterWindow@CPasswordDlg@@IEAAXXZ 000000018002a410 f   PasswordDlg.obj
 0001:00029560       ?DoModal@CPasswordDlg@@UEAA_JXZ 000000018002a560 f   PasswordDlg.obj
 0001:000295d0       ?OnCancel@CPasswordDlg@@MEAAXXZ 000000018002a5d0 f   PasswordDlg.obj
 0001:00029610       ?OnCommand@CPasswordDlg@@MEAA_N_K_J@Z 000000018002a610 f   PasswordDlg.obj
 0001:000296a0       ?OnDrawItem@CPasswordDlg@@QEAAX_K_J@Z 000000018002a6a0 f   PasswordDlg.obj
 0001:000298c0       ?OnInitDialog@CPasswordDlg@@MEAA_NXZ 000000018002a8c0 f   PasswordDlg.obj
 0001:0002a060       ?OnOK@CPasswordDlg@@MEAAXXZ 000000018002b060 f   PasswordDlg.obj
 0001:0002a490       ?PasswordDialogProc@@YA_JPEAUHWND__@@I_K_J@Z 000000018002b490 f   PasswordDlg.obj
 0001:0002a690       ?PreTranslateMessage@CPasswordDlg@@UEAA_NPEAUtagMSG@@@Z 000000018002b690 f   PasswordDlg.obj
 0001:0002a790       ?SetItemText@CPasswordDlg@@QEAAXHPEB_W@Z 000000018002b790 f   PasswordDlg.obj
 0001:0002a960       ??0CProgressDlg@@QEAA@HPEAUHWND__@@@Z 000000018002b960 f   ProgressDlg.obj
 0001:0002aa60       ??1CProgressDlg@@QEAA@XZ   000000018002ba60 f   ProgressDlg.obj
 0001:0002aaa0       ?AbortTask@CProgressDlg@@IEAAXXZ 000000018002baa0 f   ProgressDlg.obj
 0001:0002ab00       ?CenterWindow@CProgressDlg@@IEAAXXZ 000000018002bb00 f   ProgressDlg.obj
 0001:0002ac50       ?DoModal@CProgressDlg@@UEAA_JXZ 000000018002bc50 f   ProgressDlg.obj
 0001:0002acc0       ?DoTask@CProgressDlg@@SAKPEAX@Z 000000018002bcc0 f   ProgressDlg.obj
 0001:0002b050       ?ExitDlg@CProgressDlg@@IEAAXH@Z 000000018002c050 f   ProgressDlg.obj
 0001:0002b170       ?MonitorProc@CProgressDlg@@SAKPEAX@Z 000000018002c170 f   ProgressDlg.obj
 0001:0002b2a0       ?OnCancel@CProgressDlg@@MEAAXXZ 000000018002c2a0 f   ProgressDlg.obj
 0001:0002b490       ?OnCommand@CProgressDlg@@MEAA_N_K_J@Z 000000018002c490 f   ProgressDlg.obj
 0001:0002b500       ?OnError@CProgressDlg@@IEAA_N_K_J@Z 000000018002c500 f   ProgressDlg.obj
 0001:0002b750       ?OnInitDialog@CProgressDlg@@MEAA_NXZ 000000018002c750 f   ProgressDlg.obj
 0001:0002ba70       ?OnMonitorThreadExit@CProgressDlg@@IEAAX_K_J@Z 000000018002ca70 f   ProgressDlg.obj
 0001:0002baf0       ?OnOK@CProgressDlg@@MEAAXXZ 000000018002caf0 f   ProgressDlg.obj
 0001:0002bb20       ?OnTaskComplete@CProgressDlg@@IEAAXXZ 000000018002cb20 f   ProgressDlg.obj
 0001:0002bb70       ?PreTranslateMessage@CProgressDlg@@UEAA_NPEAUtagMSG@@@Z 000000018002cb70 f   ProgressDlg.obj
 0001:0002bd50       ?ProgressDialogProc@@YA_JPEAUHWND__@@I_K_J@Z 000000018002cd50 f   ProgressDlg.obj
 0001:0002bf60       ?SetCurrentProgressPos@CProgressDlg@@QEAAHH@Z 000000018002cf60 f   ProgressDlg.obj
 0001:0002bfd0       ?SetPassword@CProgressDlg@@QEAAXPEAD@Z 000000018002cfd0 f   ProgressDlg.obj
 0001:0002c010       ?taskCallback@CProgressDlg@@SAKK_K0@Z 000000018002d010 f   ProgressDlg.obj
 0001:0002c2f0       ??0?$CSimpleArray@GV?$CSimpleArrayEqualHelper@G@ATL@@@ATL@@QEAA@XZ 000000018002d2f0 f i stdafx.obj
 0001:0002c330       ??0?$CTraceCategoryEx@$03$0A@@ATL@@QEAA@PEB_W@Z 000000018002d330 f i stdafx.obj
 0001:0002c370       ??0?$CTraceCategoryEx@$0BA@$0A@@ATL@@QEAA@PEB_W@Z 000000018002d370 f i stdafx.obj
 0001:0002c3b0       ??0?$CTraceCategoryEx@$0BAA@$0A@@ATL@@QEAA@PEB_W@Z 000000018002d3b0 f i stdafx.obj
 0001:0002c3f0       ??0?$CTraceCategoryEx@$0BAAA@$0A@@ATL@@QEAA@PEB_W@Z 000000018002d3f0 f i stdafx.obj
 0001:0002c430       ??0?$CTraceCategoryEx@$0BAAAA@$0A@@ATL@@QEAA@PEB_W@Z 000000018002d430 f i stdafx.obj
 0001:0002c470       ??0?$CTraceCategoryEx@$0BAAAAA@$0A@@ATL@@QEAA@PEB_W@Z 000000018002d470 f i stdafx.obj
 0001:0002c4b0       ??0?$CTraceCategoryEx@$0CA@$0A@@ATL@@QEAA@PEB_W@Z 000000018002d4b0 f i stdafx.obj
 0001:0002c4f0       ??0?$CTraceCategoryEx@$0CAA@$0A@@ATL@@QEAA@PEB_W@Z 000000018002d4f0 f i stdafx.obj
 0001:0002c530       ??0?$CTraceCategoryEx@$0CAAAA@$0A@@ATL@@QEAA@PEB_W@Z 000000018002d530 f i stdafx.obj
 0001:0002c570       ??0?$CTraceCategoryEx@$0CAAAAA@$0A@@ATL@@QEAA@PEB_W@Z 000000018002d570 f i stdafx.obj
 0001:0002c5b0       ??0?$CTraceCategoryEx@$0EA@$0A@@ATL@@QEAA@PEB_W@Z 000000018002d5b0 f i stdafx.obj
 0001:0002c5f0       ??0?$CTraceCategoryEx@$0EAA@$0A@@ATL@@QEAA@PEB_W@Z 000000018002d5f0 f i stdafx.obj
 0001:0002c630       ??0?$CTraceCategoryEx@$0EAAA@$0A@@ATL@@QEAA@PEB_W@Z 000000018002d630 f i stdafx.obj
 0001:0002c670       ??0?$CTraceCategoryEx@$0EAAAA@$0A@@ATL@@QEAA@PEB_W@Z 000000018002d670 f i stdafx.obj
 0001:0002c6b0       ??0?$CTraceCategoryEx@$0EAAAAA@$0A@@ATL@@QEAA@PEB_W@Z 000000018002d6b0 f i stdafx.obj
 0001:0002c6f0       ??0?$CTraceCategoryEx@$0IA@$0A@@ATL@@QEAA@PEB_W@Z 000000018002d6f0 f i stdafx.obj
 0001:0002c730       ??0?$CTraceCategoryEx@$0IAA@$0A@@ATL@@QEAA@PEB_W@Z 000000018002d730 f i stdafx.obj
 0001:0002c770       ??0?$CTraceCategoryEx@$0IAAA@$0A@@ATL@@QEAA@PEB_W@Z 000000018002d770 f i stdafx.obj
 0001:0002c7b0       ??0?$CTraceCategoryEx@$0IAAAA@$0A@@ATL@@QEAA@PEB_W@Z 000000018002d7b0 f i stdafx.obj
 0001:0002c7f0       ??0CAtlComModule@ATL@@QEAA@XZ 000000018002d7f0 f i stdafx.obj
 0001:0002c940       ??0CAtlWinModule@ATL@@QEAA@XZ 000000018002d940 f i stdafx.obj
 0001:0002ca00       ??0_ATL_COM_MODULE70@ATL@@QEAA@XZ 000000018002da00 f i stdafx.obj
 0001:0002ca30       ??0_ATL_WIN_MODULE70@ATL@@QEAA@XZ 000000018002da30 f i stdafx.obj
 0001:0002ca80       ??1?$CSimpleArray@GV?$CSimpleArrayEqualHelper@G@ATL@@@ATL@@QEAA@XZ 000000018002da80 f i stdafx.obj
 0001:0002cab0       ??1CAtlComModule@ATL@@QEAA@XZ 000000018002dab0 f i stdafx.obj
 0001:0002cae0       ??1CAtlWinModule@ATL@@QEAA@XZ 000000018002dae0 f i stdafx.obj
 0001:0002cb10       ??1_ATL_COM_MODULE70@ATL@@QEAA@XZ 000000018002db10 f i stdafx.obj
 0001:0002cb40       ??1_ATL_WIN_MODULE70@ATL@@QEAA@XZ 000000018002db40 f i stdafx.obj
 0001:0002cb80       ??A?$CSimpleArray@GV?$CSimpleArrayEqualHelper@G@ATL@@@ATL@@QEAAAEAGH@Z 000000018002db80 f i stdafx.obj
 0001:0002cc40       ??B?$CTraceCategoryEx@$0CA@$0A@@ATL@@QEAAIXZ 000000018002dc40 f i stdafx.obj
 0001:0002cc50       ?AtlWinModuleInit@ATL@@YAJPEAU_ATL_WIN_MODULE70@1@@Z 000000018002dc50 f i stdafx.obj
 0001:0002cd70       ?AtlWinModuleTerm@ATL@@YAJPEAU_ATL_WIN_MODULE70@1@PEAUHINSTANCE__@@@Z 000000018002dd70 f i stdafx.obj
 0001:0002ce80       ?GetSize@?$CSimpleArray@GV?$CSimpleArrayEqualHelper@G@ATL@@@ATL@@QEBAHXZ 000000018002de80 f i stdafx.obj
 0001:0002cea0       ?RemoveAll@?$CSimpleArray@GV?$CSimpleArrayEqualHelper@G@ATL@@@ATL@@QEAAXXZ 000000018002dea0 f i stdafx.obj
 0001:0002cf30       ?Term@CAtlComModule@ATL@@QEAAXXZ 000000018002df30 f i stdafx.obj
 0001:0002d030       ?Term@CAtlWinModule@ATL@@QEAAXXZ 000000018002e030 f i stdafx.obj
 0001:0002d070       ??0?$CAtlDllModuleT@VCLSCryptModule@@@ATL@@QEAA@XZ 000000018002e070 f i LSCrypt.obj
 0001:0002d0b0       ??0?$CAtlModuleT@VCLSCryptModule@@@ATL@@QEAA@XZ 000000018002e0b0 f i LSCrypt.obj
 0001:0002d0e0       ??0?$CComPtr@UICatRegister@@@ATL@@QEAA@XZ 000000018002e0e0 f i LSCrypt.obj
 0001:0002d110       ??0?$CComPtrBase@UICatRegister@@@ATL@@IEAA@XZ 000000018002e110 f i LSCrypt.obj
 0001:0002d130       ??0CAtlModule@ATL@@QEAA@XZ 000000018002e130 f i LSCrypt.obj
 0001:0002d2e0       ??0CLSCryptModule@@QEAA@XZ 000000018002e2e0 f i LSCrypt.obj
 0001:0002d320       ??0CRegKey@ATL@@QEAA@PEAUHKEY__@@@Z 000000018002e320 f i LSCrypt.obj
 0001:0002d370       ??0_ATL_MODULE70@ATL@@QEAA@XZ 000000018002e370 f i LSCrypt.obj
 0001:0002d3a0       ??1?$CAtlDllModuleT@VCLSCryptModule@@@ATL@@UEAA@XZ 000000018002e3a0 f i LSCrypt.obj
 0001:0002d3e0       ??1?$CAtlModuleT@VCLSCryptModule@@@ATL@@UEAA@XZ 000000018002e3e0 f i LSCrypt.obj
 0001:0002d400       ??1?$CComPtr@UICatRegister@@@ATL@@QEAA@XZ 000000018002e400 f i LSCrypt.obj
 0001:0002d420       ??1?$CComPtrBase@UICatRegister@@@ATL@@QEAA@XZ 000000018002e420 f i LSCrypt.obj
 0001:0002d460       ??1CAtlModule@ATL@@UEAA@XZ 000000018002e460 f i LSCrypt.obj
 0001:0002d4a0       ??1CLSCryptModule@@UEAA@XZ 000000018002e4a0 f i LSCrypt.obj
 0001:0002d4c0       ??1_ATL_MODULE70@ATL@@QEAA@XZ 000000018002e4c0 f i LSCrypt.obj
 0001:0002d4f0       ??7CComBSTR@ATL@@QEBA_NXZ  000000018002e4f0 f i LSCrypt.obj
 0001:0002d530       ??8CComBSTR@ATL@@QEBA_NH@Z 000000018002e530 f i LSCrypt.obj
 0001:0002d5b0       ??9CComBSTR@ATL@@QEBA_NH@Z 000000018002e5b0 f i LSCrypt.obj
 0001:0002d600       ??B?$CComPtrBase@UITypeLib@@@ATL@@QEBAPEAUITypeLib@@XZ 000000018002e600 f i LSCrypt.obj
 0001:0002d620       ??C?$CComPtrBase@UICatRegister@@@ATL@@QEBAPEAV?$_NoAddRefReleaseOnCComPtr@UICatRegister@@@1@XZ 000000018002e620 f i LSCrypt.obj
 0001:0002d6a0       ??I?$CComPtrBase@UICatRegister@@@ATL@@QEAAPEAPEAUICatRegister@@XZ 000000018002e6a0 f i LSCrypt.obj
 0001:0002d710       ??_ECLSCryptModule@@UEAAPEAXI@Z 000000018002e710 f i LSCrypt.obj
 0001:0002d710       ??_GCLSCryptModule@@UEAAPEAXI@Z 000000018002e710 f i LSCrypt.obj
 0001:0002d760       ?AddCommonRGSReplacements@?$CAtlModuleT@VCLSCryptModule@@@ATL@@UEAAJPEAUIRegistrarBase@@@Z 000000018002e760 f i LSCrypt.obj
 0001:0002d7b0       ?AtlCallTermFunc@ATL@@YAXPEAU_ATL_MODULE70@1@@Z 000000018002e7b0 f i LSCrypt.obj
 0001:0002d870       ?AtlComModuleGetClassObject@ATL@@YAJPEAU_ATL_COM_MODULE70@1@AEBU_GUID@@1PEAPEAX@Z 000000018002e870 f i LSCrypt.obj
 0001:0002dc70       ?AtlComModuleRegisterServer@ATL@@YAJPEAU_ATL_COM_MODULE70@1@HPEBU_GUID@@@Z 000000018002ec70 f i LSCrypt.obj
 0001:0002ded0       ?AtlComModuleUnregisterServer@ATL@@YAJPEAU_ATL_COM_MODULE70@1@HPEBU_GUID@@@Z 000000018002eed0 f i LSCrypt.obj
 0001:0002e250       ?AtlLoadTypeLib@ATL@@YAJPEAUHINSTANCE__@@PEB_WPEAPEA_WPEAPEAUITypeLib@@@Z 000000018002f250 f i LSCrypt.obj
 0001:0002e850       ?AtlRegisterClassCategoriesHelper@ATL@@YAJAEBU_GUID@@PEBU_ATL_CATMAP_ENTRY@1@H@Z 000000018002f850 f i LSCrypt.obj
 0001:0002f210       ?AtlRegisterTypeLib@ATL@@YAJPEAUHINSTANCE__@@PEB_W@Z 0000000180030210 f i LSCrypt.obj
 0001:0002f650       ?AtlUnRegisterTypeLib@ATL@@YAJPEAUHINSTANCE__@@PEB_W@Z 0000000180030650 f i LSCrypt.obj
 0001:0002f910       ?DLLCheckeRegister@@YAHXZ  0000000180030910 f   LSCrypt.obj
 0001:0002fa30       ?DllCanUnloadNow@?$CAtlDllModuleT@VCLSCryptModule@@@ATL@@QEAAJXZ 0000000180030a30 f i LSCrypt.obj
 0001:0002fa90       ?DllClearReg@@YAXXZ        0000000180030a90 f   LSCrypt.obj
 0001:0002fba0       ?DllDecrypt@@YAKPEBDPEB_WP6AKK_K2@ZPEA_WHPEAK@Z 0000000180030ba0 f   LSCrypt.obj
 0001:0002fdc0       ?DllEncrypt@@YAKPEBDPEB_WP6AKK_K2@ZPEA_WHPEAK@Z 0000000180030dc0 f   LSCrypt.obj
 0001:0002ffe0       ?DllGetClassObject@?$CAtlDllModuleT@VCLSCryptModule@@@ATL@@QEAAJAEBU_GUID@@0PEAPEAX@Z 0000000180030fe0 f i LSCrypt.obj
 0001:00030040       ?DllMain@?$CAtlDllModuleT@VCLSCryptModule@@@ATL@@QEAAHKPEAX@Z 0000000180031040 f i LSCrypt.obj
 0001:00030080       ?DllOpenCrypt@@YAKPEB_W@Z  0000000180031080 f   LSCrypt.obj
 0001:000303e0       ?ExeProc@@YAIPEAX@Z        00000001800313e0 f   LSCrypt.obj
 0001:00030510       ?ExecuteObjectMain@CAtlComModule@ATL@@QEAAX_N@Z 0000000180031510 f i LSCrypt.obj
 0001:00030590       ?GetAppId@CLSCryptModule@@SAPEB_WXZ 0000000180031590 f i LSCrypt.obj
 0001:000305a0       ?GetClassObject@?$CAtlDllModuleT@VCLSCryptModule@@@ATL@@QEAAJAEBU_GUID@@0PEAPEAX@Z 00000001800315a0 f i LSCrypt.obj
 0001:000305f0       ?GetGITPtr@CAtlModule@ATL@@UEAAJPEAPEAUIGlobalInterfaceTable@@@Z 00000001800315f0 f i LSCrypt.obj
 0001:00030770       ?GetLockCount@CAtlModule@ATL@@UEAAJXZ 0000000180031770 f i LSCrypt.obj
 0001:00030790       ?GetPassword@CPasswordDlg@@QEAAPEADXZ 0000000180031790 f i LSCrypt.obj
 0001:000307b0       ?InitLibId@CLSCryptModule@@SAXXZ 00000001800317b0 f i LSCrypt.obj
 0001:000307e0       ?Length@CComBSTR@ATL@@QEBAIXZ 00000001800317e0 f i LSCrypt.obj
 0001:00030810       ?Lock@CAtlModule@ATL@@UEAAJXZ 0000000180031810 f i LSCrypt.obj
 0001:00030840       ?OLE2T_EX@@YAPEA_WPEA_WI@Z 0000000180031840 f i LSCrypt.obj
 0001:00030860       ?RegisterServer@?$CAtlModuleT@VCLSCryptModule@@@ATL@@QEAAJHPEBU_GUID@@@Z 0000000180031860 f i LSCrypt.obj
 0001:000308e0       ?RegisterServer@CAtlComModule@ATL@@QEAAJHPEBU_GUID@@@Z 00000001800318e0 f i LSCrypt.obj
 0001:00030920       ?SetValue@CRegKey@ATL@@QEAAJPEB_W0_NH@Z 0000000180031920 f i LSCrypt.obj
 0001:00030af0       ?Term@CAtlModule@ATL@@QEAAXXZ 0000000180031af0 f i LSCrypt.obj
 0001:00030bc0       ?Unlock@CAtlModule@ATL@@UEAAJXZ 0000000180031bc0 f i LSCrypt.obj
 0001:00030bf0       ?UnregisterServer@?$CAtlModuleT@VCLSCryptModule@@@ATL@@QEAAJHPEBU_GUID@@@Z 0000000180031bf0 f i LSCrypt.obj
 0001:00030c60       ?UnregisterServer@CAtlComModule@ATL@@QEAAJHPEBU_GUID@@@Z 0000000180031c60 f i LSCrypt.obj
 0001:00030ca0       ?_DllMain@?$CAtlDllModuleT@VCLSCryptModule@@@ATL@@QEAAHKPEAX@Z 0000000180031ca0 f i LSCrypt.obj
 0001:00030d50       ?wcscat_s@Checked@ATL@@YAXPEA_W_KPEB_W@Z 0000000180031d50 f i LSCrypt.obj
 0001:00030da0       ?wcscpy_s@Checked@ATL@@YAXPEA_W_KPEB_W@Z 0000000180031da0 f i LSCrypt.obj
 0001:00030df0       ?wcsncpy_s@Checked@ATL@@YAHPEA_W_KPEB_W1@Z 0000000180031df0 f i LSCrypt.obj
 0001:00030e40       DllCanUnloadNow            0000000180031e40 f   LSCrypt.obj
 0001:00030e60       DllGetClassObject          0000000180031e60 f   LSCrypt.obj
 0001:00030eb0       DllMain                    0000000180031eb0 f   LSCrypt.obj
 0001:00030f10       DllRegisterServer          0000000180031f10 f   LSCrypt.obj
 0001:00031040       DllUnregisterServer        0000000180032040 f   LSCrypt.obj
 0001:00031110       IsEqualGUID                0000000180032110 f i LSCrypt.obj
 0001:00031170       ?DoAbout@LSFCryptShellExt@@IEAAKPEAUHWND__@@@Z 0000000180032170 f   LSCryptShellExt.obj
 0001:000311c0       ?DoDecrypt@LSFCryptShellExt@@IEAAKPEAUHWND__@@@Z 00000001800321c0 f   LSCryptShellExt.obj
 0001:00031340       ?DoEncrypt@LSFCryptShellExt@@IEAAKPEAUHWND__@@@Z 0000000180032340 f   LSCryptShellExt.obj
 0001:000314c0       ?GetCommandString@LSFCryptShellExt@@UEAAJ_KIPEAIPEADI@Z 00000001800324c0 f   LSCryptShellExt.obj
 0001:000314f0       ?GetDefaultLanguage@LSFCryptShellExt@@AEAAXXZ 00000001800324f0 f   LSCryptShellExt.obj
 0001:00031560       ?Initialize@LSFCryptShellExt@@UEAAJPEFBU_ITEMIDLIST@@PEAUIDataObject@@PEAUHKEY__@@@Z 0000000180032560 f   LSCryptShellExt.obj
 0001:00031700       ?InvokeCommand@LSFCryptShellExt@@UEAAJPEAU_CMINVOKECOMMANDINFO@@@Z 0000000180032700 f   LSCryptShellExt.obj
 0001:00031900       ?QueryContextMenu@LSFCryptShellExt@@UEAAJPEAUHMENU__@@IIII@Z 0000000180032900 f   LSCryptShellExt.obj
 0001:00031d70       ?RunRegister@LSFCryptShellExt@@QEAAKPEA_W0@Z 0000000180032d70 f   LSCryptShellExt.obj
 0001:00032149       WideCharToMultiByte        0000000180033149 f   kernel32:KERNEL32.dll
 0001:0003214f       CreateFileW                000000018003314f f   kernel32:KERNEL32.dll
 0001:00032155       GetFileSize                0000000180033155 f   kernel32:KERNEL32.dll
 0001:0003215b       ReadFile                   000000018003315b f   kernel32:KERNEL32.dll
 0001:00032161       SetEndOfFile               0000000180033161 f   kernel32:KERNEL32.dll
 0001:00032167       SetFilePointer             0000000180033167 f   kernel32:KERNEL32.dll
 0001:0003216d       WriteFile                  000000018003316d f   kernel32:KERNEL32.dll
 0001:00032173       CloseHandle                0000000180033173 f   kernel32:KERNEL32.dll
 0001:00032179       GetLastError               0000000180033179 f   kernel32:KERNEL32.dll
 0001:0003217f       lstrcpynW                  000000018003317f f   kernel32:KERNEL32.dll
 0001:00032185       lstrcpyA                   0000000180033185 f   kernel32:KERNEL32.dll
 0001:0003218b       lstrlenA                   000000018003318b f   kernel32:KERNEL32.dll
 0001:00032191       MultiByteToWideChar        0000000180033191 f   kernel32:KERNEL32.dll
 0001:00032197       DeleteFileW                0000000180033197 f   kernel32:KERNEL32.dll
 0001:0003219d       FindClose                  000000018003319d f   kernel32:KERNEL32.dll
 0001:000321a3       FindFirstFileW             00000001800331a3 f   kernel32:KERNEL32.dll
 0001:000321a9       FindNextFileW              00000001800331a9 f   kernel32:KERNEL32.dll
 0001:000321af       GetFileAttributesW         00000001800331af f   kernel32:KERNEL32.dll
 0001:000321b5       GetTempFileNameW           00000001800331b5 f   kernel32:KERNEL32.dll
 0001:000321bb       SetFileAttributesW         00000001800331bb f   kernel32:KERNEL32.dll
 0001:000321c1       OutputDebugStringW         00000001800331c1 f   kernel32:KERNEL32.dll
 0001:000321c7       lstrcmpW                   00000001800331c7 f   kernel32:KERNEL32.dll
 0001:000321cd       lstrcmpiW                  00000001800331cd f   kernel32:KERNEL32.dll
 0001:000321d3       lstrcpyW                   00000001800331d3 f   kernel32:KERNEL32.dll
 0001:000321d9       lstrcatW                   00000001800331d9 f   kernel32:KERNEL32.dll
 0001:000321df       lstrlenW                   00000001800331df f   kernel32:KERNEL32.dll
 0001:000321e5       RaiseException             00000001800331e5 f   kernel32:KERNEL32.dll
 0001:000321eb       SetLastError               00000001800331eb f   kernel32:KERNEL32.dll
 0001:000321f1       EnterCriticalSection       00000001800331f1 f   kernel32:KERNEL32.dll
 0001:000321f7       LeaveCriticalSection       00000001800331f7 f   kernel32:KERNEL32.dll
 0001:000321fd       InitializeCriticalSectionAndSpinCount 00000001800331fd f   kernel32:KERNEL32.dll
 0001:00032203       DeleteCriticalSection      0000000180033203 f   kernel32:KERNEL32.dll
 0001:00032209       FreeLibrary                0000000180033209 f   kernel32:KERNEL32.dll
 0001:0003220f       GetModuleFileNameW         000000018003320f f   kernel32:KERNEL32.dll
 0001:00032215       GetModuleHandleW           0000000180033215 f   kernel32:KERNEL32.dll
 0001:0003221b       GetProcAddress             000000018003321b f   kernel32:KERNEL32.dll
 0001:00032221       LoadLibraryExW             0000000180033221 f   kernel32:KERNEL32.dll
 0001:00032227       LoadResource               0000000180033227 f   kernel32:KERNEL32.dll
 0001:0003222d       SizeofResource             000000018003322d f   kernel32:KERNEL32.dll
 0001:00032233       FindResourceW              0000000180033233 f   kernel32:KERNEL32.dll
 0001:00032239       GetUserDefaultLangID       0000000180033239 f   kernel32:KERNEL32.dll
 0001:0003223f       GlobalUnlock               000000018003323f f   kernel32:KERNEL32.dll
 0001:00032245       GlobalLock                 0000000180033245 f   kernel32:KERNEL32.dll
 0001:0003224b       Sleep                      000000018003324b f   kernel32:KERNEL32.dll
 0001:00032251       CreateThread               0000000180033251 f   kernel32:KERNEL32.dll
 0001:00032257       TerminateThread            0000000180033257 f   kernel32:KERNEL32.dll
 0001:0003225d       GetExitCodeThread          000000018003325d f   kernel32:KERNEL32.dll
 0001:00032263       SuspendThread              0000000180033263 f   kernel32:KERNEL32.dll
 0001:00032269       ResumeThread               0000000180033269 f   kernel32:KERNEL32.dll
 0001:0003226f       LocalFree                  000000018003326f f   kernel32:KERNEL32.dll
 0001:00032275       FormatMessageW             0000000180033275 f   kernel32:KERNEL32.dll
 0001:0003227b       lstrcpynA                  000000018003327b f   kernel32:KERNEL32.dll
 0001:00032281       lstrcmpA                   0000000180033281 f   kernel32:KERNEL32.dll
 0001:00032287       DecodePointer              0000000180033287 f   kernel32:KERNEL32.dll
 0001:0003228d       GetShortPathNameW          000000018003328d f   kernel32:KERNEL32.dll
 0001:00032293       EncodePointer              0000000180033293 f   kernel32:KERNEL32.dll
 0001:00032299       WaitForSingleObject        0000000180033299 f   kernel32:KERNEL32.dll
 0001:0003229f       GetVersion                 000000018003329f f   kernel32:KERNEL32.dll
 0001:000322a5       CreateProcessW             00000001800332a5 f   kernel32:KERNEL32.dll
 0001:000322ab       LoadStringW                00000001800332ab f   user32:USER32.dll
 0001:000322b1       SendMessageW               00000001800332b1 f   user32:USER32.dll
 0001:000322b7       SetWindowPos               00000001800332b7 f   user32:USER32.dll
 0001:000322bd       EndDialog                  00000001800332bd f   user32:USER32.dll
 0001:000322c3       GetDlgItem                 00000001800332c3 f   user32:USER32.dll
 0001:000322c9       SetDlgItemTextW            00000001800332c9 f   user32:USER32.dll
 0001:000322cf       CharNextW                  00000001800332cf f   user32:USER32.dll
 0001:000322d5       GetSystemMetrics           00000001800332d5 f   user32:USER32.dll
 0001:000322db       DrawIcon                   00000001800332db f   user32:USER32.dll
 0001:000322e1       SetWindowTextW             00000001800332e1 f   user32:USER32.dll
 0001:000322e7       GetClientRect              00000001800332e7 f   user32:USER32.dll
 0001:000322ed       GetWindowRect              00000001800332ed f   user32:USER32.dll
 0001:000322f3       MessageBoxW                00000001800332f3 f   user32:USER32.dll
 0001:000322f9       LoadCursorW                00000001800332f9 f   user32:USER32.dll
 0001:000322ff       LoadIconW                  00000001800332ff f   user32:USER32.dll
 0001:00032305       LoadImageW                 0000000180033305 f   user32:USER32.dll
 0001:0003230b       DefWindowProcW             000000018003330b f   user32:USER32.dll
 0001:00032311       CreateWindowExW            0000000180033311 f   user32:USER32.dll
 0001:00032317       IsWindow                   0000000180033317 f   user32:USER32.dll
 0001:0003231d       DestroyWindow              000000018003331d f   user32:USER32.dll
 0001:00032323       SetCapture                 0000000180033323 f   user32:USER32.dll
 0001:00032329       ReleaseCapture             0000000180033329 f   user32:USER32.dll
 0001:0003232f       DrawTextExW                000000018003332f f   user32:USER32.dll
 0001:00032335       UpdateWindow               0000000180033335 f   user32:USER32.dll
 0001:0003233b       BeginPaint                 000000018003333b f   user32:USER32.dll
 0001:00032341       EndPaint                   0000000180033341 f   user32:USER32.dll
 0001:00032347       InvalidateRect             0000000180033347 f   user32:USER32.dll
 0001:0003234d       SetPropW                   000000018003334d f   user32:USER32.dll
 0001:00032353       GetPropW                   0000000180033353 f   user32:USER32.dll
 0001:00032359       SetCursor                  0000000180033359 f   user32:USER32.dll
 0001:0003235f       GetCursorPos               000000018003335f f   user32:USER32.dll
 0001:00032365       FillRect                   0000000180033365 f   user32:USER32.dll
 0001:0003236b       PtInRect                   000000018003336b f   user32:USER32.dll
 0001:00032371       SetWindowLongW             0000000180033371 f   user32:USER32.dll
 0001:00032377       PeekMessageW               0000000180033377 f   user32:USER32.dll
 0001:0003237d       PostMessageW               000000018003337d f   user32:USER32.dll
 0001:00032383       PostThreadMessageW         0000000180033383 f   user32:USER32.dll
 0001:00032389       DialogBoxParamW            0000000180033389 f   user32:USER32.dll
 0001:0003238f       GetDlgItemTextA            000000018003338f f   user32:USER32.dll
 0001:00032395       SetFocus                   0000000180033395 f   user32:USER32.dll
 0001:0003239b       ScreenToClient             000000018003339b f   user32:USER32.dll
 0001:000323a1       GetWindowLongW             00000001800333a1 f   user32:USER32.dll
 0001:000323a7       LoadBitmapW                00000001800333a7 f   user32:USER32.dll
 0001:000323ad       UnregisterClassW           00000001800333ad f   user32:USER32.dll
 0001:000323b3       InsertMenuW                00000001800333b3 f   user32:USER32.dll
 0001:000323b9       SetMenuItemBitmaps         00000001800333b9 f   user32:USER32.dll
 0001:000323bf       DeleteObject               00000001800333bf f   gdi32:GDI32.dll
 0001:000323c5       CreateFontW                00000001800333c5 f   gdi32:GDI32.dll
 0001:000323cb       CreateSolidBrush           00000001800333cb f   gdi32:GDI32.dll
 0001:000323d1       SelectObject               00000001800333d1 f   gdi32:GDI32.dll
 0001:000323d7       SetBkColor                 00000001800333d7 f   gdi32:GDI32.dll
 0001:000323dd       SetBkMode                  00000001800333dd f   gdi32:GDI32.dll
 0001:000323e3       SetTextColor               00000001800333e3 f   gdi32:GDI32.dll
 0001:000323e9       CreateCompatibleDC         00000001800333e9 f   gdi32:GDI32.dll
 0001:000323ef       StretchBlt                 00000001800333ef f   gdi32:GDI32.dll
 0001:000323f5       GetObjectW                 00000001800333f5 f   gdi32:GDI32.dll
 0001:000323fb       RegCloseKey                00000001800333fb f   advapi32:ADVAPI32.dll
 0001:00032401       RegCreateKeyExW            0000000180033401 f   advapi32:ADVAPI32.dll
 0001:00032407       RegDeleteKeyW              0000000180033407 f   advapi32:ADVAPI32.dll
 0001:0003240d       RegDeleteValueW            000000018003340d f   advapi32:ADVAPI32.dll
 0001:00032413       RegEnumKeyExW              0000000180033413 f   advapi32:ADVAPI32.dll
 0001:00032419       RegOpenKeyExW              0000000180033419 f   advapi32:ADVAPI32.dll
 0001:0003241f       RegQueryInfoKeyW           000000018003341f f   advapi32:ADVAPI32.dll
 0001:00032425       RegSetValueExW             0000000180033425 f   advapi32:ADVAPI32.dll
 0001:0003242b       SHGetSpecialFolderPathW    000000018003342b f   shell32:SHELL32.dll
 0001:00032431       DragQueryFileW             0000000180033431 f   shell32:SHELL32.dll
 0001:00032437       ShellExecuteExW            0000000180033437 f   shell32:SHELL32.dll
 0001:0003243d       CoTaskMemAlloc             000000018003343d f   ole32:ole32.dll
 0001:00032443       CoTaskMemRealloc           0000000180033443 f   ole32:ole32.dll
 0001:00032449       CoTaskMemFree              0000000180033449 f   ole32:ole32.dll
 0001:0003244f       ReleaseStgMedium           000000018003344f f   ole32:ole32.dll
 0001:00032455       CoCreateInstance           0000000180033455 f   ole32:ole32.dll
 0001:0003245b       StringFromGUID2            000000018003345b f   ole32:ole32.dll
 0001:00032461       SysFreeString              0000000180033461 f   oleaut32:OLEAUT32.dll
 0001:00032467       SysStringLen               0000000180033467 f   oleaut32:OLEAUT32.dll
 0001:0003246d       VarUI4FromStr              000000018003346d f   oleaut32:OLEAUT32.dll
 0001:00032473       LoadTypeLib                0000000180033473 f   oleaut32:OLEAUT32.dll
 0001:00032479       LoadRegTypeLib             0000000180033479 f   oleaut32:OLEAUT32.dll
 0001:0003247f       SysAllocString             000000018003347f f   oleaut32:OLEAUT32.dll
 0001:00032485       RegisterTypeLib            0000000180033485 f   oleaut32:OLEAUT32.dll
 0001:0003248b       UnRegisterTypeLib          000000018003348b f   oleaut32:OLEAUT32.dll
 0001:000324a0       ??_U@YAPEAX_K@Z            00000001800334a0 f   LIBCMTD:new_array.obj
 0001:000324c0       ??_V@YAXPEAX@Z             00000001800334c0 f   LIBCMTD:delete_array.obj
 0001:000324e0       _RTC_AllocaHelper          00000001800334e0 f   LIBCMTD:stack.obj
 0001:00032530       _RTC_CheckStackVars        0000000180033530 f   LIBCMTD:stack.obj
 0001:000325e0       _RTC_CheckStackVars2       00000001800335e0 f   LIBCMTD:stack.obj
 0001:00032730       _CRT_RTC_INIT              0000000180033730 f   LIBCMTD:init.obj
 0001:00032740       _CRT_RTC_INITW             0000000180033740 f   LIBCMTD:init.obj
 0001:00032750       _RTC_InitBase              0000000180033750 f   LIBCMTD:init.obj
 0001:000327a0       _RTC_Shutdown              00000001800337a0 f   LIBCMTD:init.obj
 0001:000327d0       __GSHandlerCheck           00000001800337d0 f   LIBCMTD:gshandler.obj
 0001:00032820       __GSHandlerCheckCommon     0000000180033820 f   LIBCMTD:gshandler.obj
 0001:00032970       __security_check_cookie    0000000180033970 f   LIBCMTD:amdsecgs.obj
 0001:000329a0       ??2@YAPEAX_K@Z             00000001800339a0 f   LIBCMTD:new_scalar.obj
 0001:00032a10       ??3@YAXPEAX_K@Z            0000000180033a10 f   LIBCMTD:delete_scalar_size.obj
 0001:00032a40       __raise_securityfailure    0000000180033a40 f   LIBCMTD:gs_report.obj
 0001:00032a90       __report_gsfailure         0000000180033a90 f   LIBCMTD:gs_report.obj
 0001:00032ba0       __report_rangecheckfailure 0000000180033ba0 f   LIBCMTD:gs_report.obj
 0001:00032bc0       __report_securityfailure   0000000180033bc0 f   LIBCMTD:gs_report.obj
 0001:00032c90       __report_securityfailureEx 0000000180033c90 f   LIBCMTD:gs_report.obj
 0001:00032f90       __GSHandlerCheck_EH4       0000000180033f90 f   LIBCMTD:gshandlereh4.obj
 0001:00033060       ??1type_info@@UEAA@XZ      0000000180034060 f   LIBCMTD:std_type_info_static.obj
 0001:00033080       ??_Gtype_info@@UEAAPEAXI@Z 0000000180034080 f i LIBCMTD:std_type_info_static.obj
 0001:00033080       ??_Etype_info@@UEAAPEAXI@Z 0000000180034080 f i LIBCMTD:std_type_info_static.obj
 0001:000330d0       ??_L@YAXPEAX_K1P6AX0@Z2@Z  00000001800340d0 f   LIBCMTD:ehvecctr.obj
 0001:000331b0       ??_L@YAXPEAX_KHP6AX0@Z2@Z  00000001800341b0 f   LIBCMTD:ehvecctr.obj
 0001:00033210       ??_M@YAXPEAX_K1P6AX0@Z@Z   0000000180034210 f   LIBCMTD:ehvecdtr.obj
 0001:00033300       ??_M@YAXPEAX_KHP6AX0@Z@Z   0000000180034300 f   LIBCMTD:ehvecdtr.obj
 0001:000333d0       ?__ArrayUnwind@@YAXPEAX_K1P6AX0@Z@Z 00000001800343d0 f   LIBCMTD:ehvecdtr.obj
 0001:00033470       ??_V@YAXPEAX_K@Z           0000000180034470 f   LIBCMTD:delete_array_size.obj
 0001:000334a0       ?configure_argv@__scrt_narrow_argv_policy@@SAHXZ 00000001800344a0 f i LIBCMTD:utility.obj
 0001:000335c0       ?initialize_environment@__scrt_narrow_environment_policy@@SAHXZ 00000001800345c0 f i LIBCMTD:utility.obj
 0001:00033690       NtCurrentTeb               0000000180034690 f i LIBCMTD:utility.obj
 0001:000336a0       __scrt_acquire_startup_lock 00000001800346a0 f   LIBCMTD:utility.obj
 0001:00033720       __scrt_dllmain_after_initialize_c 0000000180034720 f   LIBCMTD:utility.obj
 0001:00033760       __scrt_dllmain_before_initialize_c 0000000180034760 f   LIBCMTD:utility.obj
 0001:00033790       __scrt_dllmain_crt_thread_attach 0000000180034790 f   LIBCMTD:utility.obj
 0001:000337d0       __scrt_dllmain_crt_thread_detach 00000001800347d0 f   LIBCMTD:utility.obj
 0001:000337f0       __scrt_dllmain_exception_filter 00000001800347f0 f   LIBCMTD:utility.obj
 0001:00033870       __scrt_dllmain_uninitialize_c 0000000180034870 f   LIBCMTD:utility.obj
 0001:000338b0       __scrt_dllmain_uninitialize_critical 00000001800348b0 f   LIBCMTD:utility.obj
 0001:000338d0       __scrt_initialize_crt      00000001800348d0 f   LIBCMTD:utility.obj
 0001:00033930       __scrt_initialize_onexit_tables 0000000180034930 f   LIBCMTD:utility.obj
 0001:00033a80       __scrt_is_nonwritable_in_current_image 0000000180034a80 f   LIBCMTD:utility.obj
 0001:00033b30       __scrt_release_startup_lock 0000000180034b30 f   LIBCMTD:utility.obj
 0001:00033b70       __scrt_uninitialize_crt    0000000180034b70 f   LIBCMTD:utility.obj
 0001:00033bc0       _onexit                    0000000180034bc0 f   LIBCMTD:utility.obj
 0001:00033c60       at_quick_exit              0000000180034c60 f   LIBCMTD:utility.obj
 0001:00033cc0       atexit                     0000000180034cc0 f   LIBCMTD:utility.obj
 0001:00033d00       ??2@YAPEAX_KAEBUnothrow_t@std@@@Z 0000000180034d00 f   LIBCMTD:new_scalar_nothrow.obj
 0001:00033d40       ??_U@YAPEAX_KAEBUnothrow_t@std@@@Z 0000000180034d40 f   LIBCMTD:new_array_nothrow.obj
 0001:00033d70       ??3@YAXPEAXAEBUnothrow_t@std@@@Z 0000000180034d70 f   LIBCMTD:delete_scalar_nothrow.obj
 0001:00033da0       ??_V@YAXPEAXAEBUnothrow_t@std@@@Z 0000000180034da0 f   LIBCMTD:delete_array_nothrow.obj
 0001:00033de0       __chkstk                   0000000180034de0 f   LIBCMTD:chkstk.obj
 0001:00033de0       _alloca_probe              0000000180034de0 f   LIBCMTD:chkstk.obj
 0001:00033e50       ??3@YAXPEAX@Z              0000000180034e50 f   LIBCMTD:delete_scalar.obj
 0001:00034380       _CRT_INIT                  0000000180035380 f   LIBCMTD:dll_dllmain.obj
 0001:000343c0       _DllMainCRTStartup         00000001800353c0 f   LIBCMTD:dll_dllmain.obj
 0001:000344c0       ?_RTC_AllocaFailure@@YAXPEAXPEAU_RTC_ALLOCA_NODE@@H@Z 00000001800354c0 f   LIBCMTD:error.obj
 0001:00034670       ?_RTC_Failure@@YAXPEAXH@Z  0000000180035670 f   LIBCMTD:error.obj
 0001:000346e0       ?_RTC_StackFailure@@YAXPEAXPEBD@Z 00000001800356e0 f   LIBCMTD:error.obj
 0001:00034c20       _RTC_UninitUse             0000000180035c20 f   LIBCMTD:error.obj
 0001:00034d20       _vsprintf_s_l              0000000180035d20 f i LIBCMTD:error.obj
 0001:00034da0       sprintf_s                  0000000180035da0 f i LIBCMTD:error.obj
 0001:00034dd0       ?_RTC_GetErrorFunc@@YAP6AHHPEBDH00ZZPEBX@Z 0000000180035dd0 f   LIBCMTD:userapi.obj
 0001:00034de0       ?_RTC_GetErrorFuncW@@YAP6AHHPEB_WH00ZZPEBX@Z 0000000180035de0 f   LIBCMTD:userapi.obj
 0001:00034df0       _RTC_GetErrDesc            0000000180035df0 f   LIBCMTD:userapi.obj
 0001:00034e10       _RTC_NumErrors             0000000180035e10 f   LIBCMTD:userapi.obj
 0001:00034e20       _RTC_SetErrorFunc          0000000180035e20 f   LIBCMTD:userapi.obj
 0001:00034e40       _RTC_SetErrorFuncW         0000000180035e40 f   LIBCMTD:userapi.obj
 0001:00034e60       _RTC_SetErrorType          0000000180035e60 f   LIBCMTD:userapi.obj
 0001:00034e90       ??0bad_alloc@std@@QEAA@XZ  0000000180035e90 f i LIBCMTD:throw_bad_alloc.obj
 0001:00034ee0       ?__scrt_throw_std_bad_alloc@@YAXXZ 0000000180035ee0 f   LIBCMTD:throw_bad_alloc.obj
 0001:00034f10       ?__scrt_throw_std_bad_array_new_length@@YAXXZ 0000000180035f10 f   LIBCMTD:throw_bad_alloc.obj
 0001:00034f40       _guard_check_icall_nop     0000000180035f40 f i LIBCMTD:guard_support.obj
 0001:00034f50       ReadNoFence64              0000000180035f50 f i LIBCMTD:guard_support.obj
 0001:00034f80       ReadPointerNoFence         0000000180035f80 f i LIBCMTD:guard_support.obj
 0001:00034fa0       __castguard_check_failure_debugbreak 0000000180035fa0 f i LIBCMTD:guard_support.obj
 0001:00034fd0       __castguard_check_failure_fastfail 0000000180035fd0 f i LIBCMTD:guard_support.obj
 0001:00035000       __castguard_check_failure_nop 0000000180036000 f i LIBCMTD:guard_support.obj
 0001:00035010       __castguard_check_failure_os_handled 0000000180036010 f i LIBCMTD:guard_support.obj
 0001:00035110       __castguard_slow_path_check_debugbreak 0000000180036110 f i LIBCMTD:guard_support.obj
 0001:00035160       __castguard_slow_path_check_fastfail 0000000180036160 f i LIBCMTD:guard_support.obj
 0001:000351c0       __castguard_slow_path_check_nop 00000001800361c0 f i LIBCMTD:guard_support.obj
 0001:000351e0       __castguard_slow_path_check_os_handled 00000001800361e0 f i LIBCMTD:guard_support.obj
 0001:000352d0       _guard_icall_checks_enforced 00000001800362d0 f i LIBCMTD:guard_support.obj
 0001:00035320       _guard_rf_checks_enforced  0000000180036320 f i LIBCMTD:guard_support.obj
 0001:00035330       __isa_available_init       0000000180036330 f   LIBCMTD:cpu_disp.obj
 0001:000357b0       _get_startup_argv_mode     00000001800367b0 f   LIBCMTD:argv_mode.obj
 0001:000357c0       __scrt_is_ucrt_dll_in_use  00000001800367c0 f   LIBCMTD:ucrt_detection.obj
 0001:000357f0       __crt_debugger_hook        00000001800367f0 f   LIBCMTD:utility_desktop.obj
 0001:00035810       __scrt_fastfail            0000000180036810 f   LIBCMTD:utility_desktop.obj
 0001:00035a10       __scrt_get_show_window_mode 0000000180036a10 f   LIBCMTD:utility_desktop.obj
 0001:00035a80       __scrt_initialize_mta      0000000180036a80 f   LIBCMTD:utility_desktop.obj
 0001:00035aa0       __scrt_initialize_winrt    0000000180036aa0 f   LIBCMTD:utility_desktop.obj
 0001:00035ab0       __scrt_is_managed_app      0000000180036ab0 f   LIBCMTD:utility_desktop.obj
 0001:00035b80       __scrt_set_unhandled_exception_filter 0000000180036b80 f   LIBCMTD:utility_desktop.obj
 0001:00035ba0       __scrt_stub_for_initialize_mta 0000000180036ba0 f   LIBCMTD:utility_desktop.obj
 0001:00035ba0       __scrt_exe_initialize_mta  0000000180036ba0 f   LIBCMTD:utility_desktop.obj
 0001:00035bb0       __scrt_unhandled_exception_filter 0000000180036bb0 f   LIBCMTD:utility_desktop.obj
 0001:00035d60       __security_init_cookie     0000000180036d60 f   LIBCMTD:gs_support.obj
 0001:00035e00       ?__scrt_initialize_type_info@@YAXXZ 0000000180036e00 f   LIBCMTD:tncleanup.obj
 0001:00035e20       ?__scrt_uninitialize_type_info@@YAXXZ 0000000180036e20 f   LIBCMTD:tncleanup.obj
 0001:00035e40       __local_stdio_scanf_options 0000000180036e40 f i LIBCMTD:default_local_stdio_options.obj
 0001:00035e50       __scrt_initialize_default_local_stdio_options 0000000180036e50 f   LIBCMTD:default_local_stdio_options.obj
 0001:00035eb0       __scrt_get_dyn_tls_init_callback 0000000180036eb0 f   LIBCMTD:dyn_tls_init.obj
 0001:00035ec0       _RTC_Initialize            0000000180036ec0 f   LIBCMTD:initsect.obj
 0001:00035f20       _RTC_Terminate             0000000180036f20 f   LIBCMTD:initsect.obj
 0001:000365f0       ?_RTC_GetSrcLine@@YAHPEAEPEA_WKPEAH1K@Z 00000001800375f0 f   LIBCMTD:pdblkup.obj
 0001:00036ab0       ??0_Init_locks@std@@QEAA@XZ 0000000180037ab0 f   libcpmtd:xlock.obj
 0001:00036b60       ??0_Lockit@std@@QEAA@H@Z   0000000180037b60 f   libcpmtd:xlock.obj
 0001:00036be0       ??0_Lockit@std@@QEAA@XZ    0000000180037be0 f   libcpmtd:xlock.obj
 0001:00036c40       ??1_Init_locks@std@@QEAA@XZ 0000000180037c40 f   libcpmtd:xlock.obj
 0001:00036ce0       ??1_Lockit@std@@QEAA@XZ    0000000180037ce0 f   libcpmtd:xlock.obj
 0001:00036d40       ?_Init_locks_ctor@_Init_locks@std@@CAXPEAV12@@Z 0000000180037d40 f   libcpmtd:xlock.obj
 0001:00036de0       ?_Init_locks_dtor@_Init_locks@std@@CAXPEAV12@@Z 0000000180037de0 f   libcpmtd:xlock.obj
 0001:00036e80       ?_Lockit_ctor@_Lockit@std@@CAXPEAV12@@Z 0000000180037e80 f   libcpmtd:xlock.obj
 0001:00036ec0       ?_Lockit_ctor@_Lockit@std@@CAXPEAV12@H@Z 0000000180037ec0 f   libcpmtd:xlock.obj
 0001:00036f30       ?_Lockit_ctor@_Lockit@std@@SAXH@Z 0000000180037f30 f   libcpmtd:xlock.obj
 0001:00036f80       ?_Lockit_dtor@_Lockit@std@@CAXPEAV12@@Z 0000000180037f80 f   libcpmtd:xlock.obj
 0001:00036fc0       ?_Lockit_dtor@_Lockit@std@@SAXH@Z 0000000180037fc0 f   libcpmtd:xlock.obj
 0001:00037010       _Lock_at_thread_exit_mutex 0000000180038010 f   libcpmtd:xlock.obj
 0001:00037040       _Unlock_at_thread_exit_mutex 0000000180038040 f   libcpmtd:xlock.obj
 0001:00037070       ??0bad_function_call@std@@QEAA@AEBV01@@Z 0000000180038070 f i libcpmtd:xthrow.obj
 0001:000370c0       ??0bad_function_call@std@@QEAA@XZ 00000001800380c0 f i libcpmtd:xthrow.obj
 0001:00037100       ??0exception@std@@QEAA@QEBD@Z 0000000180038100 f i libcpmtd:xthrow.obj
 0001:00037180       ??0exception@std@@QEAA@XZ  0000000180038180 f i libcpmtd:xthrow.obj
 0001:000371c0       ??0invalid_argument@std@@QEAA@AEBV01@@Z 00000001800381c0 f i libcpmtd:xthrow.obj
 0001:00037210       ??0invalid_argument@std@@QEAA@PEBD@Z 0000000180038210 f i libcpmtd:xthrow.obj
 0001:00037260       ??0length_error@std@@QEAA@AEBV01@@Z 0000000180038260 f i libcpmtd:xthrow.obj
 0001:000372b0       ??0length_error@std@@QEAA@PEBD@Z 00000001800382b0 f i libcpmtd:xthrow.obj
 0001:00037300       ??0logic_error@std@@QEAA@AEBV01@@Z 0000000180038300 f i libcpmtd:xthrow.obj
 0001:00037350       ??0logic_error@std@@QEAA@PEBD@Z 0000000180038350 f i libcpmtd:xthrow.obj
 0001:000373a0       ??0out_of_range@std@@QEAA@AEBV01@@Z 00000001800383a0 f i libcpmtd:xthrow.obj
 0001:000373f0       ??0out_of_range@std@@QEAA@PEBD@Z 00000001800383f0 f i libcpmtd:xthrow.obj
 0001:00037440       ??0overflow_error@std@@QEAA@AEBV01@@Z 0000000180038440 f i libcpmtd:xthrow.obj
 0001:00037490       ??0overflow_error@std@@QEAA@PEBD@Z 0000000180038490 f i libcpmtd:xthrow.obj
 0001:000374e0       ??0regex_error@std@@QEAA@AEBV01@@Z 00000001800384e0 f i libcpmtd:xthrow.obj
 0001:00037540       ??0regex_error@std@@QEAA@W4error_type@regex_constants@1@@Z 0000000180038540 f i libcpmtd:xthrow.obj
 0001:000375a0       ??0runtime_error@std@@QEAA@AEBV01@@Z 00000001800385a0 f i libcpmtd:xthrow.obj
 0001:000375f0       ??0runtime_error@std@@QEAA@PEBD@Z 00000001800385f0 f i libcpmtd:xthrow.obj
 0001:00037640       ??1bad_function_call@std@@UEAA@XZ 0000000180038640 f i libcpmtd:xthrow.obj
 0001:00037660       ??1invalid_argument@std@@UEAA@XZ 0000000180038660 f i libcpmtd:xthrow.obj
 0001:00037680       ??1length_error@std@@UEAA@XZ 0000000180038680 f i libcpmtd:xthrow.obj
 0001:000376a0       ??1logic_error@std@@UEAA@XZ 00000001800386a0 f i libcpmtd:xthrow.obj
 0001:000376c0       ??1out_of_range@std@@UEAA@XZ 00000001800386c0 f i libcpmtd:xthrow.obj
 0001:000376e0       ??1overflow_error@std@@UEAA@XZ 00000001800386e0 f i libcpmtd:xthrow.obj
 0001:00037700       ??1regex_error@std@@UEAA@XZ 0000000180038700 f i libcpmtd:xthrow.obj
 0001:00037720       ??1runtime_error@std@@UEAA@XZ 0000000180038720 f i libcpmtd:xthrow.obj
 0001:00037740       ??_Ebad_function_call@std@@UEAAPEAXI@Z 0000000180038740 f i libcpmtd:xthrow.obj
 0001:00037740       ??_Gbad_function_call@std@@UEAAPEAXI@Z 0000000180038740 f i libcpmtd:xthrow.obj
 0001:00037790       ??_Einvalid_argument@std@@UEAAPEAXI@Z 0000000180038790 f i libcpmtd:xthrow.obj
 0001:00037790       ??_Ginvalid_argument@std@@UEAAPEAXI@Z 0000000180038790 f i libcpmtd:xthrow.obj
 0001:000377e0       ??_Elength_error@std@@UEAAPEAXI@Z 00000001800387e0 f i libcpmtd:xthrow.obj
 0001:000377e0       ??_Glength_error@std@@UEAAPEAXI@Z 00000001800387e0 f i libcpmtd:xthrow.obj
 0001:00037830       ??_Elogic_error@std@@UEAAPEAXI@Z 0000000180038830 f i libcpmtd:xthrow.obj
 0001:00037830       ??_Glogic_error@std@@UEAAPEAXI@Z 0000000180038830 f i libcpmtd:xthrow.obj
 0001:00037880       ??_Gout_of_range@std@@UEAAPEAXI@Z 0000000180038880 f i libcpmtd:xthrow.obj
 0001:00037880       ??_Eout_of_range@std@@UEAAPEAXI@Z 0000000180038880 f i libcpmtd:xthrow.obj
 0001:000378d0       ??_Goverflow_error@std@@UEAAPEAXI@Z 00000001800388d0 f i libcpmtd:xthrow.obj
 0001:000378d0       ??_Eoverflow_error@std@@UEAAPEAXI@Z 00000001800388d0 f i libcpmtd:xthrow.obj
 0001:00037920       ??_Gregex_error@std@@UEAAPEAXI@Z 0000000180038920 f i libcpmtd:xthrow.obj
 0001:00037920       ??_Eregex_error@std@@UEAAPEAXI@Z 0000000180038920 f i libcpmtd:xthrow.obj
 0001:00037970       ??_Eruntime_error@std@@UEAAPEAXI@Z 0000000180038970 f i libcpmtd:xthrow.obj
 0001:00037970       ??_Gruntime_error@std@@UEAAPEAXI@Z 0000000180038970 f i libcpmtd:xthrow.obj
 0001:000379c0       ?_Stringify@regex_error@std@@CAPEBDW4error_type@regex_constants@2@@Z 00000001800389c0 f i libcpmtd:xthrow.obj
 0001:00037b10       ?_Xbad_alloc@std@@YAXXZ    0000000180038b10 f   libcpmtd:xthrow.obj
 0001:00037b40       ?_Xbad_function_call@std@@YAXXZ 0000000180038b40 f   libcpmtd:xthrow.obj
 0001:00037b70       ?_Xinvalid_argument@std@@YAXPEBD@Z 0000000180038b70 f   libcpmtd:xthrow.obj
 0001:00037bb0       ?_Xlength_error@std@@YAXPEBD@Z 0000000180038bb0 f   libcpmtd:xthrow.obj
 0001:00037bf0       ?_Xout_of_range@std@@YAXPEBD@Z 0000000180038bf0 f   libcpmtd:xthrow.obj
 0001:00037c30       ?_Xoverflow_error@std@@YAXPEBD@Z 0000000180038c30 f   libcpmtd:xthrow.obj
 0001:00037c70       ?_Xregex_error@std@@YAXW4error_type@regex_constants@1@@Z 0000000180038c70 f   libcpmtd:xthrow.obj
 0001:00037cb0       ?_Xruntime_error@std@@YAXPEBD@Z 0000000180038cb0 f   libcpmtd:xthrow.obj
 0001:00037cf0       ?__empty_global_delete@@YAXPEAX@Z 0000000180038cf0 f i libcpmtd:xthrow.obj
 0001:00037d00       ?__empty_global_delete@@YAXPEAXW4align_val_t@std@@@Z 0000000180038d00 f i libcpmtd:xthrow.obj
 0001:00037d10       ?__empty_global_delete@@YAXPEAX_K@Z 0000000180038d10 f i libcpmtd:xthrow.obj
 0001:00037d20       ?__empty_global_delete@@YAXPEAX_KW4align_val_t@std@@@Z 0000000180038d20 f i libcpmtd:xthrow.obj
 0001:00037d40       ?what@bad_function_call@std@@UEBAPEBDXZ 0000000180038d40 f i libcpmtd:xthrow.obj
 0001:00037d50       _Mtxdst                    0000000180038d50 f   libcpmtd:xmtx.obj
 0001:00037d70       _Mtxinit                   0000000180038d70 f   libcpmtd:xmtx.obj
 0001:00037da0       _Mtxlock                   0000000180038da0 f   libcpmtd:xmtx.obj
 0001:00037dc0       _Mtxunlock                 0000000180038dc0 f   libcpmtd:xmtx.obj
 0001:00037de0       ??$?2PEAUHINSTANCE__@@@Wrapper@?$CSimpleArray@PEAUHINSTANCE__@@V?$CSimpleArrayEqualHelper@PEAUHINSTANCE__@@@ATL@@@ATL@@SAPEAX_KPEAPEAUHINSTANCE__@@@Z 0000000180038de0 f i atls:atlbase.obj
 0001:00037de4       ??0?$CSimpleArray@PEAUHINSTANCE__@@V?$CSimpleArrayEqualHelper@PEAUHINSTANCE__@@@ATL@@@ATL@@QEAA@XZ 0000000180038de4 f i atls:atlbase.obj
 0001:00037df4       ??0CAtlBaseModule@ATL@@QEAA@XZ 0000000180038df4 f   atls:atlbase.obj
 0001:00037ec4       ??0Wrapper@?$CSimpleArray@PEAUHINSTANCE__@@V?$CSimpleArrayEqualHelper@PEAUHINSTANCE__@@@ATL@@@ATL@@QEAA@AEBQEAUHINSTANCE__@@@Z 0000000180038ec4 f i atls:atlbase.obj
 0001:00037ed0       ??0_ATL_BASE_MODULE70@ATL@@QEAA@XZ 0000000180038ed0 f i atls:atlbase.obj
 0001:00037f08       ??1?$CSimpleArray@PEAUHINSTANCE__@@V?$CSimpleArrayEqualHelper@PEAUHINSTANCE__@@@ATL@@@ATL@@QEAA@XZ 0000000180038f08 f i atls:atlbase.obj
 0001:00037f3c       ??1CAtlBaseModule@ATL@@QEAA@XZ 0000000180038f3c f   atls:atlbase.obj
 0001:00037f80       ??1_ATL_BASE_MODULE70@ATL@@QEAA@XZ 0000000180038f80 f i atls:atlbase.obj
 0001:00037fb4       ??A?$CSimpleArray@PEAUHINSTANCE__@@V?$CSimpleArrayEqualHelper@PEAUHINSTANCE__@@@ATL@@@ATL@@QEAAAEAPEAUHINSTANCE__@@H@Z 0000000180038fb4 f i atls:atlbase.obj
 0001:00037fec       ?Add@?$CSimpleArray@PEAUHINSTANCE__@@V?$CSimpleArrayEqualHelper@PEAUHINSTANCE__@@@ATL@@@ATL@@QEAAHAEBQEAUHINSTANCE__@@@Z 0000000180038fec f i atls:atlbase.obj
 0001:000380b4       ?AddResourceInstance@CAtlBaseModule@ATL@@QEAA_NPEAUHINSTANCE__@@@Z 00000001800390b4 f   atls:atlbase.obj
 0001:00038110       ?GetHInstanceAt@CAtlBaseModule@ATL@@QEAAPEAUHINSTANCE__@@H@Z 0000000180039110 f   atls:atlbase.obj
 0001:000381a4       ?GetSize@?$CSimpleArray@PEAUHINSTANCE__@@V?$CSimpleArrayEqualHelper@PEAUHINSTANCE__@@@ATL@@@ATL@@QEBAHXZ 00000001800391a4 f i atls:atlbase.obj
 0001:000381a8       ?InternalSetAtIndex@?$CSimpleArray@PEAUHINSTANCE__@@V?$CSimpleArrayEqualHelper@PEAUHINSTANCE__@@@ATL@@@ATL@@QEAAXHAEBQEAUHINSTANCE__@@@Z 00000001800391a8 f i atls:atlbase.obj
 0001:000381c4       ?RemoveAll@?$CSimpleArray@PEAUHINSTANCE__@@V?$CSimpleArrayEqualHelper@PEAUHINSTANCE__@@@ATL@@@ATL@@QEAAXXZ 00000001800391c4 f i atls:atlbase.obj
 0001:000381f8       ?RemoveAt@?$CSimpleArray@PEAUHINSTANCE__@@V?$CSimpleArrayEqualHelper@PEAUHINSTANCE__@@@ATL@@@ATL@@QEAAHH@Z 00000001800391f8 f i atls:atlbase.obj
 0001:000382b4       ?RemoveResourceInstance@CAtlBaseModule@ATL@@QEAA_NPEAUHINSTANCE__@@@Z 00000001800392b4 f   atls:atlbase.obj
 0001:0003835c       ?memmove_s@Checked@ATL@@YAXPEAX_KPEBX1@Z 000000018003935c f i atls:atlbase.obj
 0001:0003842c       ??_I@YAXPEAX_K1P6AX0@Z@Z   000000018003942c f i atls:stdafx.obj
 0001:000384b0       memcpy_repmovs             00000001800394b0 f   libvcruntimed:memcpy.obj
 0001:000384d0       memmove                    00000001800394d0 f   libvcruntimed:memcpy.obj
 0001:000384d0       memcpy                     00000001800394d0 f   libvcruntimed:memcpy.obj
 0001:00038d00       memset_repmovs             0000000180039d00 f   libvcruntimed:memset.obj
 0001:00038d20       memset                     0000000180039d20 f   libvcruntimed:memset.obj
 0001:00038f20       ??$?0AEAViterator@TryBlockMap4@FH4@@AEAV012@$0A@@?$pair@Viterator@TryBlockMap4@FH4@@V123@@std@@QEAA@AEAViterator@TryBlockMap4@FH4@@0@Z 0000000180039f20 f i libvcruntimed:risctrnsctrl.obj
 0001:00038f90       ??$?0AEAViterator@TryBlockMap@__FrameHandler3@@AEAV012@$0A@@?$pair@Viterator@TryBlockMap@__FrameHandler3@@V123@@std@@QEAA@AEAViterator@TryBlockMap@__FrameHandler3@@0@Z 0000000180039f90 f i libvcruntimed:risctrnsctrl.obj
 0001:000391d0       ??$_CallSETranslator@V__FrameHandler3@@@@YAHPEAUEHExceptionRecord@@PEA_KPEAU_CONTEXT@@PEAU_xDISPATCHER_CONTEXT@@PEBU_s_FuncInfo@@K1H@Z 000000018003a1d0 f i libvcruntimed:risctrnsctrl.obj
 0001:00039290       ??$_CallSETranslator@V__FrameHandler4@@@@YAHPEAUEHExceptionRecord@@PEA_KPEAU_CONTEXT@@PEAU_xDISPATCHER_CONTEXT@@PEAUFuncInfo4@FH4@@K1H@Z 000000018003a290 f i libvcruntimed:risctrnsctrl.obj
 0001:00039350       ??$forward@AEAViterator@TryBlockMap4@FH4@@@std@@YAAEAViterator@TryBlockMap4@FH4@@AEAV123@@Z 000000018003a350 f i libvcruntimed:risctrnsctrl.obj
 0001:00039360       ??$forward@AEAViterator@TryBlockMap@__FrameHandler3@@@std@@YAAEAViterator@TryBlockMap@__FrameHandler3@@AEAV123@@Z 000000018003a360 f i libvcruntimed:risctrnsctrl.obj
 0001:00039370       ??0FuncInfo4@FH4@@QEAA@XZ  000000018003a370 f i libvcruntimed:risctrnsctrl.obj
 0001:000393f0       ??0FuncInfoHeader@FH4@@QEAA@XZ 000000018003a3f0 f i libvcruntimed:risctrnsctrl.obj
 0001:00039410       ??0iterator@TryBlockMap4@FH4@@QEAA@AEAV12@I@Z 000000018003a410 f i libvcruntimed:risctrnsctrl.obj
 0001:00039450       ??0iterator@TryBlockMap@__FrameHandler3@@QEAA@AEAV12@I@Z 000000018003a450 f i libvcruntimed:risctrnsctrl.obj
 0001:00039490       ??4iterator@TryBlockMap4@FH4@@QEAAAEAV012@AEBV012@@Z 000000018003a490 f i libvcruntimed:risctrnsctrl.obj
 0001:000394c0       ??9iterator@TryBlockMap4@FH4@@QEBA_NAEBV012@@Z 000000018003a4c0 f i libvcruntimed:risctrnsctrl.obj
 0001:00039510       ??Diterator@TryBlockMap4@FH4@@QEAA?AUTryBlockMapEntry4@2@XZ 000000018003a510 f i libvcruntimed:risctrnsctrl.obj
 0001:00039550       ??Eiterator@TryBlockMap4@FH4@@QEAAAEAV012@XZ 000000018003a550 f i libvcruntimed:risctrnsctrl.obj
 0001:00039590       ?CatchTryBlock@__FrameHandler3@@SAPEBU_s_TryBlockMapEntry@@PEBU_s_FuncInfo@@H@Z 000000018003a590 f   libvcruntimed:risctrnsctrl.obj
 0001:00039640       ?DecompFuncInfo@FH4@@YA_JPEAEAEAUFuncInfo4@1@_KH@Z 000000018003a640 f i libvcruntimed:risctrnsctrl.obj
 0001:00039690       ?DecompFuncInfo@FH4@@YA_JPEAEAEAUFuncInfo4@1@_KH_N@Z 000000018003a690 f i libvcruntimed:risctrnsctrl.obj
 0001:000398e0       ?DecompTryBlock@TryBlockMap4@FH4@@AEAAXXZ 000000018003a8e0 f i libvcruntimed:risctrnsctrl.obj
 0001:00039970       ?ExecutionInCatch@__FrameHandler3@@SA_NPEAU_xDISPATCHER_CONTEXT@@PEBU_s_FuncInfo@@@Z 000000018003a970 f   libvcruntimed:risctrnsctrl.obj
 0001:000399e0       ?ExecutionInCatch@__FrameHandler4@@SA_NPEAU_xDISPATCHER_CONTEXT@@PEAUFuncInfo4@FH4@@@Z 000000018003a9e0 f   libvcruntimed:risctrnsctrl.obj
 0001:00039a00       ?FrameUnwindToEmptyState@__FrameHandler3@@SAXPEA_KPEAU_xDISPATCHER_CONTEXT@@PEBU_s_FuncInfo@@@Z 000000018003aa00 f   libvcruntimed:risctrnsctrl.obj
 0001:00039ac0       ?FrameUnwindToEmptyState@__FrameHandler4@@SAXPEA_KPEAU_xDISPATCHER_CONTEXT@@PEAUFuncInfo4@FH4@@@Z 000000018003aac0 f   libvcruntimed:risctrnsctrl.obj
 0001:00039b30       ?GetEstablisherFrame@__FrameHandler3@@SAPEA_KPEA_KPEAU_xDISPATCHER_CONTEXT@@PEBU_s_FuncInfo@@0@Z 000000018003ab30 f   libvcruntimed:risctrnsctrl.obj
 0001:00039d00       ?GetEstablisherFrame@__FrameHandler4@@SAPEA_KPEA_KPEAU_xDISPATCHER_CONTEXT@@PEAUFuncInfo4@FH4@@0@Z 000000018003ad00 f   libvcruntimed:risctrnsctrl.obj
 0001:00039d80       ?GetRangeOfTrysToCheck@__FrameHandler3@@SA?AU?$pair@Viterator@TryBlockMap@__FrameHandler3@@V123@@std@@AEAVTryBlockMap@1@HPEAU_xDISPATCHER_CONTEXT@@PEBU_s_FuncInfo@@H@Z 000000018003ad80 f   libvcruntimed:risctrnsctrl.obj
 0001:0003a050       ?GetRangeOfTrysToCheck@__FrameHandler4@@SA?AU?$pair@Viterator@TryBlockMap4@FH4@@V123@@std@@AEAVTryBlockMap4@FH4@@HPEAU_xDISPATCHER_CONTEXT@@PEAUFuncInfo4@5@H@Z 000000018003b050 f   libvcruntimed:risctrnsctrl.obj
 0001:0003a270       ?ReadInt@FH4@@YAHPEAPEAE@Z 000000018003b270 f i libvcruntimed:risctrnsctrl.obj
 0001:0003a2b0       ?ReadUnsigned@FH4@@YAIPEAPEAE@Z 000000018003b2b0 f i libvcruntimed:risctrnsctrl.obj
 0001:0003a360       ?UnwindNestedFrames@__FrameHandler3@@SAXPEA_KPEAUEHExceptionRecord@@PEAU_CONTEXT@@0PEAXPEBU_s_FuncInfo@@HHPEBU_s_HandlerType@@PEAU_xDISPATCHER_CONTEXT@@E@Z 000000018003b360 f   libvcruntimed:risctrnsctrl.obj
 0001:0003a530       ?UnwindNestedFrames@__FrameHandler4@@SAXPEA_KPEAUEHExceptionRecord@@PEAU_CONTEXT@@0PEAXPEAUFuncInfo4@FH4@@HHPEAUHandlerType4@5@PEAU_xDISPATCHER_CONTEXT@@E@Z 000000018003b530 f   libvcruntimed:risctrnsctrl.obj
 0001:0003a770       ?begin@TryBlockMap4@FH4@@QEAA?AViterator@12@XZ 000000018003b770 f i libvcruntimed:risctrnsctrl.obj
 0001:0003a7b0       ?end@TryBlockMap4@FH4@@QEAA?AViterator@12@XZ 000000018003b7b0 f i libvcruntimed:risctrnsctrl.obj
 0001:0003a7f0       ?imageRelToByteBuffer@FH4@@YAPEAE_KH@Z 000000018003b7f0 f i libvcruntimed:risctrnsctrl.obj
 0001:0003a810       ?incrementToSentinel@iterator@TryBlockMap4@FH4@@QEAAXXZ 000000018003b810 f i libvcruntimed:risctrnsctrl.obj
 0001:0003a830       ?setBuffer@TryBlockMap4@FH4@@QEAAXViterator@12@@Z 000000018003b830 f i libvcruntimed:risctrnsctrl.obj
 0001:0003a8c0       _CreateFrameInfo           000000018003b8c0 f   libvcruntimed:risctrnsctrl.obj
 0001:0003a950       _FindAndUnlinkFrame        000000018003b950 f   libvcruntimed:risctrnsctrl.obj
 0001:0003a9f0       _GetImageBase              000000018003b9f0 f   libvcruntimed:risctrnsctrl.obj
 0001:0003aa10       _GetThrowImageBase         000000018003ba10 f   libvcruntimed:risctrnsctrl.obj
 0001:0003aa30       _SetImageBase              000000018003ba30 f   libvcruntimed:risctrnsctrl.obj
 0001:0003aa60       _SetThrowImageBase         000000018003ba60 f   libvcruntimed:risctrnsctrl.obj
 0001:0003aa90       __CxxFrameHandler          000000018003ba90 f   libvcruntimed:risctrnsctrl.obj
 0001:0003aae0       __CxxFrameHandler2         000000018003bae0 f   libvcruntimed:risctrnsctrl.obj
 0001:0003ab30       __CxxFrameHandler3         000000018003bb30 f   libvcruntimed:risctrnsctrl.obj
 0001:0003ac40       __CxxFrameHandler4         000000018003bc40 f   libvcruntimed:risctrnsctrl.obj
 0001:0003ad90       ??$?RD@__crt_public_free_policy@@QEBAXQEBD@Z 000000018003bd90 f i libvcruntimed:std_exception.obj
 0001:0003adc0       ??0?$__crt_unique_heap_ptr@DU__crt_public_free_policy@@@@QEAA@QEAD@Z 000000018003bdc0 f i libvcruntimed:std_exception.obj
 0001:0003adf0       ??1?$__crt_unique_heap_ptr@DU__crt_public_free_policy@@@@QEAA@XZ 000000018003bdf0 f i libvcruntimed:std_exception.obj
 0001:0003ae10       ??B?$__crt_unique_heap_ptr@DU__crt_public_free_policy@@@@QEBA_NXZ 000000018003be10 f i libvcruntimed:std_exception.obj
 0001:0003ae30       ?detach@?$__crt_unique_heap_ptr@DU__crt_public_free_policy@@@@QEAAPEADXZ 000000018003be30 f i libvcruntimed:std_exception.obj
 0001:0003ae70       ?get@?$__crt_unique_heap_ptr@DU__crt_public_free_policy@@@@QEBAPEADXZ 000000018003be70 f i libvcruntimed:std_exception.obj
 0001:0003ae90       ?is_valid@?$__crt_unique_heap_ptr@DU__crt_public_free_policy@@@@QEBA_NXZ 000000018003be90 f i libvcruntimed:std_exception.obj
 0001:0003aed0       ?release@?$__crt_unique_heap_ptr@DU__crt_public_free_policy@@@@QEAAXXZ 000000018003bed0 f i libvcruntimed:std_exception.obj
 0001:0003af10       __std_exception_copy       000000018003bf10 f   libvcruntimed:std_exception.obj
 0001:0003b0a0       __std_exception_destroy    000000018003c0a0 f   libvcruntimed:std_exception.obj
 0001:0003b0f0       _CxxThrowException         000000018003c0f0 f   libvcruntimed:throw.obj
 0001:0003b270       ??$__crt_interlocked_exchange_pointer@$$A6AXXZP6AXXZ@@YAP6AXXZPEDS6AXXZQ6AXXZ@Z 000000018003c270 f i libvcruntimed:purevirt.obj
 0001:0003b290       ??$__crt_interlocked_read_pointer@$$A6AXXZ@@YAP6AXXZPEDS6AXXZ@Z 000000018003c290 f i libvcruntimed:purevirt.obj
 0001:0003b2b0       ?__crt_interlocked_read_64@@YA_JPED_J@Z 000000018003c2b0 f i libvcruntimed:purevirt.obj
 0001:0003b2e0       _get_purecall_handler      000000018003c2e0 f   libvcruntimed:purevirt.obj
 0001:0003b300       _purecall                  000000018003c300 f   libvcruntimed:purevirt.obj
 0001:0003b350       _set_purecall_handler      000000018003c350 f   libvcruntimed:purevirt.obj
 0001:0003b390       memcmp                     000000018003c390 f   libvcruntimed:memcmp.obj
 0001:0003b490       wcsstr                     000000018003c490 f   libvcruntimed:wcsstr.obj
 0001:0003bc90       __C_specific_handler       000000018003cc90 f   libvcruntimed:riscchandler.obj
 0001:0003c220       __DestructExceptionObject  000000018003d220 f   libvcruntimed:ehhelpers.obj
 0001:0003c360       ?_CallMemberFunction0@@YAXQEAX0@Z 000000018003d360 f i libvcruntimed:ehhelpers.obj
 0001:0003c470       ?raw_name@type_info@@QEBAPEBDXZ 000000018003d470 f i libvcruntimed:ehhelpers.obj
 0001:0003c490       _IsExceptionObjectToBeDestroyed 000000018003d490 f   libvcruntimed:ehhelpers.obj
 0001:0003c500       _SetWinRTOutOfMemoryExceptionCallback 000000018003d500 f   libvcruntimed:ehhelpers.obj
 0001:0003c520       __AdjustPointer            000000018003d520 f   libvcruntimed:ehhelpers.obj
 0001:0003c5c0       __FrameUnwindFilter        000000018003d5c0 f   libvcruntimed:ehhelpers.obj
 0001:0003c690       __GetPlatformExceptionInfo 000000018003d690 f   libvcruntimed:ehhelpers.obj
 0001:0003c770       __current_exception        000000018003d770 f   libvcruntimed:ehhelpers.obj
 0001:0003c790       __current_exception_context 000000018003d790 f   libvcruntimed:ehhelpers.obj
 0001:0003c7b0       __processing_throw         000000018003d7b0 f   libvcruntimed:ehhelpers.obj
 0001:0003c7d0       __std_terminate            000000018003d7d0 f   libvcruntimed:ehhelpers.obj
 0001:0003c7f0       _is_exception_typeof       000000018003d7f0 f   libvcruntimed:ehhelpers.obj
 0001:0003c990       __vcrt_initialize          000000018003d990 f   libvcruntimed:initialization.obj
 0001:0003c9e0       __vcrt_thread_attach       000000018003d9e0 f   libvcruntimed:initialization.obj
 0001:0003ca00       __vcrt_thread_detach       000000018003da00 f   libvcruntimed:initialization.obj
 0001:0003ca20       __vcrt_uninitialize        000000018003da20 f   libvcruntimed:initialization.obj
 0001:0003ca40       __vcrt_uninitialize_critical 000000018003da40 f   libvcruntimed:initialization.obj
 0001:0003ca70       __C_specific_handler_noexcept 000000018003da70 f   libvcruntimed:chandler_noexcept.obj
 0001:0003cb60       ??$?RD@__crt_internal_free_policy@@QEBAXQEBD@Z 000000018003db60 f i libvcruntimed:std_type_info.obj
 0001:0003cb90       ??$?RX@__crt_internal_free_policy@@QEBAXQEBX@Z 000000018003db90 f i libvcruntimed:std_type_info.obj
 0001:0003cbc0       ??$__crt_interlocked_compare_exchange_pointer@$$CBDPEAD$$T@@YAPEBDPEDSEBDQEAD$$T@Z 000000018003dbc0 f i libvcruntimed:std_type_info.obj
 0001:0003cc10       ??$__crt_interlocked_read_pointer@$$CBD@@YAPEBDPEDSEBD@Z 000000018003dc10 f i libvcruntimed:std_type_info.obj
 0001:0003cc30       ??0?$__crt_unique_heap_ptr@DU__crt_internal_free_policy@@@@QEAA@QEAD@Z 000000018003dc30 f i libvcruntimed:std_type_info.obj
 0001:0003cc60       ??0?$__crt_unique_heap_ptr@XU__crt_internal_free_policy@@@@QEAA@QEAX@Z 000000018003dc60 f i libvcruntimed:std_type_info.obj
 0001:0003cc90       ??1?$__crt_unique_heap_ptr@DU__crt_internal_free_policy@@@@QEAA@XZ 000000018003dc90 f i libvcruntimed:std_type_info.obj
 0001:0003ccb0       ??1?$__crt_unique_heap_ptr@XU__crt_internal_free_policy@@@@QEAA@XZ 000000018003dcb0 f i libvcruntimed:std_type_info.obj
 0001:0003ccd0       ??B?$__crt_unique_heap_ptr@DU__crt_internal_free_policy@@@@QEBA_NXZ 000000018003dcd0 f i libvcruntimed:std_type_info.obj
 0001:0003ccf0       ??B?$__crt_unique_heap_ptr@XU__crt_internal_free_policy@@@@QEBA_NXZ 000000018003dcf0 f i libvcruntimed:std_type_info.obj
 0001:0003cda0       ?detach@?$__crt_unique_heap_ptr@XU__crt_internal_free_policy@@@@QEAAPEAXXZ 000000018003dda0 f i libvcruntimed:std_type_info.obj
 0001:0003cde0       ?get@?$__crt_unique_heap_ptr@DU__crt_internal_free_policy@@@@QEBAPEADXZ 000000018003dde0 f i libvcruntimed:std_type_info.obj
 0001:0003ce00       ?get@?$__crt_unique_heap_ptr@XU__crt_internal_free_policy@@@@QEBAPEAXXZ 000000018003de00 f i libvcruntimed:std_type_info.obj
 0001:0003ce20       ?is_valid@?$__crt_unique_heap_ptr@DU__crt_internal_free_policy@@@@QEBA_NXZ 000000018003de20 f i libvcruntimed:std_type_info.obj
 0001:0003ce60       ?is_valid@?$__crt_unique_heap_ptr@XU__crt_internal_free_policy@@@@QEBA_NXZ 000000018003de60 f i libvcruntimed:std_type_info.obj
 0001:0003cea0       ?release@?$__crt_unique_heap_ptr@DU__crt_internal_free_policy@@@@QEAAXXZ 000000018003dea0 f i libvcruntimed:std_type_info.obj
 0001:0003cee0       ?release@?$__crt_unique_heap_ptr@XU__crt_internal_free_policy@@@@QEAAXXZ 000000018003dee0 f i libvcruntimed:std_type_info.obj
 0001:0003cf20       __std_type_info_compare    000000018003df20 f   libvcruntimed:std_type_info.obj
 0001:0003cf70       __std_type_info_destroy_list 000000018003df70 f   libvcruntimed:std_type_info.obj
 0001:0003cfe0       __std_type_info_hash       000000018003dfe0 f   libvcruntimed:std_type_info.obj
 0001:0003d0c0       __std_type_info_name       000000018003e0c0 f   libvcruntimed:std_type_info.obj
 0001:0003d420       __vcrt_GetModuleFileNameW  000000018003e420 f   libvcruntimed:winapi_thunks.obj
 0001:0003d460       __vcrt_GetModuleHandleW    000000018003e460 f   libvcruntimed:winapi_thunks.obj
 0001:0003d480       __vcrt_LoadLibraryExW      000000018003e480 f   libvcruntimed:winapi_thunks.obj
 0001:0003d4c0       ??$?RU__vcrt_ptd@@@__crt_internal_free_policy@@QEBAXQEBU__vcrt_ptd@@@Z 000000018003e4c0 f i libvcruntimed:per_thread_data.obj
 0001:0003d4f0       ??0?$__crt_unique_heap_ptr@U__vcrt_ptd@@U__crt_internal_free_policy@@@@QEAA@QEAU__vcrt_ptd@@@Z 000000018003e4f0 f i libvcruntimed:per_thread_data.obj
 0001:0003d550       ??1?$__crt_unique_heap_ptr@U__vcrt_ptd@@U__crt_internal_free_policy@@@@QEAA@XZ 000000018003e550 f i libvcruntimed:per_thread_data.obj
 0001:0003d5a0       ??B?$__crt_unique_heap_ptr@U__vcrt_ptd@@U__crt_internal_free_policy@@@@QEBA_NXZ 000000018003e5a0 f i libvcruntimed:per_thread_data.obj
 0001:0003d5c0       ?detach@?$__crt_unique_heap_ptr@U__vcrt_ptd@@U__crt_internal_free_policy@@@@QEAAPEAU__vcrt_ptd@@XZ 000000018003e5c0 f i libvcruntimed:per_thread_data.obj
 0001:0003d600       ?get@?$__crt_unique_heap_ptr@U__vcrt_ptd@@U__crt_internal_free_policy@@@@QEBAPEAU__vcrt_ptd@@XZ 000000018003e600 f i libvcruntimed:per_thread_data.obj
 0001:0003d620       ?is_valid@?$__crt_unique_heap_ptr@U__vcrt_ptd@@U__crt_internal_free_policy@@@@QEBA_NXZ 000000018003e620 f i libvcruntimed:per_thread_data.obj
 0001:0003d660       ?release@?$__crt_unique_heap_ptr@U__vcrt_ptd@@U__crt_internal_free_policy@@@@QEAAXXZ 000000018003e660 f i libvcruntimed:per_thread_data.obj
 0001:0003d6f0       __vcrt_freefls             000000018003e6f0 f   libvcruntimed:per_thread_data.obj
 0001:0003d740       __vcrt_freeptd             000000018003e740 f   libvcruntimed:per_thread_data.obj
 0001:0003d7c0       __vcrt_getptd              000000018003e7c0 f   libvcruntimed:per_thread_data.obj
 0001:0003d7f0       __vcrt_getptd_noexit       000000018003e7f0 f   libvcruntimed:per_thread_data.obj
 0001:0003da00       __vcrt_getptd_noinit       000000018003ea00 f   libvcruntimed:per_thread_data.obj
 0001:0003da80       __vcrt_initialize_ptd      000000018003ea80 f   libvcruntimed:per_thread_data.obj
 0001:0003dae0       __vcrt_uninitialize_ptd    000000018003eae0 f   libvcruntimed:per_thread_data.obj
 0001:0003db20       ?GetCurrentState@__FrameHandler3@@SAHPEA_KPEAU_xDISPATCHER_CONTEXT@@PEBU_s_FuncInfo@@@Z 000000018003eb20 f   libvcruntimed:ehstate.obj
 0001:0003db90       ?GetUnwindTryBlock@__FrameHandler3@@SAHPEA_KPEAU_xDISPATCHER_CONTEXT@@PEBU_s_FuncInfo@@@Z 000000018003eb90 f   libvcruntimed:ehstate.obj
 0001:0003dbf0       ?SetState@__FrameHandler3@@SAXPEA_KPEBU_s_FuncInfo@@H@Z 000000018003ebf0 f   libvcruntimed:ehstate.obj
 0001:0003dc30       ?SetUnwindTryBlock@__FrameHandler3@@SAXPEA_KPEAU_xDISPATCHER_CONTEXT@@PEBU_s_FuncInfo@@H@Z 000000018003ec30 f   libvcruntimed:ehstate.obj
 0001:0003dcc0       ?StateFromControlPc@__FrameHandler3@@SAHPEBU_s_FuncInfo@@PEAU_xDISPATCHER_CONTEXT@@@Z 000000018003ecc0 f   libvcruntimed:ehstate.obj
 0001:0003dd10       ?StateFromControlPc@__FrameHandler4@@SAHPEAUFuncInfo4@FH4@@PEAU_xDISPATCHER_CONTEXT@@@Z 000000018003ed10 f   libvcruntimed:ehstate.obj
 0001:0003dd60       ?StateFromIp@__FrameHandler3@@SAHPEBU_s_FuncInfo@@PEAU_xDISPATCHER_CONTEXT@@_K@Z 000000018003ed60 f   libvcruntimed:ehstate.obj
 0001:0003de90       ?StateFromIp@__FrameHandler4@@SAHPEAUFuncInfo4@FH4@@PEAU_xDISPATCHER_CONTEXT@@_K@Z 000000018003ee90 f   libvcruntimed:ehstate.obj
 0001:0003dfb0       ?__FuncRelToRealOffset@@YA_KPEAU_xDISPATCHER_CONTEXT@@I@Z 000000018003efb0 f i libvcruntimed:ehstate.obj
 0001:0003dff0       ?__RVAtoRealOffset@@YA_KPEAU_xDISPATCHER_CONTEXT@@H@Z 000000018003eff0 f i libvcruntimed:ehstate.obj
 0001:00040af0       ??$TypeMatchHelper@V__FrameHandler3@@@@YAHPEBU_s_HandlerType@@PEBU_s_CatchableType@@PEBU_s_ThrowInfo@@@Z 0000000180041af0 f i libvcruntimed:frame.obj
 0001:00040d70       ??$TypeMatchHelper@V__FrameHandler4@@@@YAHPEAUHandlerType4@FH4@@PEBU_s_CatchableType@@PEBU_s_ThrowInfo@@@Z 0000000180041d70 f i libvcruntimed:frame.obj
 0001:00041000       ??$__InternalCxxFrameHandler@V__FrameHandler3@@@@YA?AW4_EXCEPTION_DISPOSITION@@PEAUEHExceptionRecord@@PEA_KPEAU_CONTEXT@@PEAU_xDISPATCHER_CONTEXT@@PEBU_s_FuncInfo@@H1E@Z 0000000180042000 f i libvcruntimed:frame.obj
 0001:00041590       ??$__InternalCxxFrameHandler@V__FrameHandler4@@@@YA?AW4_EXCEPTION_DISPOSITION@@PEAUEHExceptionRecord@@PEA_KPEAU_CONTEXT@@PEAU_xDISPATCHER_CONTEXT@@PEAUFuncInfo4@FH4@@H1E@Z 0000000180042590 f i libvcruntimed:frame.obj
 0001:00041b50       ??0HandlerMap4@FH4@@QEAA@PEBUTryBlockMapEntry4@1@_KH@Z 0000000180042b50 f i libvcruntimed:frame.obj
 0001:00041c40       ??0HandlerMap@__FrameHandler3@@QEAA@PEBU_s_TryBlockMapEntry@@_KI@Z 0000000180042c40 f i libvcruntimed:frame.obj
 0001:00041ca0       ??0HandlerType4@FH4@@QEAA@XZ 0000000180042ca0 f i libvcruntimed:frame.obj
 0001:00041cd0       ??0TryBlockMap4@FH4@@QEAA@PEBUFuncInfo4@1@_K@Z 0000000180042cd0 f i libvcruntimed:frame.obj
 0001:00041d80       ??0TryBlockMap@__FrameHandler3@@QEAA@PEBU_s_FuncInfo@@_K@Z 0000000180042d80 f i libvcruntimed:frame.obj
 0001:00041dc0       ??0UWMap4@FH4@@QEAA@PEBUFuncInfo4@1@_K@Z 0000000180042dc0 f i libvcruntimed:frame.obj
 0001:00041e50       ??0bad_exception@std@@QEAA@AEBV01@@Z 0000000180042e50 f i libvcruntimed:frame.obj
 0001:00041ea0       ??0bad_exception@std@@QEAA@XZ 0000000180042ea0 f i libvcruntimed:frame.obj
 0001:00041ef0       ??0iterator@HandlerMap4@FH4@@QEAA@AEAV12@I@Z 0000000180042ef0 f i libvcruntimed:frame.obj
 0001:00041f30       ??0iterator@HandlerMap@__FrameHandler3@@QEAA@AEAV12@I@Z 0000000180042f30 f i libvcruntimed:frame.obj
 0001:00041f70       ??0iterator@UWMap4@FH4@@QEAA@AEAV12@PEAE@Z 0000000180042f70 f i libvcruntimed:frame.obj
 0001:00041fb0       ??1bad_exception@std@@UEAA@XZ 0000000180042fb0 f i libvcruntimed:frame.obj
 0001:00041fd0       ??4iterator@UWMap4@FH4@@QEAAAEAV012@AEBV012@@Z 0000000180042fd0 f i libvcruntimed:frame.obj
 0001:00042030       ??8iterator@HandlerMap4@FH4@@QEBA_NAEBV012@@Z 0000000180043030 f i libvcruntimed:frame.obj
 0001:00042080       ??8iterator@HandlerMap@__FrameHandler3@@QEBA_NAEBV012@@Z 0000000180043080 f i libvcruntimed:frame.obj
 0001:000420d0       ??8type_info@@QEBA_NAEBV0@@Z 00000001800430d0 f i libvcruntimed:frame.obj
 0001:00042130       ??9iterator@HandlerMap4@FH4@@QEBA_NAEBV012@@Z 0000000180043130 f i libvcruntimed:frame.obj
 0001:00042180       ??9iterator@HandlerMap@__FrameHandler3@@QEBA_NAEBV012@@Z 0000000180043180 f i libvcruntimed:frame.obj
 0001:000421d0       ??Diterator@HandlerMap4@FH4@@QEAA?AUHandlerType4@2@XZ 00000001800431d0 f i libvcruntimed:frame.obj
 0001:00042210       ??Diterator@HandlerMap@__FrameHandler3@@QEAA?BU_s_HandlerType@@XZ 0000000180043210 f i libvcruntimed:frame.obj
 0001:00042260       ??Diterator@TryBlockMap@__FrameHandler3@@QEAA?BU_s_TryBlockMapEntry@@XZ 0000000180043260 f i libvcruntimed:frame.obj
 0001:000422d0       ??Diterator@UWMap4@FH4@@QEAA?AUUnwindMapEntry4@2@XZ 00000001800432d0 f i libvcruntimed:frame.obj
 0001:00042360       ??Eiterator@HandlerMap4@FH4@@QEAAAEAV012@XZ 0000000180043360 f i libvcruntimed:frame.obj
 0001:000423a0       ??Eiterator@HandlerMap@__FrameHandler3@@QEAAAEAV012@XZ 00000001800433a0 f i libvcruntimed:frame.obj
 0001:000423d0       ??Eiterator@TryBlockMap@__FrameHandler3@@QEAAAEAV012@XZ 00000001800433d0 f i libvcruntimed:frame.obj
 0001:00042400       ??Eiterator@UWMap4@FH4@@QEAAAEAV012@XZ 0000000180043400 f i libvcruntimed:frame.obj
 0001:00042450       ??Giterator@UWMap4@FH4@@QEBA_JAEBV012@@Z 0000000180043450 f i libvcruntimed:frame.obj
 0001:00042480       ??Miterator@TryBlockMap4@FH4@@QEBA_NAEBV012@@Z 0000000180043480 f i libvcruntimed:frame.obj
 0001:000424d0       ??Miterator@TryBlockMap@__FrameHandler3@@QEBA_NAEBV012@@Z 00000001800434d0 f i libvcruntimed:frame.obj
 0001:00042520       ??Oiterator@UWMap4@FH4@@QEBA_NAEBV012@@Z 0000000180043520 f i libvcruntimed:frame.obj
 0001:00042570       ??Piterator@UWMap4@FH4@@QEBA_NAEBV012@@Z 0000000180043570 f i libvcruntimed:frame.obj
 0001:000425c0       ??_Ebad_exception@std@@UEAAPEAXI@Z 00000001800435c0 f i libvcruntimed:frame.obj
 0001:000425c0       ??_Gbad_exception@std@@UEAAPEAXI@Z 00000001800435c0 f i libvcruntimed:frame.obj
 0001:00042610       ?BuildCatchObject@__FrameHandler3@@SAXPEAUEHExceptionRecord@@PEAXPEBU_s_HandlerType@@PEBU_s_CatchableType@@@Z 0000000180043610 f   libvcruntimed:frame.obj
 0001:00042660       ?BuildCatchObject@__FrameHandler4@@SAXPEAUEHExceptionRecord@@PEAXPEAUHandlerType4@FH4@@PEBU_s_CatchableType@@@Z 0000000180043660 f   libvcruntimed:frame.obj
 0001:000426b0       ?BuildCatchObjectHelper@__FrameHandler3@@SAHPEAUEHExceptionRecord@@PEAXPEBU_s_HandlerType@@PEBU_s_CatchableType@@@Z 00000001800436b0 f   libvcruntimed:frame.obj
 0001:00042700       ?BuildCatchObjectHelper@__FrameHandler4@@SAHPEAUEHExceptionRecord@@PEAXPEAUHandlerType4@FH4@@PEBU_s_CatchableType@@@Z 0000000180043700 f   libvcruntimed:frame.obj
 0001:00042750       ?CxxCallCatchBlock@__FrameHandler3@@SAPEAXPEAU_EXCEPTION_RECORD@@@Z 0000000180043750 f   libvcruntimed:frame.obj
 0001:00042a40       ?CxxCallCatchBlock@__FrameHandler4@@SAPEAXPEAU_EXCEPTION_RECORD@@@Z 0000000180043a40 f   libvcruntimed:frame.obj
 0001:00042e30       ?DecompHandler@HandlerMap4@FH4@@AEAAXXZ 0000000180043e30 f i libvcruntimed:frame.obj
 0001:000432e0       ?FrameUnwindToState@__FrameHandler3@@SAXPEA_KPEAU_xDISPATCHER_CONTEXT@@PEBU_s_FuncInfo@@H@Z 00000001800442e0 f   libvcruntimed:frame.obj
 0001:000435c0       ?FrameUnwindToState@__FrameHandler4@@SAXPEA_KPEAU_xDISPATCHER_CONTEXT@@PEAUFuncInfo4@FH4@@H@Z 00000001800445c0 f   libvcruntimed:frame.obj
 0001:00043990       ?GetHandlerSearchState@__FrameHandler3@@SAHPEA_KPEAU_xDISPATCHER_CONTEXT@@PEBU_s_FuncInfo@@@Z 0000000180044990 f i libvcruntimed:frame.obj
 0001:00043a70       ?GetHandlerSearchState@__FrameHandler4@@SAHPEA_KPEAU_xDISPATCHER_CONTEXT@@PEAUFuncInfo4@FH4@@@Z 0000000180044a70 f i libvcruntimed:frame.obj
 0001:00043b10       ?GetMaxState@__FrameHandler3@@SAHPEAU_xDISPATCHER_CONTEXT@@PEBU_s_FuncInfo@@@Z 0000000180044b10 f i libvcruntimed:frame.obj
 0001:00043b30       ?GetMaxState@__FrameHandler4@@SAHPEAU_xDISPATCHER_CONTEXT@@PEAUFuncInfo4@FH4@@@Z 0000000180044b30 f i libvcruntimed:frame.obj
 0001:00043de0       ?ReadEntry@UWMap4@FH4@@AEAAXPEAPEAE@Z 0000000180044de0 f i libvcruntimed:frame.obj
 0001:00043eb0       ?TypeMatch@__FrameHandler3@@SAHPEBU_s_HandlerType@@PEBU_s_CatchableType@@PEBU_s_ThrowInfo@@@Z 0000000180044eb0 f   libvcruntimed:frame.obj
 0001:00043ef0       ?TypeMatch@__FrameHandler4@@SAHPEAUHandlerType4@FH4@@PEBU_s_CatchableType@@PEBU_s_ThrowInfo@@@Z 0000000180044ef0 f   libvcruntimed:frame.obj
 0001:00043f30       ?WalkBack@UWMap4@FH4@@AEAAXPEAPEAE@Z 0000000180044f30 f i libvcruntimed:frame.obj
 0001:00043f90       ?WalkBack@iterator@UWMap4@FH4@@QEAAXXZ 0000000180044f90 f i libvcruntimed:frame.obj
 0001:00043fd0       ?WalkForward@UWMap4@FH4@@AEAAXPEAPEAE@Z 0000000180044fd0 f i libvcruntimed:frame.obj
 0001:00044000       ?_CallMemberFunction1@@YAXQEAX00@Z 0000000180045000 f i libvcruntimed:frame.obj
 0001:00044050       ?_CallMemberFunction2@@YAXQEAX00H@Z 0000000180045050 f i libvcruntimed:frame.obj
 0001:00044100       ?begin@HandlerMap4@FH4@@QEAA?AViterator@12@XZ 0000000180045100 f i libvcruntimed:frame.obj
 0001:00044140       ?begin@HandlerMap@__FrameHandler3@@QEAA?AViterator@12@XZ 0000000180045140 f i libvcruntimed:frame.obj
 0001:00044180       ?begin@UWMap4@FH4@@QEAA?AViterator@12@XZ 0000000180045180 f i libvcruntimed:frame.obj
 0001:000441c0       ?end@HandlerMap4@FH4@@QEAA?AViterator@12@XZ 00000001800451c0 f i libvcruntimed:frame.obj
 0001:00044200       ?end@HandlerMap@__FrameHandler3@@QEAA?AViterator@12@XZ 0000000180045200 f i libvcruntimed:frame.obj
 0001:00044240       ?getESTypes@__FrameHandler3@@SAPEBU_s_ESTypeList@@PEBU_s_FuncInfo@@@Z 0000000180045240 f i libvcruntimed:frame.obj
 0001:00044290       ?getESTypes@__FrameHandler4@@SAPEBU_s_ESTypeList@@PEAUFuncInfo4@FH4@@@Z 0000000180045290 f i libvcruntimed:frame.obj
 0001:000442a0       ?getLastEntry@HandlerMap4@FH4@@QEAAPEAUHandlerType4@2@XZ 00000001800452a0 f i libvcruntimed:frame.obj
 0001:000442f0       ?getLastEntry@HandlerMap@__FrameHandler3@@QEAAPEBU_s_HandlerType@@XZ 00000001800452f0 f i libvcruntimed:frame.obj
 0001:00044320       ?getMagicNum@__FrameHandler3@@SAIPEBU_s_FuncInfo@@@Z 0000000180045320 f i libvcruntimed:frame.obj
 0001:00044340       ?getMagicNum@__FrameHandler4@@SAIPEAUFuncInfo4@FH4@@@Z 0000000180045340 f i libvcruntimed:frame.obj
 0001:00044350       ?getNumTryBlocks@TryBlockMap4@FH4@@QEAAIXZ 0000000180045350 f i libvcruntimed:frame.obj
 0001:00044360       ?getNumTryBlocks@TryBlockMap@__FrameHandler3@@QEAAIXZ 0000000180045360 f i libvcruntimed:frame.obj
 0001:00044380       ?getStartStop@UWMap4@FH4@@QEAAXHHAEAViterator@12@0@Z 0000000180045380 f i libvcruntimed:frame.obj
 0001:000444e0       ?getStateFromIterators@UWMap4@FH4@@SAHAEBViterator@12@H0H0@Z 00000001800454e0 f i libvcruntimed:frame.obj
 0001:00044670       ?isEHs@__FrameHandler3@@SA_NPEBU_s_FuncInfo@@@Z 0000000180045670 f i libvcruntimed:frame.obj
 0001:000446b0       ?isEHs@__FrameHandler4@@SA_NPEAUFuncInfo4@FH4@@@Z 00000001800456b0 f i libvcruntimed:frame.obj
 0001:000446d0       ?isNoExcept@__FrameHandler3@@SA_NPEBU_s_FuncInfo@@@Z 00000001800456d0 f i libvcruntimed:frame.obj
 0001:00044710       ?isNoExcept@__FrameHandler4@@SA_NPEAUFuncInfo4@FH4@@@Z 0000000180045710 f i libvcruntimed:frame.obj
 0001:00044730       ?reset@HandlerType4@FH4@@QEAAXXZ 0000000180045730 f i libvcruntimed:frame.obj
 0001:000447b0       ?resetBuffer@HandlerMap4@FH4@@QEAAXXZ 00000001800457b0 f i libvcruntimed:frame.obj
 0001:000447d0       ?setBuffer@HandlerMap4@FH4@@QEAAXI@Z 00000001800457d0 f i libvcruntimed:frame.obj
 0001:00044840       __BuildCatchObject         0000000180045840 f   libvcruntimed:frame.obj
 0001:00044890       __BuildCatchObjectHelper   0000000180045890 f   libvcruntimed:frame.obj
 0001:000448e0       __TypeMatch                00000001800458e0 f   libvcruntimed:frame.obj
 0001:00044920       __vcrt_EncodePointer       0000000180045920 f i libvcruntimed:frame.obj
 0001:00044950       _NLG_Notify                0000000180045950 f   libvcruntimed:notify.obj
 0001:00044970       __NLG_Dispatch2            0000000180045970 f   libvcruntimed:notify.obj
 0001:00044980       __NLG_Return2              0000000180045980 f   libvcruntimed:notify.obj
 0001:000449c0       __except_validate_context_record 00000001800459c0 f   libvcruntimed:jbcxrval.obj
 0001:00044a30       __except_validate_jump_buffer 0000000180045a30 f   libvcruntimed:jbcxrval.obj
 0001:00044a60       __except_validate_jump_buffer_common 0000000180045a60 f i libvcruntimed:jbcxrval.obj
 0001:00044b00       __vcrt_initialize_locks    0000000180045b00 f   libvcruntimed:locks.obj
 0001:00044b90       __vcrt_lock                0000000180045b90 f   libvcruntimed:locks.obj
 0001:00044bd0       __vcrt_uninitialize_locks  0000000180045bd0 f   libvcruntimed:locks.obj
 0001:00044c40       __vcrt_unlock              0000000180045c40 f   libvcruntimed:locks.obj
 0001:00044c80       ??$?0$00@DName@@QEAA@PEBDU?$StringLifeSelector@$00@@@Z 0000000180045c80 f i libvcruntimed:undname.obj
 0001:00044d00       ??$?0$00@pcharNode@@QEAA@PEBDHU?$StringLifeSelector@$00@@@Z 0000000180045d00 f i libvcruntimed:undname.obj
 0001:00044d70       ??$?0$01@DName@@QEAA@PEBDU?$StringLifeSelector@$01@@@Z 0000000180045d70 f i libvcruntimed:undname.obj
 0001:00044df0       ??$?0$01@pcharNode@@QEAA@PEBDHU?$StringLifeSelector@$01@@@Z 0000000180045df0 f i libvcruntimed:undname.obj
 0001:00044ec0       ??$?0$0A@@DName@@QEAA@PEBDU?$StringLifeSelector@$0A@@@@Z 0000000180045ec0 f i libvcruntimed:undname.obj
 0001:00044f40       ??$?0$0A@@pcharNode@@QEAA@PEBDHU?$StringLifeSelector@$0A@@@@Z 0000000180045f40 f i libvcruntimed:undname.obj
 0001:00045010       ??$?0_K$0A@@?$optional@_K@std@@QEAA@$$QEA_K@Z 0000000180046010 f i libvcruntimed:undname.obj
 0001:00045070       ??$?0_K@?$_Optional_construct_base@_K@std@@QEAA@Uin_place_t@1@$$QEA_K@Z 0000000180046070 f i libvcruntimed:undname.obj
 0001:000450b0       ??$?0_K@?$_Optional_destruct_base@_K$00@std@@QEAA@Uin_place_t@1@$$QEA_K@Z 00000001800460b0 f i libvcruntimed:undname.obj
 0001:00045100       ??$append@VDNameNode@@@DName@@AEAAXPEBVDNameNode@@@Z 0000000180046100 f i libvcruntimed:undname.obj
 0001:000451e0       ??$append@VDNameStatusNode@@@DName@@AEAAXPEBVDNameStatusNode@@@Z 00000001800461e0 f i libvcruntimed:undname.obj
 0001:000452c0       ??$append@VcharNode@@@DName@@AEAAXPEBVcharNode@@@Z 00000001800462c0 f i libvcruntimed:undname.obj
 0001:000453a0       ??$append@VpDNameNode@@@DName@@AEAAXPEBVpDNameNode@@@Z 00000001800463a0 f i libvcruntimed:undname.obj
 0001:00045480       ??$append@VpcharNode@@@DName@@AEAAXPEBVpcharNode@@@Z 0000000180046480 f i libvcruntimed:undname.obj
 0001:00045560       ??$doPchar@$00@DName@@AEAAXPEBDH@Z 0000000180046560 f i libvcruntimed:undname.obj
 0001:00045720       ??$doPchar@$01@DName@@AEAAXPEBDH@Z 0000000180046720 f i libvcruntimed:undname.obj
 0001:000458e0       ??$doPchar@$0A@@DName@@AEAAXPEBDH@Z 00000001800468e0 f i libvcruntimed:undname.obj
 0001:00045aa0       ??$forward@_K@std@@YA$$QEA_KAEA_K@Z 0000000180046aa0 f i libvcruntimed:undname.obj
 0001:00045ab0       ??$size@D$04@std@@YA_KAEAY04$$CBD@Z 0000000180046ab0 f i libvcruntimed:undname.obj
 0001:00045ac0       ??$size@D$0EB@@std@@YA_KAEAY0EB@$$CBD@Z 0000000180046ac0 f i libvcruntimed:undname.obj
 0001:00045ad0       ??0?$_Optional_construct_base@_K@std@@QEAA@XZ 0000000180046ad0 f i libvcruntimed:undname.obj
 0001:00045b00       ??0?$_Optional_destruct_base@_K$00@std@@QEAA@XZ 0000000180046b00 f i libvcruntimed:undname.obj
 0001:00045b40       ??0?$optional@_K@std@@QEAA@XZ 0000000180046b40 f i libvcruntimed:undname.obj
 0001:00045b70       ??0Block@_HeapManager@@QEAA@XZ 0000000180046b70 f i libvcruntimed:undname.obj
 0001:00045b90       ??0DName@@QEAA@AEAPEBDD@Z  0000000180046b90 f   libvcruntimed:undname.obj
 0001:00045dd0       ??0DName@@QEAA@AEBUStringLiteral@@@Z 0000000180046dd0 f   libvcruntimed:undname.obj
 0001:00045e40       ??0DName@@QEAA@AEBV0@@Z    0000000180046e40 f i libvcruntimed:undname.obj
 0001:00045e80       ??0DName@@QEAA@D@Z         0000000180046e80 f   libvcruntimed:undname.obj
 0001:00045ed0       ??0DName@@QEAA@PEAV0@@Z    0000000180046ed0 f   libvcruntimed:undname.obj
 0001:00045ff0       ??0DName@@QEAA@W4DNameStatus@@@Z 0000000180046ff0 f   libvcruntimed:undname.obj
 0001:000460d0       ??0DName@@QEAA@XZ          00000001800470d0 f i libvcruntimed:undname.obj
 0001:00046100       ??0DName@@QEAA@_J@Z        0000000180047100 f   libvcruntimed:undname.obj
 0001:00046250       ??0DName@@QEAA@_K@Z        0000000180047250 f   libvcruntimed:undname.obj
 0001:00046360       ??0DNameNode@@IEAA@XZ      0000000180047360 f i libvcruntimed:undname.obj
 0001:00046380       ??0Replicator@@QEAA@XZ     0000000180047380 f i libvcruntimed:undname.obj
 0001:000463c0       ??0UnDecorator@@QEAA@PEBDP6APEADJ@ZK@Z 00000001800473c0 f i libvcruntimed:undname.obj
 0001:00046490       ??0_Nontrivial_dummy_type@std@@QEAA@XZ 0000000180047490 f i libvcruntimed:undname.obj
 0001:000464a0       ??0charNode@@QEAA@D@Z      00000001800474a0 f i libvcruntimed:undname.obj
 0001:000464f0       ??0pDNameNode@@QEAA@PEAVDName@@@Z 00000001800474f0 f   libvcruntimed:undname.obj
 0001:00046590       ??0pairNode@@QEAA@PEBVDNameNode@@0@Z 0000000180047590 f i libvcruntimed:undname.obj
 0001:00046630       ??2@YAPEAX_KAEAV_HeapManager@@H@Z 0000000180047630 f   libvcruntimed:undname.obj
 0001:000466b0       ??4DName@@QEAAAEAV0@AEBUStringLiteral@@@Z 00000001800476b0 f   libvcruntimed:undname.obj
 0001:00046710       ??4DName@@QEAAAEAV0@AEBV0@@Z 0000000180047710 f   libvcruntimed:undname.obj
 0001:00046750       ??4DName@@QEAAAEAV0@D@Z    0000000180047750 f i libvcruntimed:undname.obj
 0001:000467a0       ??4DName@@QEAAAEAV0@PEAV0@@Z 00000001800477a0 f   libvcruntimed:undname.obj
 0001:000468a0       ??4DName@@QEAAAEAV0@W4DNameStatus@@@Z 00000001800478a0 f   libvcruntimed:undname.obj
 0001:00046960       ??AReplicator@@QEBA?AVDName@@H@Z 0000000180047960 f   libvcruntimed:undname.obj
 0001:00046a10       ??B?$optional@_K@std@@QEBA_NXZ 0000000180047a10 f i libvcruntimed:undname.obj
 0001:00046a30       ??D?$optional@_K@std@@QEGAAAEA_KXZ 0000000180047a30 f i libvcruntimed:undname.obj
 0001:00046af0       ??H@YA?AVDName@@AEBUStringLiteral@@AEBV0@@Z 0000000180047af0 f i libvcruntimed:undname.obj
 0001:00046b50       ??H@YA?AVDName@@DAEBV0@@Z  0000000180047b50 f i libvcruntimed:undname.obj
 0001:00046bb0       ??H@YA?AVDName@@W4DNameStatus@@AEBV0@@Z 0000000180047bb0 f i libvcruntimed:undname.obj
 0001:00046c10       ??HDName@@QEBA?AV0@AEBUStringLiteral@@@Z 0000000180047c10 f   libvcruntimed:undname.obj
 0001:00046c70       ??HDName@@QEBA?AV0@AEBV0@@Z 0000000180047c70 f   libvcruntimed:undname.obj
 0001:00046cd0       ??HDName@@QEBA?AV0@D@Z     0000000180047cd0 f   libvcruntimed:undname.obj
 0001:00046d30       ??HDName@@QEBA?AV0@PEAV0@@Z 0000000180047d30 f   libvcruntimed:undname.obj
 0001:00046d90       ??HDName@@QEBA?AV0@W4DNameStatus@@@Z 0000000180047d90 f   libvcruntimed:undname.obj
 0001:00046df0       ??HStringLiteral@@QEBA?AU0@H@Z 0000000180047df0 f i libvcruntimed:undname.obj
 0001:00046e40       ??YDName@@QEAAAEAV0@AEBUStringLiteral@@@Z 0000000180047e40 f   libvcruntimed:undname.obj
 0001:00046f40       ??YDName@@QEAAAEAV0@AEBV0@@Z 0000000180047f40 f   libvcruntimed:undname.obj
 0001:00047030       ??YDName@@QEAAAEAV0@D@Z    0000000180048030 f   libvcruntimed:undname.obj
 0001:00047100       ??YDName@@QEAAAEAV0@PEAV0@@Z 0000000180048100 f   libvcruntimed:undname.obj
 0001:00047220       ??YDName@@QEAAAEAV0@W4DNameStatus@@@Z 0000000180048220 f   libvcruntimed:undname.obj
 0001:000472b0       ??YReplicator@@QEAAAEAV0@AEBVDName@@@Z 00000001800482b0 f   libvcruntimed:undname.obj
 0001:000473a0       ??_5DName@@QEAAAEAV0@AEBV0@@Z 00000001800483a0 f   libvcruntimed:undname.obj
 0001:00047420       ??__K_l@@YA?AUStringLiteral@@PEBD_K@Z 0000000180048420 f i libvcruntimed:undname.obj
 0001:00047480       ?Constructor@_HeapManager@@QEAAXP6APEAX_K@ZP6AXPEAX@Z@Z 0000000180048480 f i libvcruntimed:undname.obj
 0001:000474f0       ?Destructor@_HeapManager@@QEAAXXZ 00000001800484f0 f i libvcruntimed:undname.obj
 0001:000475b0       ?UScore@UnDecorator@@SA?AUStringLiteral@@W4Tokens@@@Z 00000001800485b0 f   libvcruntimed:undname.obj
 0001:00047660       ?composeDeclaration@UnDecorator@@CA?AVDName@@AEBV2@@Z 0000000180048660 f i libvcruntimed:undname.obj
 0001:0004a4a0       ?dbGetString@DName@@QEBAPEADXZ 000000018004b4a0 f   libvcruntimed:undname.obj
 0001:0004a4e0       ?doAccessSpecifiers@UnDecorator@@SAHXZ 000000018004b4e0 f i libvcruntimed:undname.obj
 0001:0004a520       ?doAllocationLanguage@UnDecorator@@SAHXZ 000000018004b520 f i libvcruntimed:undname.obj
 0001:0004a560       ?doAllocationModel@UnDecorator@@SAHXZ 000000018004b560 f i libvcruntimed:undname.obj
 0001:0004a5a0       ?doEcsu@UnDecorator@@SAHXZ 000000018004b5a0 f i libvcruntimed:undname.obj
 0001:0004a5e0       ?doEllipsis@UnDecorator@@SAHXZ 000000018004b5e0 f i libvcruntimed:undname.obj
 0001:0004a620       ?doFunctionReturns@UnDecorator@@SAHXZ 000000018004b620 f i libvcruntimed:undname.obj
 0001:0004a660       ?doMSKeywords@UnDecorator@@SAHXZ 000000018004b660 f i libvcruntimed:undname.obj
 0001:0004a6a0       ?doMemberTypes@UnDecorator@@SAHXZ 000000018004b6a0 f i libvcruntimed:undname.obj
 0001:0004a6e0       ?doNameOnly@UnDecorator@@SAHXZ 000000018004b6e0 f i libvcruntimed:undname.obj
 0001:0004a6f0       ?doNoIdentCharCheck@UnDecorator@@SAHXZ 000000018004b6f0 f i libvcruntimed:undname.obj
 0001:0004a700       ?doPchar@DName@@AEAAXD@Z   000000018004b700 f   libvcruntimed:undname.obj
 0001:0004a7b0       ?doPtr64@UnDecorator@@SAHXZ 000000018004b7b0 f i libvcruntimed:undname.obj
 0001:0004a7f0       ?doRestrictionSpec@UnDecorator@@SAHXZ 000000018004b7f0 f i libvcruntimed:undname.obj
 0001:0004a830       ?doThisTypes@UnDecorator@@SAHXZ 000000018004b830 f i libvcruntimed:undname.obj
 0001:0004a870       ?doThrowTypes@UnDecorator@@SAHXZ 000000018004b870 f i libvcruntimed:undname.obj
 0001:0004a8b0       ?doTypeOnly@UnDecorator@@SAHXZ 000000018004b8b0 f i libvcruntimed:undname.obj
 0001:0004a8c0       ?doUnderScore@UnDecorator@@SAHXZ 000000018004b8c0 f i libvcruntimed:undname.obj
 0001:0004a900       ?getAddressOf@UnDecorator@@CA?AVDName@@XZ 000000018004b900 f   libvcruntimed:undname.obj
 0001:0004a9d0       ?getArgumentList@UnDecorator@@CA?AVDName@@XZ 000000018004b9d0 f   libvcruntimed:undname.obj
 0001:0004abd0       ?getArgumentTypes@UnDecorator@@CA?AVDName@@XZ 000000018004bbd0 f   libvcruntimed:undname.obj
 0001:0004af60       ?getArrayAccess@UnDecorator@@CA?AVDName@@XZ 000000018004bf60 f   libvcruntimed:undname.obj
 0001:0004b050       ?getArrayObject@UnDecorator@@CA?AVDName@@XZ 000000018004c050 f   libvcruntimed:undname.obj
 0001:0004b1b0       ?getArrayType@UnDecorator@@CA?AVDName@@AEBV2@@Z 000000018004c1b0 f i libvcruntimed:undname.obj
 0001:0004b660       ?getBasedType@UnDecorator@@CA?AVDName@@XZ 000000018004c660 f   libvcruntimed:undname.obj
 0001:0004b830       ?getBasicDataType@UnDecorator@@CA?AVDName@@AEBV2@@Z 000000018004c830 f   libvcruntimed:undname.obj
 0001:0004c930       ?getCHPEName@UnDecorator@@QEAAPEADPEADH@Z 000000018004d930 f i libvcruntimed:undname.obj
 0001:0004cb70       ?getCallIndex@UnDecorator@@CA?AVDName@@XZ 000000018004db70 f i libvcruntimed:undname.obj
 0001:0004cba0       ?getCallingConvention@UnDecorator@@CA?AVDName@@XZ 000000018004dba0 f   libvcruntimed:undname.obj
 0001:0004d080       ?getDataIndirectType@UnDecorator@@CA?AVDName@@AEBV2@W4IndirectionKind@@0H@Z 000000018004e080 f   libvcruntimed:undname.obj
 0001:0004e040       ?getDataIndirectType@UnDecorator@@CA?AVDName@@XZ 000000018004f040 f i libvcruntimed:undname.obj
 0001:0004e0b0       ?getDataType@UnDecorator@@CA?AVDName@@PEAV2@@Z 000000018004f0b0 f   libvcruntimed:undname.obj
 0001:0004e300       ?getDecoratedName@UnDecorator@@CA?AVDName@@XZ 000000018004f300 f   libvcruntimed:undname.obj
 0001:0004e930       ?getDimension@UnDecorator@@CA?AVDName@@_N@Z 000000018004f930 f   libvcruntimed:undname.obj
 0001:0004ed00       ?getDispatchTarget@UnDecorator@@CA?AVDName@@XZ 000000018004fd00 f   libvcruntimed:undname.obj
 0001:0004ee00       ?getDisplacement@UnDecorator@@CA?AVDName@@XZ 000000018004fe00 f i libvcruntimed:undname.obj
 0001:0004ee30       ?getECSUDataType@UnDecorator@@CA?AVDName@@XZ 000000018004fe30 f   libvcruntimed:undname.obj
 0001:0004f2b0       ?getECSUName@UnDecorator@@CA?AVDName@@XZ 00000001800502b0 f i libvcruntimed:undname.obj
 0001:0004f2e0       ?getEnumType@UnDecorator@@CA?AVDName@@XZ 00000001800502e0 f i libvcruntimed:undname.obj
 0001:0004f610       ?getExtendedDataIndirectType@UnDecorator@@CA?AVDName@@AEAW4IndirectionKind@@AEA_NH@Z 0000000180050610 f   libvcruntimed:undname.obj
 0001:0004f9f0       ?getExternalDataType@UnDecorator@@CA?AVDName@@AEBV2@@Z 00000001800509f0 f i libvcruntimed:undname.obj
 0001:0004fb00       ?getFloatingPoint@UnDecorator@@CA?AVDName@@H@Z 0000000180050b00 f   libvcruntimed:undname.obj
 0001:0004fe20       ?getFunctionIndirectType@UnDecorator@@CA?AVDName@@AEBV2@@Z 0000000180050e20 f   libvcruntimed:undname.obj
 0001:000505e0       ?getGuardNumber@UnDecorator@@CA?AVDName@@XZ 00000001800515e0 f i libvcruntimed:undname.obj
 0001:00050610       ?getLastChar@DName@@QEBADXZ 0000000180051610 f i libvcruntimed:undname.obj
 0001:00050670       ?getLastChar@DNameStatusNode@@UEBADXZ 0000000180051670 f i libvcruntimed:undname.obj
 0001:000506c0       ?getLastChar@charNode@@UEBADXZ 00000001800516c0 f i libvcruntimed:undname.obj
 0001:000506e0       ?getLastChar@pDNameNode@@UEBADXZ 00000001800516e0 f i libvcruntimed:undname.obj
 0001:00050730       ?getLastChar@pairNode@@UEBADXZ 0000000180051730 f i libvcruntimed:undname.obj
 0001:000507d0       ?getLastChar@pcharNode@@UEBADXZ 00000001800517d0 f i libvcruntimed:undname.obj
 0001:00050820       ?getLexicalFrame@UnDecorator@@CA?AVDName@@XZ 0000000180051820 f i libvcruntimed:undname.obj
 0001:00050880       ?getMemberAccess@UnDecorator@@CA?AVDName@@XZ 0000000180051880 f   libvcruntimed:undname.obj
 0001:00050960       ?getMemoryWithBuffer@_HeapManager@@QEAAPEAX_K@Z 0000000180051960 f   libvcruntimed:undname.obj
 0001:00050b00       ?getMemoryWithoutBuffer@_HeapManager@@QEAAPEAX_K@Z 0000000180051b00 f   libvcruntimed:undname.obj
 0001:00050b60       ?getNoexcept@UnDecorator@@CA?AVDName@@XZ 0000000180051b60 f   libvcruntimed:undname.obj
 0001:00050c40       ?getNumberOfDimensions@UnDecorator@@CAHXZ 0000000180051c40 f   libvcruntimed:undname.obj
 0001:00050db0       ?getOperatorName@UnDecorator@@CA?AVDName@@_NPEA_N@Z 0000000180051db0 f i libvcruntimed:undname.obj
 0001:00052190       ?getPointerToMember@UnDecorator@@CA?AVDName@@XZ 0000000180053190 f   libvcruntimed:undname.obj
 0001:00052330       ?getPointerType@UnDecorator@@CA?AVDName@@AEBV2@0@Z 0000000180053330 f i libvcruntimed:undname.obj
 0001:00052380       ?getPointerTypeArray@UnDecorator@@CA?AVDName@@AEBV2@0@Z 0000000180053380 f i libvcruntimed:undname.obj
 0001:000523d0       ?getPrimaryDataType@UnDecorator@@CA?AVDName@@AEBV2@@Z 00000001800533d0 f   libvcruntimed:undname.obj
 0001:00052b80       ?getPtrRefDataType@UnDecorator@@CA?AVDName@@AEBV2@H@Z 0000000180053b80 f   libvcruntimed:undname.obj
 0001:00053070       ?getPtrRefType@UnDecorator@@CA?AVDName@@AEBV2@0W4IndirectionKind@@@Z 0000000180054070 f   libvcruntimed:undname.obj
 0001:00053330       ?getReferenceType@UnDecorator@@CA?AVDName@@AEBV2@0W4IndirectionKind@@@Z 0000000180054330 f i libvcruntimed:undname.obj
 0001:00053380       ?getRestrictionSpec@UnDecorator@@CA?AVDName@@XZ 0000000180054380 f   libvcruntimed:undname.obj
 0001:000536b0       ?getReturnType@UnDecorator@@CA?AVDName@@PEAV2@@Z 00000001800546b0 f   libvcruntimed:undname.obj
 0001:00053730       ?getScope@UnDecorator@@CA?AVDName@@XZ 0000000180054730 f   libvcruntimed:undname.obj
 0001:00054060       ?getScopedName@UnDecorator@@CA?AVDName@@XZ 0000000180055060 f   libvcruntimed:undname.obj
 0001:000542e0       ?getSignedDimension@UnDecorator@@CA?AVDName@@XZ 00000001800552e0 f   libvcruntimed:undname.obj
 0001:00054390       ?getStorageConvention@UnDecorator@@CA?AVDName@@XZ 0000000180055390 f i libvcruntimed:undname.obj
 0001:000543c0       ?getString@DName@@QEBAPEADPEAD0@Z 00000001800553c0 f i libvcruntimed:undname.obj
 0001:00054450       ?getString@DName@@QEBAPEADPEADH@Z 0000000180055450 f i libvcruntimed:undname.obj
 0001:00054530       ?getString@DNameStatusNode@@UEBAPEADPEAD0@Z 0000000180055530 f i libvcruntimed:undname.obj
 0001:00054590       ?getString@charNode@@UEBAPEADPEAD0@Z 0000000180055590 f i libvcruntimed:undname.obj
 0001:000545e0       ?getString@pDNameNode@@UEBAPEADPEAD0@Z 00000001800555e0 f i libvcruntimed:undname.obj
 0001:00054660       ?getString@pairNode@@UEBAPEADPEAD0@Z 0000000180055660 f i libvcruntimed:undname.obj
 0001:00054760       ?getString@pcharNode@@UEBAPEADPEAD0@Z 0000000180055760 f i libvcruntimed:undname.obj
 0001:000547b0       ?getStringEncoding@UnDecorator@@CA?AVDName@@W4PrefixKind@@H@Z 00000001800557b0 f   libvcruntimed:undname.obj
 0001:00054960       ?getStringHelper@@YAPEADPEADPEBD1H@Z 0000000180055960 f i libvcruntimed:undname.obj
 0001:000549e0       ?getStringObject@UnDecorator@@CA?AVDName@@XZ 00000001800559e0 f   libvcruntimed:undname.obj
 0001:00054af0       ?getSymbolName@UnDecorator@@CA?AVDName@@XZ 0000000180055af0 f i libvcruntimed:undname.obj
 0001:00054bb0       ?getTemplateArgumentList@UnDecorator@@CA?AVDName@@XZ 0000000180055bb0 f   libvcruntimed:undname.obj
 0001:00054fc0       ?getTemplateName@UnDecorator@@CA?AVDName@@_N@Z 0000000180055fc0 f   libvcruntimed:undname.obj
 0001:00055280       ?getTemplateNonTypeArgument@UnDecorator@@CA?AVDName@@XZ 0000000180056280 f   libvcruntimed:undname.obj
 0001:00055d40       ?getTemplateTypeArgument@UnDecorator@@CA?AVDName@@XZ 0000000180056d40 f   libvcruntimed:undname.obj
 0001:00056050       ?getThisType@UnDecorator@@CA?AVDName@@XZ 0000000180057050 f i libvcruntimed:undname.obj
 0001:000560c0       ?getThrowTypes@UnDecorator@@CA?AVDName@@XZ 00000001800570c0 f   libvcruntimed:undname.obj
 0001:00056130       ?getTypeEncoding@UnDecorator@@CAHXZ 0000000180057130 f i libvcruntimed:undname.obj
 0001:000570a0       ?getUndecoratedName@UnDecorator@@QEAAPEADPEADH@Z 00000001800580a0 f i libvcruntimed:undname.obj
 0001:00057310       ?getUnionObject@UnDecorator@@CA?AVDName@@XZ 0000000180058310 f   libvcruntimed:undname.obj
 0001:00057460       ?getVCallThunkType@UnDecorator@@CA?AVDName@@XZ 0000000180058460 f i libvcruntimed:undname.obj
 0001:00057540       ?getValue@UnDecorator@@CA?AV?$optional@_K@std@@XZ 0000000180058540 f   libvcruntimed:undname.obj
 0001:00057640       ?getValueObject@UnDecorator@@CA?AVDName@@XZ 0000000180058640 f   libvcruntimed:undname.obj
 0001:000578e0       ?getVbTableType@UnDecorator@@CA?AVDName@@AEBV2@@Z 00000001800588e0 f i libvcruntimed:undname.obj
 0001:00057910       ?getVdispMapType@UnDecorator@@CA?AVDName@@AEBV2@@Z 0000000180058910 f i libvcruntimed:undname.obj
 0001:00057a00       ?getVfTableType@UnDecorator@@CA?AVDName@@AEBV2@@Z 0000000180058a00 f i libvcruntimed:undname.obj
 0001:00057d50       ?getZName@UnDecorator@@CA?AVDName@@_N0@Z 0000000180058d50 f   libvcruntimed:undname.obj
 0001:000582e0       ?haveTemplateParameters@UnDecorator@@SAHXZ 00000001800592e0 f i libvcruntimed:undname.obj
 0001:000582f0       ?isArray@DName@@QEBAHXZ    00000001800592f0 f i libvcruntimed:undname.obj
 0001:00058310       ?isComArray@DName@@QEBAHXZ 0000000180059310 f i libvcruntimed:undname.obj
 0001:00058330       ?isEmpty@DName@@QEBAHXZ    0000000180059330 f i libvcruntimed:undname.obj
 0001:00058370       ?isFull@Replicator@@QEBAHXZ 0000000180059370 f i libvcruntimed:undname.obj
 0001:000583b0       ?isNoTE@DName@@QEBAHXZ     00000001800593b0 f i libvcruntimed:undname.obj
 0001:000583d0       ?isPinPtr@DName@@QEBAHXZ   00000001800593d0 f i libvcruntimed:undname.obj
 0001:000583f0       ?isPtrRef@DName@@QEBAHXZ   00000001800593f0 f i libvcruntimed:undname.obj
 0001:00058410       ?isUDC@DName@@QEBAHXZ      0000000180059410 f i libvcruntimed:undname.obj
 0001:00058470       ?isUDTThunk@DName@@QEBAHXZ 0000000180059470 f i libvcruntimed:undname.obj
 0001:000584d0       ?isVCallThunk@DName@@QEBAHXZ 00000001800594d0 f i libvcruntimed:undname.obj
 0001:000584f0       ?isValid@DName@@QEBAHXZ    00000001800594f0 f i libvcruntimed:undname.obj
 0001:00058540       ?length@DName@@QEBAHXZ     0000000180059540 f i libvcruntimed:undname.obj
 0001:000585a0       ?length@DNameStatusNode@@UEBAHXZ 00000001800595a0 f i libvcruntimed:undname.obj
 0001:000585c0       ?length@charNode@@UEBAHXZ  00000001800595c0 f i libvcruntimed:undname.obj
 0001:000585d0       ?length@pDNameNode@@UEBAHXZ 00000001800595d0 f i libvcruntimed:undname.obj
 0001:00058620       ?length@pairNode@@UEBAHXZ  0000000180059620 f i libvcruntimed:undname.obj
 0001:000586d0       ?length@pcharNode@@UEBAHXZ 00000001800596d0 f i libvcruntimed:undname.obj
 0001:000586f0       ?make@DNameStatusNode@@SAPEBV1@W4DNameStatus@@@Z 00000001800596f0 f i libvcruntimed:undname.obj
 0001:00058750       ?parseDecoratedName@UnDecorator@@CA?AVDName@@XZ 0000000180059750 f   libvcruntimed:undname.obj
 0001:000589c0       ?raw_length@DNameStatusNode@@UEBAHXZ 00000001800599c0 f i libvcruntimed:undname.obj
 0001:000589e0       ?raw_length@charNode@@UEBAHXZ 00000001800599e0 f i libvcruntimed:undname.obj
 0001:00058a00       ?raw_length@pDNameNode@@UEBAHXZ 0000000180059a00 f i libvcruntimed:undname.obj
 0001:00058a10       ?raw_length@pairNode@@UEBAHXZ 0000000180059a10 f i libvcruntimed:undname.obj
 0001:00058a30       ?raw_length@pcharNode@@UEBAHXZ 0000000180059a30 f i libvcruntimed:undname.obj
 0001:00058a50       ?setIsArray@DName@@QEAAXXZ 0000000180059a50 f i libvcruntimed:undname.obj
 0001:00058a70       ?setIsComArray@DName@@QEAAXXZ 0000000180059a70 f i libvcruntimed:undname.obj
 0001:00058a90       ?setIsNoTE@DName@@QEAAXXZ  0000000180059a90 f i libvcruntimed:undname.obj
 0001:00058ab0       ?setIsPinPtr@DName@@QEAAXXZ 0000000180059ab0 f i libvcruntimed:undname.obj
 0001:00058ad0       ?setIsUDC@DName@@QEAAXXZ   0000000180059ad0 f i libvcruntimed:undname.obj
 0001:00058b10       ?setIsVCallThunk@DName@@QEAAXXZ 0000000180059b10 f i libvcruntimed:undname.obj
 0001:00058b30       ?setPtrRef@DName@@QEAAAEAV1@XZ 0000000180059b30 f i libvcruntimed:undname.obj
 0001:00058b60       ?status@DName@@QEBA?AW4DNameStatus@@XZ 0000000180059b60 f i libvcruntimed:undname.obj
 0001:00058cd0       __unDName                  0000000180059cd0 f   libvcruntimed:undname.obj
 0001:00058d40       __unDNameEx                0000000180059d40 f   libvcruntimed:undname.obj
 0001:00058e30       unDNameGenerateCHPE        0000000180059e30 f   libvcruntimed:undname.obj
 0001:00058f00       ??$__crt_interlocked_exchange_pointer@UHINSTANCE__@@PEAU1@@@YAPEAUHINSTANCE__@@PEDSEAU0@QEAU0@@Z 0000000180059f00 f i libvcruntimed:winapi_downlevel.obj
 0001:00058f20       ??$__crt_interlocked_exchange_pointer@UHINSTANCE__@@PEAX@@YAPEAUHINSTANCE__@@PEDSEAU0@QEAX@Z 0000000180059f20 f i libvcruntimed:winapi_downlevel.obj
 0001:00058f40       ??$__crt_interlocked_exchange_pointer@XPEAX@@YAPEAXPEDSEAXQEAX@Z 0000000180059f40 f i libvcruntimed:winapi_downlevel.obj
 0001:00058f60       ??$__crt_interlocked_read_pointer@UHINSTANCE__@@@@YAPEAUHINSTANCE__@@PEDSEAU0@@Z 0000000180059f60 f i libvcruntimed:winapi_downlevel.obj
 0001:00058f80       ??$__crt_interlocked_read_pointer@X@@YAPEAXPEDSEAX@Z 0000000180059f80 f i libvcruntimed:winapi_downlevel.obj
 0001:000595e0       __vcrt_FlsAlloc            000000018005a5e0 f   libvcruntimed:winapi_downlevel.obj
 0001:00059640       __vcrt_FlsFree             000000018005a640 f   libvcruntimed:winapi_downlevel.obj
 0001:000596b0       __vcrt_FlsGetValue         000000018005a6b0 f   libvcruntimed:winapi_downlevel.obj
 0001:00059720       __vcrt_FlsSetValue         000000018005a720 f   libvcruntimed:winapi_downlevel.obj
 0001:000597a0       __vcrt_InitializeCriticalSectionEx 000000018005a7a0 f   libvcruntimed:winapi_downlevel.obj
 0001:00059830       _CallSettingFrame          000000018005a830 f   libvcruntimed:handlers.obj
 0001:00059880       _CallSettingFrame_LookupContinuationIndex 000000018005a880 f   libvcruntimed:handlers.obj
 0001:000598b0       _CallSettingFrame_NotifyContinuationAddr 000000018005a8b0 f   libvcruntimed:handlers.obj
 0001:000598e0       _CallSettingFrameEncoded   000000018005a8e0 f   libvcruntimed:handlers.obj
 0001:00059970       rand                       000000018005a970 f   libucrtd:rand.obj
 0001:000599c0       srand                      000000018005a9c0 f   libucrtd:rand.obj
 0001:0005a1f0       _time32                    000000018005b1f0 f   libucrtd:time.obj
 0001:0005a210       _time64                    000000018005b210 f   libucrtd:time.obj
 0001:0005a230       _timespec32_get            000000018005b230 f   libucrtd:time.obj
 0001:0005a260       _timespec64_get            000000018005b260 f   libucrtd:time.obj
 0001:0005a290       ??$__crt_fast_decode_pointer@P6AXPEB_W00I_K@Z@@YAP6AXPEB_W00I_K@ZQ6AX000I1@Z@Z 000000018005b290 f i libucrtd:invalid_parameter.obj
 0001:0005a2e0       ??$__crt_fast_encode_pointer@P6AXPEB_W00I_K@Z@@YAP6AXPEB_W00I_K@ZQ6AX000I1@Z@Z 000000018005b2e0 f i libucrtd:invalid_parameter.obj
 0001:0005a330       ??$initialize_from_array@$$BY00Q6AXPEB_W00I_K@Z@?$dual_state_global@P6AXPEB_W00I_K@Z@__crt_state_management@@QEAAXAEAY00Q6AXPEB_W00I_K@Z@Z 000000018005b330 f i libucrtd:invalid_parameter.obj
 0001:0005a3b0       ??0?$cached@H@__crt_cached_ptd_host@@QEAA@XZ 000000018005b3b0 f i libucrtd:invalid_parameter.obj
 0001:0005a3d0       ??0?$cached@K@__crt_cached_ptd_host@@QEAA@XZ 000000018005b3d0 f i libucrtd:invalid_parameter.obj
 0001:0005a3f0       ??0__crt_cached_ptd_host@@QEAA@QEAU__crt_locale_pointers@@@Z 000000018005b3f0 f i libucrtd:invalid_parameter.obj
 0001:0005a4d0       ??0__crt_scoped_get_last_error_reset@@QEAA@XZ 000000018005b4d0 f i libucrtd:invalid_parameter.obj
 0001:0005a500       ??1__crt_cached_ptd_host@@QEAA@XZ 000000018005b500 f i libucrtd:invalid_parameter.obj
 0001:0005a5d0       ??1__crt_scoped_get_last_error_reset@@QEAA@XZ 000000018005b5d0 f i libucrtd:invalid_parameter.obj
 0001:0005a600       ?__crt_rotate_pointer_value@@YA_K_KH@Z 000000018005b600 f i libucrtd:invalid_parameter.obj
 0001:0005a6e0       ?check_synchronize_global_state_index@__crt_cached_ptd_host@@AEAA_KAEBV__crt_scoped_get_last_error_reset@@@Z 000000018005b6e0 f i libucrtd:invalid_parameter.obj
 0001:0005a730       ?check_synchronize_global_state_index@__crt_cached_ptd_host@@AEAA_KXZ 000000018005b730 f i libucrtd:invalid_parameter.obj
 0001:0005a7a0       ?check_synchronize_per_thread_data@__crt_cached_ptd_host@@AEAAPEAU__acrt_ptd@@XZ 000000018005b7a0 f i libucrtd:invalid_parameter.obj
 0001:0005a7f0       ?dangerous_get_state_array@?$dual_state_global@P6AXPEB_W00I_K@Z@__crt_state_management@@QEAAPEAP6AXPEB_W00I_K@ZXZ 000000018005b7f0 f i libucrtd:invalid_parameter.obj
 0001:0005a800       ?force_synchronize_global_state_index@__crt_cached_ptd_host@@AEAA_KAEBV__crt_scoped_get_last_error_reset@@@Z 000000018005b800 f i libucrtd:invalid_parameter.obj
 0001:0005a850       ?force_synchronize_per_thread_data@__crt_cached_ptd_host@@AEAAPEAU__acrt_ptd@@XZ 000000018005b850 f i libucrtd:invalid_parameter.obj
 0001:0005a8d0       ?get_current_global_state_index@__crt_cached_ptd_host@@QEAA_KXZ 000000018005b8d0 f i libucrtd:invalid_parameter.obj
 0001:0005a8f0       ?get_current_state_index@__crt_state_management@@YA_KAEBV__crt_scoped_get_last_error_reset@@@Z 000000018005b8f0 f i libucrtd:invalid_parameter.obj
 0001:0005a900       ?get_current_state_index@__crt_state_management@@YA_KXZ 000000018005b900 f i libucrtd:invalid_parameter.obj
 0001:0005a910       ?get_raw_ptd@__crt_cached_ptd_host@@QEAAPEAU__acrt_ptd@@XZ 000000018005b910 f i libucrtd:invalid_parameter.obj
 0001:0005a930       ?get_raw_ptd_noexit@__crt_cached_ptd_host@@QEAAPEAU__acrt_ptd@@XZ 000000018005b930 f i libucrtd:invalid_parameter.obj
 0001:0005a950       ?try_synchronize_per_thread_data@__crt_cached_ptd_host@@AEAAPEAU__acrt_ptd@@XZ 000000018005b950 f i libucrtd:invalid_parameter.obj
 0001:0005a990       ?unsafe_value@?$cached@H@__crt_cached_ptd_host@@QEAAHXZ 000000018005b990 f i libucrtd:invalid_parameter.obj
 0001:0005a9a0       ?unsafe_value@?$cached@K@__crt_cached_ptd_host@@QEAAKXZ 000000018005b9a0 f i libucrtd:invalid_parameter.obj
 0001:0005a9b0       ?valid@?$cached@H@__crt_cached_ptd_host@@QEBA_NXZ 000000018005b9b0 f i libucrtd:invalid_parameter.obj
 0001:0005a9d0       ?valid@?$cached@K@__crt_cached_ptd_host@@QEBA_NXZ 000000018005b9d0 f i libucrtd:invalid_parameter.obj
 0001:0005a9f0       ?value@?$dual_state_global@P6AXPEB_W00I_K@Z@__crt_state_management@@QEAAAEAP6AXPEB_W00I_K@ZAEAV__crt_cached_ptd_host@@@Z 000000018005b9f0 f i libucrtd:invalid_parameter.obj
 0001:0005aa20       ?value@?$dual_state_global@P6AXPEB_W00I_K@Z@__crt_state_management@@QEAAAEAP6AXPEB_W00I_K@ZXZ 000000018005ba20 f i libucrtd:invalid_parameter.obj
 0001:0005aa50       __acrt_call_reportfault    000000018005ba50 f   libucrtd:invalid_parameter.obj
 0001:0005abd0       __acrt_enable_global_locale_sync 000000018005bbd0 f i libucrtd:invalid_parameter.obj
 0001:0005ac10       __acrt_initialize_invalid_parameter_handler 000000018005bc10 f   libucrtd:invalid_parameter.obj
 0001:0005ac50       __acrt_locale_changed      000000018005bc50 f i libucrtd:invalid_parameter.obj
 0001:0005ac80       _get_invalid_parameter_handler 000000018005bc80 f   libucrtd:invalid_parameter.obj
 0001:0005acb0       _get_thread_local_invalid_parameter_handler 000000018005bcb0 f   libucrtd:invalid_parameter.obj
 0001:0005acf0       _invalid_parameter         000000018005bcf0 f   libucrtd:invalid_parameter.obj
 0001:0005ad80       _invalid_parameter_internal 000000018005bd80 f   libucrtd:invalid_parameter.obj
 0001:0005af20       _invalid_parameter_noinfo  000000018005bf20 f   libucrtd:invalid_parameter.obj
 0001:0005af50       _invalid_parameter_noinfo_noreturn 000000018005bf50 f   libucrtd:invalid_parameter.obj
 0001:0005afa0       _invoke_watson             000000018005bfa0 f   libucrtd:invalid_parameter.obj
 0001:0005b020       _set_invalid_parameter_handler 000000018005c020 f   libucrtd:invalid_parameter.obj
 0001:0005b090       _set_thread_local_invalid_parameter_handler 000000018005c090 f   libucrtd:invalid_parameter.obj
 0001:0005b0e0       ??$?0AEBV?$stream_output_adapter@D@__crt_stdio_output@@AEB_KAEBQEBDAEAV__crt_cached_ptd_host@@AEBQEAD@?$format_validation_base@DV?$stream_output_adapter@D@__crt_stdio_output@@@__crt_stdio_output@@IEAA@AEBV?$stream_output_adapter@D@1@AEB_KAEBQEBDAEAV__crt_cached_ptd_host@@AEBQEAD@Z 000000018005c0e0 f i libucrtd:output.obj
 0001:0005b150       ??$?0AEBV?$stream_output_adapter@D@__crt_stdio_output@@AEB_KAEBQEBDAEAV__crt_cached_ptd_host@@AEBQEAD@?$positional_parameter_base@DV?$stream_output_adapter@D@__crt_stdio_output@@@__crt_stdio_output@@IEAA@AEBV?$stream_output_adapter@D@1@AEB_KAEBQEBDAEAV__crt_cached_ptd_host@@AEBQEAD@Z 000000018005c150 f i libucrtd:output.obj
 0001:0005b220       ??$?0AEBV?$stream_output_adapter@D@__crt_stdio_output@@AEB_KAEBQEBDAEAV__crt_cached_ptd_host@@AEBQEAD@?$standard_base@DV?$stream_output_adapter@D@__crt_stdio_output@@@__crt_stdio_output@@IEAA@AEBV?$stream_output_adapter@D@1@AEB_KAEBQEBDAEAV__crt_cached_ptd_host@@AEBQEAD@Z 000000018005c220 f i libucrtd:output.obj
 0001:0005b2a0       ??$?0AEBV?$stream_output_adapter@_W@__crt_stdio_output@@AEB_KAEBQEB_WAEAV__crt_cached_ptd_host@@AEBQEAD@?$format_validation_base@_WV?$stream_output_adapter@_W@__crt_stdio_output@@@__crt_stdio_output@@IEAA@AEBV?$stream_output_adapter@_W@1@AEB_KAEBQEB_WAEAV__crt_cached_ptd_host@@AEBQEAD@Z 000000018005c2a0 f i libucrtd:output.obj
 0001:0005b310       ??$?0AEBV?$stream_output_adapter@_W@__crt_stdio_output@@AEB_KAEBQEB_WAEAV__crt_cached_ptd_host@@AEBQEAD@?$positional_parameter_base@_WV?$stream_output_adapter@_W@__crt_stdio_output@@@__crt_stdio_output@@IEAA@AEBV?$stream_output_adapter@_W@1@AEB_KAEBQEB_WAEAV__crt_cached_ptd_host@@AEBQEAD@Z 000000018005c310 f i libucrtd:output.obj
 0001:0005b3e0       ??$?0AEBV?$stream_output_adapter@_W@__crt_stdio_output@@AEB_KAEBQEB_WAEAV__crt_cached_ptd_host@@AEBQEAD@?$standard_base@_WV?$stream_output_adapter@_W@__crt_stdio_output@@@__crt_stdio_output@@IEAA@AEBV?$stream_output_adapter@_W@1@AEB_KAEBQEB_WAEAV__crt_cached_ptd_host@@AEBQEAD@Z 000000018005c3e0 f i libucrtd:output.obj
 0001:0005b460       ??$?0AEBV?$string_output_adapter@D@__crt_stdio_output@@AEB_KAEBQEBDAEAV__crt_cached_ptd_host@@AEBQEAD@?$format_validation_base@DV?$string_output_adapter@D@__crt_stdio_output@@@__crt_stdio_output@@IEAA@AEBV?$string_output_adapter@D@1@AEB_KAEBQEBDAEAV__crt_cached_ptd_host@@AEBQEAD@Z 000000018005c460 f i libucrtd:output.obj
 0001:0005b4d0       ??$?0AEBV?$string_output_adapter@D@__crt_stdio_output@@AEB_KAEBQEBDAEAV__crt_cached_ptd_host@@AEBQEAD@?$positional_parameter_base@DV?$string_output_adapter@D@__crt_stdio_output@@@__crt_stdio_output@@IEAA@AEBV?$string_output_adapter@D@1@AEB_KAEBQEBDAEAV__crt_cached_ptd_host@@AEBQEAD@Z 000000018005c4d0 f i libucrtd:output.obj
 0001:0005b5a0       ??$?0AEBV?$string_output_adapter@D@__crt_stdio_output@@AEB_KAEBQEBDAEAV__crt_cached_ptd_host@@AEBQEAD@?$standard_base@DV?$string_output_adapter@D@__crt_stdio_output@@@__crt_stdio_output@@IEAA@AEBV?$string_output_adapter@D@1@AEB_KAEBQEBDAEAV__crt_cached_ptd_host@@AEBQEAD@Z 000000018005c5a0 f i libucrtd:output.obj
 0001:0005b620       ??$?0AEBV?$string_output_adapter@_W@__crt_stdio_output@@AEB_KAEBQEB_WAEAV__crt_cached_ptd_host@@AEBQEAD@?$format_validation_base@_WV?$string_output_adapter@_W@__crt_stdio_output@@@__crt_stdio_output@@IEAA@AEBV?$string_output_adapter@_W@1@AEB_KAEBQEB_WAEAV__crt_cached_ptd_host@@AEBQEAD@Z 000000018005c620 f i libucrtd:output.obj
 0001:0005b690       ??$?0AEBV?$string_output_adapter@_W@__crt_stdio_output@@AEB_KAEBQEB_WAEAV__crt_cached_ptd_host@@AEBQEAD@?$positional_parameter_base@_WV?$string_output_adapter@_W@__crt_stdio_output@@@__crt_stdio_output@@IEAA@AEBV?$string_output_adapter@_W@1@AEB_KAEBQEB_WAEAV__crt_cached_ptd_host@@AEBQEAD@Z 000000018005c690 f i libucrtd:output.obj
 0001:0005b760       ??$?0AEBV?$string_output_adapter@_W@__crt_stdio_output@@AEB_KAEBQEB_WAEAV__crt_cached_ptd_host@@AEBQEAD@?$standard_base@_WV?$string_output_adapter@_W@__crt_stdio_output@@@__crt_stdio_output@@IEAA@AEBV?$string_output_adapter@_W@1@AEB_KAEBQEB_WAEAV__crt_cached_ptd_host@@AEBQEAD@Z 000000018005c760 f i libucrtd:output.obj
 0001:0005bd20       ??$__crt_interlocked_read@J@@YAJPEDJ@Z 000000018005cd20 f i libucrtd:output.obj
 0001:0005bd40       ??$_tcstol_internal@DPEAPEAD$0A@@@YAJAEAV__crt_cached_ptd_host@@QEBDQEAPEADH@Z 000000018005cd40 f i libucrtd:output.obj
 0001:0005bdb0       ??$_tcstol_internal@_WPEAPEA_W$0A@@@YAJAEAV__crt_cached_ptd_host@@QEB_WQEAPEA_WH@Z 000000018005cdb0 f i libucrtd:output.obj
 0001:00060d30       ??$count@D@formatting_buffer@__crt_stdio_output@@QEBA_KXZ 0000000180061d30 f i libucrtd:output.obj
 0001:00060d90       ??$count@_W@formatting_buffer@__crt_stdio_output@@QEBA_KXZ 0000000180061d90 f i libucrtd:output.obj
 0001:00060e00       ??$data@D@formatting_buffer@__crt_stdio_output@@QEAAPEADXZ 0000000180061e00 f i libucrtd:output.obj
 0001:00060e60       ??$data@_W@formatting_buffer@__crt_stdio_output@@QEAAPEA_WXZ 0000000180061e60 f i libucrtd:output.obj
 0001:00060ec0       ??$ensure_buffer_is_big_enough@D@formatting_buffer@__crt_stdio_output@@QEAA_N_KAEAV__crt_cached_ptd_host@@@Z 0000000180061ec0 f i libucrtd:output.obj
 0001:00061050       ??$ensure_buffer_is_big_enough@_W@formatting_buffer@__crt_stdio_output@@QEAA_N_KAEAV__crt_cached_ptd_host@@@Z 0000000180062050 f i libucrtd:output.obj
 0001:000611e0       ??$extract_argument_from_va_list@C_J@?$positional_parameter_base@DV?$stream_output_adapter@D@__crt_stdio_output@@@__crt_stdio_output@@IEAA_NAEA_J@Z 00000001800621e0 f i libucrtd:output.obj
 0001:00061410       ??$extract_argument_from_va_list@C_J@?$positional_parameter_base@DV?$string_output_adapter@D@__crt_stdio_output@@@__crt_stdio_output@@IEAA_NAEA_J@Z 0000000180062410 f i libucrtd:output.obj
 0001:00061640       ??$extract_argument_from_va_list@C_J@?$positional_parameter_base@_WV?$stream_output_adapter@_W@__crt_stdio_output@@@__crt_stdio_output@@IEAA_NAEA_J@Z 0000000180062640 f i libucrtd:output.obj
 0001:00061870       ??$extract_argument_from_va_list@C_J@?$positional_parameter_base@_WV?$string_output_adapter@_W@__crt_stdio_output@@@__crt_stdio_output@@IEAA_NAEA_J@Z 0000000180062870 f i libucrtd:output.obj
 0001:00061aa0       ??$extract_argument_from_va_list@C_J@?$standard_base@DV?$stream_output_adapter@D@__crt_stdio_output@@@__crt_stdio_output@@IEAA_NAEA_J@Z 0000000180062aa0 f i libucrtd:output.obj
 0001:00061ae0       ??$extract_argument_from_va_list@C_J@?$standard_base@DV?$string_output_adapter@D@__crt_stdio_output@@@__crt_stdio_output@@IEAA_NAEA_J@Z 0000000180062ae0 f i libucrtd:output.obj
 0001:00061b20       ??$extract_argument_from_va_list@C_J@?$standard_base@_WV?$stream_output_adapter@_W@__crt_stdio_output@@@__crt_stdio_output@@IEAA_NAEA_J@Z 0000000180062b20 f i libucrtd:output.obj
 0001:00061b60       ??$extract_argument_from_va_list@C_J@?$standard_base@_WV?$string_output_adapter@_W@__crt_stdio_output@@@__crt_stdio_output@@IEAA_NAEA_J@Z 0000000180062b60 f i libucrtd:output.obj
 0001:00061ba0       ??$extract_argument_from_va_list@E_J@?$positional_parameter_base@DV?$stream_output_adapter@D@__crt_stdio_output@@@__crt_stdio_output@@IEAA_NAEA_J@Z 0000000180062ba0 f i libucrtd:output.obj
 0001:00061dd0       ??$extract_argument_from_va_list@E_J@?$positional_parameter_base@DV?$string_output_adapter@D@__crt_stdio_output@@@__crt_stdio_output@@IEAA_NAEA_J@Z 0000000180062dd0 f i libucrtd:output.obj
 0001:00062000       ??$extract_argument_from_va_list@E_J@?$positional_parameter_base@_WV?$stream_output_adapter@_W@__crt_stdio_output@@@__crt_stdio_output@@IEAA_NAEA_J@Z 0000000180063000 f i libucrtd:output.obj
 0001:00062230       ??$extract_argument_from_va_list@E_J@?$positional_parameter_base@_WV?$string_output_adapter@_W@__crt_stdio_output@@@__crt_stdio_output@@IEAA_NAEA_J@Z 0000000180063230 f i libucrtd:output.obj
 0001:00062460       ??$extract_argument_from_va_list@E_J@?$standard_base@DV?$stream_output_adapter@D@__crt_stdio_output@@@__crt_stdio_output@@IEAA_NAEA_J@Z 0000000180063460 f i libucrtd:output.obj
 0001:000624a0       ??$extract_argument_from_va_list@E_J@?$standard_base@DV?$string_output_adapter@D@__crt_stdio_output@@@__crt_stdio_output@@IEAA_NAEA_J@Z 00000001800634a0 f i libucrtd:output.obj
 0001:000624e0       ??$extract_argument_from_va_list@E_J@?$standard_base@_WV?$stream_output_adapter@_W@__crt_stdio_output@@@__crt_stdio_output@@IEAA_NAEA_J@Z 00000001800634e0 f i libucrtd:output.obj
 0001:00062520       ??$extract_argument_from_va_list@E_J@?$standard_base@_WV?$string_output_adapter@_W@__crt_stdio_output@@@__crt_stdio_output@@IEAA_NAEA_J@Z 0000000180063520 f i libucrtd:output.obj
 0001:00062560       ??$extract_argument_from_va_list@F_J@?$positional_parameter_base@DV?$stream_output_adapter@D@__crt_stdio_output@@@__crt_stdio_output@@IEAA_NAEA_J@Z 0000000180063560 f i libucrtd:output.obj
 0001:00062790       ??$extract_argument_from_va_list@F_J@?$positional_parameter_base@DV?$string_output_adapter@D@__crt_stdio_output@@@__crt_stdio_output@@IEAA_NAEA_J@Z 0000000180063790 f i libucrtd:output.obj
 0001:000629c0       ??$extract_argument_from_va_list@F_J@?$positional_parameter_base@_WV?$stream_output_adapter@_W@__crt_stdio_output@@@__crt_stdio_output@@IEAA_NAEA_J@Z 00000001800639c0 f i libucrtd:output.obj
 0001:00062bf0       ??$extract_argument_from_va_list@F_J@?$positional_parameter_base@_WV?$string_output_adapter@_W@__crt_stdio_output@@@__crt_stdio_output@@IEAA_NAEA_J@Z 0000000180063bf0 f i libucrtd:output.obj
 0001:00062e20       ??$extract_argument_from_va_list@F_J@?$standard_base@DV?$stream_output_adapter@D@__crt_stdio_output@@@__crt_stdio_output@@IEAA_NAEA_J@Z 0000000180063e20 f i libucrtd:output.obj
 0001:00062e60       ??$extract_argument_from_va_list@F_J@?$standard_base@DV?$string_output_adapter@D@__crt_stdio_output@@@__crt_stdio_output@@IEAA_NAEA_J@Z 0000000180063e60 f i libucrtd:output.obj
 0001:00062ea0       ??$extract_argument_from_va_list@F_J@?$standard_base@_WV?$stream_output_adapter@_W@__crt_stdio_output@@@__crt_stdio_output@@IEAA_NAEA_J@Z 0000000180063ea0 f i libucrtd:output.obj
 0001:00062ee0       ??$extract_argument_from_va_list@F_J@?$standard_base@_WV?$string_output_adapter@_W@__crt_stdio_output@@@__crt_stdio_output@@IEAA_NAEA_J@Z 0000000180063ee0 f i libucrtd:output.obj
 0001:00062f20       ??$extract_argument_from_va_list@GD@?$positional_parameter_base@DV?$stream_output_adapter@D@__crt_stdio_output@@@__crt_stdio_output@@IEAA_NAEAD@Z 0000000180063f20 f i libucrtd:output.obj
 0001:00063150       ??$extract_argument_from_va_list@GD@?$positional_parameter_base@DV?$string_output_adapter@D@__crt_stdio_output@@@__crt_stdio_output@@IEAA_NAEAD@Z 0000000180064150 f i libucrtd:output.obj
 0001:00063380       ??$extract_argument_from_va_list@GD@?$standard_base@DV?$stream_output_adapter@D@__crt_stdio_output@@@__crt_stdio_output@@IEAA_NAEAD@Z 0000000180064380 f i libucrtd:output.obj
 0001:000633c0       ??$extract_argument_from_va_list@GD@?$standard_base@DV?$string_output_adapter@D@__crt_stdio_output@@@__crt_stdio_output@@IEAA_NAEAD@Z 00000001800643c0 f i libucrtd:output.obj
 0001:00063400       ??$extract_argument_from_va_list@G_J@?$positional_parameter_base@DV?$stream_output_adapter@D@__crt_stdio_output@@@__crt_stdio_output@@IEAA_NAEA_J@Z 0000000180064400 f i libucrtd:output.obj
 0001:00063630       ??$extract_argument_from_va_list@G_J@?$positional_parameter_base@DV?$string_output_adapter@D@__crt_stdio_output@@@__crt_stdio_output@@IEAA_NAEA_J@Z 0000000180064630 f i libucrtd:output.obj
 0001:00063860       ??$extract_argument_from_va_list@G_J@?$positional_parameter_base@_WV?$stream_output_adapter@_W@__crt_stdio_output@@@__crt_stdio_output@@IEAA_NAEA_J@Z 0000000180064860 f i libucrtd:output.obj
 0001:00063a90       ??$extract_argument_from_va_list@G_J@?$positional_parameter_base@_WV?$string_output_adapter@_W@__crt_stdio_output@@@__crt_stdio_output@@IEAA_NAEA_J@Z 0000000180064a90 f i libucrtd:output.obj
 0001:00063cc0       ??$extract_argument_from_va_list@G_J@?$standard_base@DV?$stream_output_adapter@D@__crt_stdio_output@@@__crt_stdio_output@@IEAA_NAEA_J@Z 0000000180064cc0 f i libucrtd:output.obj
 0001:00063d00       ??$extract_argument_from_va_list@G_J@?$standard_base@DV?$string_output_adapter@D@__crt_stdio_output@@@__crt_stdio_output@@IEAA_NAEA_J@Z 0000000180064d00 f i libucrtd:output.obj
 0001:00063d40       ??$extract_argument_from_va_list@G_J@?$standard_base@_WV?$stream_output_adapter@_W@__crt_stdio_output@@@__crt_stdio_output@@IEAA_NAEA_J@Z 0000000180064d40 f i libucrtd:output.obj
 0001:00063d80       ??$extract_argument_from_va_list@G_J@?$standard_base@_WV?$string_output_adapter@_W@__crt_stdio_output@@@__crt_stdio_output@@IEAA_NAEA_J@Z 0000000180064d80 f i libucrtd:output.obj
 0001:00063dc0       ??$extract_argument_from_va_list@H_J@?$positional_parameter_base@DV?$stream_output_adapter@D@__crt_stdio_output@@@__crt_stdio_output@@IEAA_NAEA_J@Z 0000000180064dc0 f i libucrtd:output.obj
 0001:00063ff0       ??$extract_argument_from_va_list@H_J@?$positional_parameter_base@DV?$string_output_adapter@D@__crt_stdio_output@@@__crt_stdio_output@@IEAA_NAEA_J@Z 0000000180064ff0 f i libucrtd:output.obj
 0001:00064220       ??$extract_argument_from_va_list@H_J@?$positional_parameter_base@_WV?$stream_output_adapter@_W@__crt_stdio_output@@@__crt_stdio_output@@IEAA_NAEA_J@Z 0000000180065220 f i libucrtd:output.obj
 0001:00064450       ??$extract_argument_from_va_list@H_J@?$positional_parameter_base@_WV?$string_output_adapter@_W@__crt_stdio_output@@@__crt_stdio_output@@IEAA_NAEA_J@Z 0000000180065450 f i libucrtd:output.obj
 0001:00064680       ??$extract_argument_from_va_list@H_J@?$standard_base@DV?$stream_output_adapter@D@__crt_stdio_output@@@__crt_stdio_output@@IEAA_NAEA_J@Z 0000000180065680 f i libucrtd:output.obj
 0001:000646c0       ??$extract_argument_from_va_list@H_J@?$standard_base@DV?$string_output_adapter@D@__crt_stdio_output@@@__crt_stdio_output@@IEAA_NAEA_J@Z 00000001800656c0 f i libucrtd:output.obj
 0001:00064700       ??$extract_argument_from_va_list@H_J@?$standard_base@_WV?$stream_output_adapter@_W@__crt_stdio_output@@@__crt_stdio_output@@IEAA_NAEA_J@Z 0000000180065700 f i libucrtd:output.obj
 0001:00064740       ??$extract_argument_from_va_list@H_J@?$standard_base@_WV?$string_output_adapter@_W@__crt_stdio_output@@@__crt_stdio_output@@IEAA_NAEA_J@Z 0000000180065740 f i libucrtd:output.obj
 0001:00064780       ??$extract_argument_from_va_list@I_J@?$positional_parameter_base@DV?$stream_output_adapter@D@__crt_stdio_output@@@__crt_stdio_output@@IEAA_NAEA_J@Z 0000000180065780 f i libucrtd:output.obj
 0001:000649b0       ??$extract_argument_from_va_list@I_J@?$positional_parameter_base@DV?$string_output_adapter@D@__crt_stdio_output@@@__crt_stdio_output@@IEAA_NAEA_J@Z 00000001800659b0 f i libucrtd:output.obj
 0001:00064be0       ??$extract_argument_from_va_list@I_J@?$positional_parameter_base@_WV?$stream_output_adapter@_W@__crt_stdio_output@@@__crt_stdio_output@@IEAA_NAEA_J@Z 0000000180065be0 f i libucrtd:output.obj
 0001:00064e10       ??$extract_argument_from_va_list@I_J@?$positional_parameter_base@_WV?$string_output_adapter@_W@__crt_stdio_output@@@__crt_stdio_output@@IEAA_NAEA_J@Z 0000000180065e10 f i libucrtd:output.obj
 0001:00065040       ??$extract_argument_from_va_list@I_J@?$standard_base@DV?$stream_output_adapter@D@__crt_stdio_output@@@__crt_stdio_output@@IEAA_NAEA_J@Z 0000000180066040 f i libucrtd:output.obj
 0001:00065080       ??$extract_argument_from_va_list@I_J@?$standard_base@DV?$string_output_adapter@D@__crt_stdio_output@@@__crt_stdio_output@@IEAA_NAEA_J@Z 0000000180066080 f i libucrtd:output.obj
 0001:000650c0       ??$extract_argument_from_va_list@I_J@?$standard_base@_WV?$stream_output_adapter@_W@__crt_stdio_output@@@__crt_stdio_output@@IEAA_NAEA_J@Z 00000001800660c0 f i libucrtd:output.obj
 0001:00065100       ??$extract_argument_from_va_list@I_J@?$standard_base@_WV?$string_output_adapter@_W@__crt_stdio_output@@@__crt_stdio_output@@IEAA_NAEA_J@Z 0000000180066100 f i libucrtd:output.obj
 0001:00065140       ??$extract_argument_from_va_list@PEADPEAD@?$positional_parameter_base@DV?$stream_output_adapter@D@__crt_stdio_output@@@__crt_stdio_output@@IEAA_NAEAPEAD@Z 0000000180066140 f i libucrtd:output.obj
 0001:00065370       ??$extract_argument_from_va_list@PEADPEAD@?$positional_parameter_base@DV?$string_output_adapter@D@__crt_stdio_output@@@__crt_stdio_output@@IEAA_NAEAPEAD@Z 0000000180066370 f i libucrtd:output.obj
 0001:000655a0       ??$extract_argument_from_va_list@PEADPEAD@?$positional_parameter_base@_WV?$stream_output_adapter@_W@__crt_stdio_output@@@__crt_stdio_output@@IEAA_NAEAPEAD@Z 00000001800665a0 f i libucrtd:output.obj
 0001:000657d0       ??$extract_argument_from_va_list@PEADPEAD@?$positional_parameter_base@_WV?$string_output_adapter@_W@__crt_stdio_output@@@__crt_stdio_output@@IEAA_NAEAPEAD@Z 00000001800667d0 f i libucrtd:output.obj
 0001:00065a00       ??$extract_argument_from_va_list@PEADPEAD@?$standard_base@DV?$stream_output_adapter@D@__crt_stdio_output@@@__crt_stdio_output@@IEAA_NAEAPEAD@Z 0000000180066a00 f i libucrtd:output.obj
 0001:00065a40       ??$extract_argument_from_va_list@PEADPEAD@?$standard_base@DV?$string_output_adapter@D@__crt_stdio_output@@@__crt_stdio_output@@IEAA_NAEAPEAD@Z 0000000180066a40 f i libucrtd:output.obj
 0001:00065a80       ??$extract_argument_from_va_list@PEADPEAD@?$standard_base@_WV?$stream_output_adapter@_W@__crt_stdio_output@@@__crt_stdio_output@@IEAA_NAEAPEAD@Z 0000000180066a80 f i libucrtd:output.obj
 0001:00065ac0       ??$extract_argument_from_va_list@PEADPEAD@?$standard_base@_WV?$string_output_adapter@_W@__crt_stdio_output@@@__crt_stdio_output@@IEAA_NAEAPEAD@Z 0000000180066ac0 f i libucrtd:output.obj
 0001:00065b00       ??$extract_argument_from_va_list@PEAUansi_string@?1??type_case_Z@?$output_processor@DV?$stream_output_adapter@D@__crt_stdio_output@@V?$format_validation_base@DV?$stream_output_adapter@D@__crt_stdio_output@@@2@@__crt_stdio_output@@AEAA_NXZ@PEAU1?1??234@AEAA_NXZ@@?$standard_base@DV?$stream_output_adapter@D@__crt_stdio_output@@@__crt_stdio_output@@IEAA_NAEAPEAUansi_string@?1??type_case_Z@?$output_processor@DV?$stream_output_adapter@D@__crt_stdio_output@@V?$format_validation_base@DV?$stream_output_adapter@D@__crt_stdio_output@@@2@@1@AEAA_NXZ@@Z 0000000180066b00 f i libucrtd:output.obj
 0001:00065b40       ??$extract_argument_from_va_list@PEAUansi_string@?1??type_case_Z@?$output_processor@DV?$stream_output_adapter@D@__crt_stdio_output@@V?$positional_parameter_base@DV?$stream_output_adapter@D@__crt_stdio_output@@@2@@__crt_stdio_output@@AEAA_NXZ@PEAU1?1??234@AEAA_NXZ@@?$positional_parameter_base@DV?$stream_output_adapter@D@__crt_stdio_output@@@__crt_stdio_output@@IEAA_NAEAPEAUansi_string@?1??type_case_Z@?$output_processor@DV?$stream_output_adapter@D@__crt_stdio_output@@V?$positional_parameter_base@DV?$stream_output_adapter@D@__crt_stdio_output@@@2@@1@AEAA_NXZ@@Z 0000000180066b40 f i libucrtd:output.obj
 0001:00065d70       ??$extract_argument_from_va_list@PEAUansi_string@?1??type_case_Z@?$output_processor@DV?$stream_output_adapter@D@__crt_stdio_output@@V?$positional_parameter_base@DV?$stream_output_adapter@D@__crt_stdio_output@@@2@@__crt_stdio_output@@AEAA_NXZ@PEAU1?1??234@AEAA_NXZ@@?$standard_base@DV?$stream_output_adapter@D@__crt_stdio_output@@@__crt_stdio_output@@IEAA_NAEAPEAUansi_string@?1??type_case_Z@?$output_processor@DV?$stream_output_adapter@D@__crt_stdio_output@@V?$positional_parameter_base@DV?$stream_output_adapter@D@__crt_stdio_output@@@2@@1@AEAA_NXZ@@Z 0000000180066d70 f i libucrtd:output.obj
 0001:00065db0       ??$extract_argument_from_va_list@PEAUansi_string@?1??type_case_Z@?$output_processor@DV?$stream_output_adapter@D@__crt_stdio_output@@V?$standard_base@DV?$stream_output_adapter@D@__crt_stdio_output@@@2@@__crt_stdio_output@@AEAA_NXZ@PEAU1?1??234@AEAA_NXZ@@?$standard_base@DV?$stream_output_adapter@D@__crt_stdio_output@@@__crt_stdio_output@@IEAA_NAEAPEAUansi_string@?1??type_case_Z@?$output_processor@DV?$stream_output_adapter@D@__crt_stdio_output@@V?$standard_base@DV?$stream_output_adapter@D@__crt_stdio_output@@@2@@1@AEAA_NXZ@@Z 0000000180066db0 f i libucrtd:output.obj
 0001:00065df0       ??$extract_argument_from_va_list@PEAUansi_string@?1??type_case_Z@?$output_processor@DV?$string_output_adapter@D@__crt_stdio_output@@V?$format_validation_base@DV?$string_output_adapter@D@__crt_stdio_output@@@2@@__crt_stdio_output@@AEAA_NXZ@PEAU1?1??234@AEAA_NXZ@@?$standard_base@DV?$string_output_adapter@D@__crt_stdio_output@@@__crt_stdio_output@@IEAA_NAEAPEAUansi_string@?1??type_case_Z@?$output_processor@DV?$string_output_adapter@D@__crt_stdio_output@@V?$format_validation_base@DV?$string_output_adapter@D@__crt_stdio_output@@@2@@1@AEAA_NXZ@@Z 0000000180066df0 f i libucrtd:output.obj
 0001:00065e30       ??$extract_argument_from_va_list@PEAUansi_string@?1??type_case_Z@?$output_processor@DV?$string_output_adapter@D@__crt_stdio_output@@V?$positional_parameter_base@DV?$string_output_adapter@D@__crt_stdio_output@@@2@@__crt_stdio_output@@AEAA_NXZ@PEAU1?1??234@AEAA_NXZ@@?$positional_parameter_base@DV?$string_output_adapter@D@__crt_stdio_output@@@__crt_stdio_output@@IEAA_NAEAPEAUansi_string@?1??type_case_Z@?$output_processor@DV?$string_output_adapter@D@__crt_stdio_output@@V?$positional_parameter_base@DV?$string_output_adapter@D@__crt_stdio_output@@@2@@1@AEAA_NXZ@@Z 0000000180066e30 f i libucrtd:output.obj
 0001:00066060       ??$extract_argument_from_va_list@PEAUansi_string@?1??type_case_Z@?$output_processor@DV?$string_output_adapter@D@__crt_stdio_output@@V?$positional_parameter_base@DV?$string_output_adapter@D@__crt_stdio_output@@@2@@__crt_stdio_output@@AEAA_NXZ@PEAU1?1??234@AEAA_NXZ@@?$standard_base@DV?$string_output_adapter@D@__crt_stdio_output@@@__crt_stdio_output@@IEAA_NAEAPEAUansi_string@?1??type_case_Z@?$output_processor@DV?$string_output_adapter@D@__crt_stdio_output@@V?$positional_parameter_base@DV?$string_output_adapter@D@__crt_stdio_output@@@2@@1@AEAA_NXZ@@Z 0000000180067060 f i libucrtd:output.obj
 0001:000660a0       ??$extract_argument_from_va_list@PEAUansi_string@?1??type_case_Z@?$output_processor@DV?$string_output_adapter@D@__crt_stdio_output@@V?$standard_base@DV?$string_output_adapter@D@__crt_stdio_output@@@2@@__crt_stdio_output@@AEAA_NXZ@PEAU1?1??234@AEAA_NXZ@@?$standard_base@DV?$string_output_adapter@D@__crt_stdio_output@@@__crt_stdio_output@@IEAA_NAEAPEAUansi_string@?1??type_case_Z@?$output_processor@DV?$string_output_adapter@D@__crt_stdio_output@@V?$standard_base@DV?$string_output_adapter@D@__crt_stdio_output@@@2@@1@AEAA_NXZ@@Z 00000001800670a0 f i libucrtd:output.obj
 0001:000660e0       ??$extract_argument_from_va_list@PEAUansi_string@?1??type_case_Z@?$output_processor@_WV?$stream_output_adapter@_W@__crt_stdio_output@@V?$format_validation_base@_WV?$stream_output_adapter@_W@__crt_stdio_output@@@2@@__crt_stdio_output@@AEAA_NXZ@PEAU1?1??234@AEAA_NXZ@@?$standard_base@_WV?$stream_output_adapter@_W@__crt_stdio_output@@@__crt_stdio_output@@IEAA_NAEAPEAUansi_string@?1??type_case_Z@?$output_processor@_WV?$stream_output_adapter@_W@__crt_stdio_output@@V?$format_validation_base@_WV?$stream_output_adapter@_W@__crt_stdio_output@@@2@@1@AEAA_NXZ@@Z 00000001800670e0 f i libucrtd:output.obj
 0001:00066120       ??$extract_argument_from_va_list@PEAUansi_string@?1??type_case_Z@?$output_processor@_WV?$stream_output_adapter@_W@__crt_stdio_output@@V?$positional_parameter_base@_WV?$stream_output_adapter@_W@__crt_stdio_output@@@2@@__crt_stdio_output@@AEAA_NXZ@PEAU1?1??234@AEAA_NXZ@@?$positional_parameter_base@_WV?$stream_output_adapter@_W@__crt_stdio_output@@@__crt_stdio_output@@IEAA_NAEAPEAUansi_string@?1??type_case_Z@?$output_processor@_WV?$stream_output_adapter@_W@__crt_stdio_output@@V?$positional_parameter_base@_WV?$stream_output_adapter@_W@__crt_stdio_output@@@2@@1@AEAA_NXZ@@Z 0000000180067120 f i libucrtd:output.obj
 0001:00066350       ??$extract_argument_from_va_list@PEAUansi_string@?1??type_case_Z@?$output_processor@_WV?$stream_output_adapter@_W@__crt_stdio_output@@V?$positional_parameter_base@_WV?$stream_output_adapter@_W@__crt_stdio_output@@@2@@__crt_stdio_output@@AEAA_NXZ@PEAU1?1??234@AEAA_NXZ@@?$standard_base@_WV?$stream_output_adapter@_W@__crt_stdio_output@@@__crt_stdio_output@@IEAA_NAEAPEAUansi_string@?1??type_case_Z@?$output_processor@_WV?$stream_output_adapter@_W@__crt_stdio_output@@V?$positional_parameter_base@_WV?$stream_output_adapter@_W@__crt_stdio_output@@@2@@1@AEAA_NXZ@@Z 0000000180067350 f i libucrtd:output.obj
 0001:00066390       ??$extract_argument_from_va_list@PEAUansi_string@?1??type_case_Z@?$output_processor@_WV?$stream_output_adapter@_W@__crt_stdio_output@@V?$standard_base@_WV?$stream_output_adapter@_W@__crt_stdio_output@@@2@@__crt_stdio_output@@AEAA_NXZ@PEAU1?1??234@AEAA_NXZ@@?$standard_base@_WV?$stream_output_adapter@_W@__crt_stdio_output@@@__crt_stdio_output@@IEAA_NAEAPEAUansi_string@?1??type_case_Z@?$output_processor@_WV?$stream_output_adapter@_W@__crt_stdio_output@@V?$standard_base@_WV?$stream_output_adapter@_W@__crt_stdio_output@@@2@@1@AEAA_NXZ@@Z 0000000180067390 f i libucrtd:output.obj
 0001:000663d0       ??$extract_argument_from_va_list@PEAUansi_string@?1??type_case_Z@?$output_processor@_WV?$string_output_adapter@_W@__crt_stdio_output@@V?$format_validation_base@_WV?$string_output_adapter@_W@__crt_stdio_output@@@2@@__crt_stdio_output@@AEAA_NXZ@PEAU1?1??234@AEAA_NXZ@@?$standard_base@_WV?$string_output_adapter@_W@__crt_stdio_output@@@__crt_stdio_output@@IEAA_NAEAPEAUansi_string@?1??type_case_Z@?$output_processor@_WV?$string_output_adapter@_W@__crt_stdio_output@@V?$format_validation_base@_WV?$string_output_adapter@_W@__crt_stdio_output@@@2@@1@AEAA_NXZ@@Z 00000001800673d0 f i libucrtd:output.obj
 0001:00066410       ??$extract_argument_from_va_list@PEAUansi_string@?1??type_case_Z@?$output_processor@_WV?$string_output_adapter@_W@__crt_stdio_output@@V?$positional_parameter_base@_WV?$string_output_adapter@_W@__crt_stdio_output@@@2@@__crt_stdio_output@@AEAA_NXZ@PEAU1?1??234@AEAA_NXZ@@?$positional_parameter_base@_WV?$string_output_adapter@_W@__crt_stdio_output@@@__crt_stdio_output@@IEAA_NAEAPEAUansi_string@?1??type_case_Z@?$output_processor@_WV?$string_output_adapter@_W@__crt_stdio_output@@V?$positional_parameter_base@_WV?$string_output_adapter@_W@__crt_stdio_output@@@2@@1@AEAA_NXZ@@Z 0000000180067410 f i libucrtd:output.obj
 0001:00066640       ??$extract_argument_from_va_list@PEAUansi_string@?1??type_case_Z@?$output_processor@_WV?$string_output_adapter@_W@__crt_stdio_output@@V?$positional_parameter_base@_WV?$string_output_adapter@_W@__crt_stdio_output@@@2@@__crt_stdio_output@@AEAA_NXZ@PEAU1?1??234@AEAA_NXZ@@?$standard_base@_WV?$string_output_adapter@_W@__crt_stdio_output@@@__crt_stdio_output@@IEAA_NAEAPEAUansi_string@?1??type_case_Z@?$output_processor@_WV?$string_output_adapter@_W@__crt_stdio_output@@V?$positional_parameter_base@_WV?$string_output_adapter@_W@__crt_stdio_output@@@2@@1@AEAA_NXZ@@Z 0000000180067640 f i libucrtd:output.obj
 0001:00066680       ??$extract_argument_from_va_list@PEAUansi_string@?1??type_case_Z@?$output_processor@_WV?$string_output_adapter@_W@__crt_stdio_output@@V?$standard_base@_WV?$string_output_adapter@_W@__crt_stdio_output@@@2@@__crt_stdio_output@@AEAA_NXZ@PEAU1?1??234@AEAA_NXZ@@?$standard_base@_WV?$string_output_adapter@_W@__crt_stdio_output@@@__crt_stdio_output@@IEAA_NAEAPEAUansi_string@?1??type_case_Z@?$output_processor@_WV?$string_output_adapter@_W@__crt_stdio_output@@V?$standard_base@_WV?$string_output_adapter@_W@__crt_stdio_output@@@2@@1@AEAA_NXZ@@Z 0000000180067680 f i libucrtd:output.obj
 0001:000666c0       ??$extract_argument_from_va_list@PEAXPEAX@?$positional_parameter_base@DV?$stream_output_adapter@D@__crt_stdio_output@@@__crt_stdio_output@@IEAA_NAEAPEAX@Z 00000001800676c0 f i libucrtd:output.obj
 0001:000668f0       ??$extract_argument_from_va_list@PEAXPEAX@?$positional_parameter_base@DV?$string_output_adapter@D@__crt_stdio_output@@@__crt_stdio_output@@IEAA_NAEAPEAX@Z 00000001800678f0 f i libucrtd:output.obj
 0001:00066b20       ??$extract_argument_from_va_list@PEAXPEAX@?$positional_parameter_base@_WV?$stream_output_adapter@_W@__crt_stdio_output@@@__crt_stdio_output@@IEAA_NAEAPEAX@Z 0000000180067b20 f i libucrtd:output.obj
 0001:00066d50       ??$extract_argument_from_va_list@PEAXPEAX@?$positional_parameter_base@_WV?$string_output_adapter@_W@__crt_stdio_output@@@__crt_stdio_output@@IEAA_NAEAPEAX@Z 0000000180067d50 f i libucrtd:output.obj
 0001:00066f80       ??$extract_argument_from_va_list@PEAXPEAX@?$standard_base@DV?$stream_output_adapter@D@__crt_stdio_output@@@__crt_stdio_output@@IEAA_NAEAPEAX@Z 0000000180067f80 f i libucrtd:output.obj
 0001:00066fc0       ??$extract_argument_from_va_list@PEAXPEAX@?$standard_base@DV?$string_output_adapter@D@__crt_stdio_output@@@__crt_stdio_output@@IEAA_NAEAPEAX@Z 0000000180067fc0 f i libucrtd:output.obj
 0001:00067000       ??$extract_argument_from_va_list@PEAXPEAX@?$standard_base@_WV?$stream_output_adapter@_W@__crt_stdio_output@@@__crt_stdio_output@@IEAA_NAEAPEAX@Z 0000000180068000 f i libucrtd:output.obj
 0001:00067040       ??$extract_argument_from_va_list@PEAXPEAX@?$standard_base@_WV?$string_output_adapter@_W@__crt_stdio_output@@@__crt_stdio_output@@IEAA_NAEAPEAX@Z 0000000180068040 f i libucrtd:output.obj
 0001:00067080       ??$extract_argument_from_va_list@U_CRT_DOUBLE@@U1@@?$positional_parameter_base@DV?$stream_output_adapter@D@__crt_stdio_output@@@__crt_stdio_output@@IEAA_NAEAU_CRT_DOUBLE@@@Z 0000000180068080 f i libucrtd:output.obj
 0001:00067320       ??$extract_argument_from_va_list@U_CRT_DOUBLE@@U1@@?$positional_parameter_base@DV?$string_output_adapter@D@__crt_stdio_output@@@__crt_stdio_output@@IEAA_NAEAU_CRT_DOUBLE@@@Z 0000000180068320 f i libucrtd:output.obj
 0001:000675c0       ??$extract_argument_from_va_list@U_CRT_DOUBLE@@U1@@?$positional_parameter_base@_WV?$stream_output_adapter@_W@__crt_stdio_output@@@__crt_stdio_output@@IEAA_NAEAU_CRT_DOUBLE@@@Z 00000001800685c0 f i libucrtd:output.obj
 0001:00067860       ??$extract_argument_from_va_list@U_CRT_DOUBLE@@U1@@?$positional_parameter_base@_WV?$string_output_adapter@_W@__crt_stdio_output@@@__crt_stdio_output@@IEAA_NAEAU_CRT_DOUBLE@@@Z 0000000180068860 f i libucrtd:output.obj
 0001:00067b00       ??$extract_argument_from_va_list@U_CRT_DOUBLE@@U1@@?$standard_base@DV?$stream_output_adapter@D@__crt_stdio_output@@@__crt_stdio_output@@IEAA_NAEAU_CRT_DOUBLE@@@Z 0000000180068b00 f i libucrtd:output.obj
 0001:00067b60       ??$extract_argument_from_va_list@U_CRT_DOUBLE@@U1@@?$standard_base@DV?$string_output_adapter@D@__crt_stdio_output@@@__crt_stdio_output@@IEAA_NAEAU_CRT_DOUBLE@@@Z 0000000180068b60 f i libucrtd:output.obj
 0001:00067bc0       ??$extract_argument_from_va_list@U_CRT_DOUBLE@@U1@@?$standard_base@_WV?$stream_output_adapter@_W@__crt_stdio_output@@@__crt_stdio_output@@IEAA_NAEAU_CRT_DOUBLE@@@Z 0000000180068bc0 f i libucrtd:output.obj
 0001:00067c20       ??$extract_argument_from_va_list@U_CRT_DOUBLE@@U1@@?$standard_base@_WV?$string_output_adapter@_W@__crt_stdio_output@@@__crt_stdio_output@@IEAA_NAEAU_CRT_DOUBLE@@@Z 0000000180068c20 f i libucrtd:output.obj
 0001:00067c80       ??$extract_argument_from_va_list@_J_J@?$positional_parameter_base@DV?$stream_output_adapter@D@__crt_stdio_output@@@__crt_stdio_output@@IEAA_NAEA_J@Z 0000000180068c80 f i libucrtd:output.obj
 0001:00067eb0       ??$extract_argument_from_va_list@_J_J@?$positional_parameter_base@DV?$string_output_adapter@D@__crt_stdio_output@@@__crt_stdio_output@@IEAA_NAEA_J@Z 0000000180068eb0 f i libucrtd:output.obj
 0001:000680e0       ??$extract_argument_from_va_list@_J_J@?$positional_parameter_base@_WV?$stream_output_adapter@_W@__crt_stdio_output@@@__crt_stdio_output@@IEAA_NAEA_J@Z 00000001800690e0 f i libucrtd:output.obj
 0001:00068310       ??$extract_argument_from_va_list@_J_J@?$positional_parameter_base@_WV?$string_output_adapter@_W@__crt_stdio_output@@@__crt_stdio_output@@IEAA_NAEA_J@Z 0000000180069310 f i libucrtd:output.obj
 0001:00068540       ??$extract_argument_from_va_list@_J_J@?$standard_base@DV?$stream_output_adapter@D@__crt_stdio_output@@@__crt_stdio_output@@IEAA_NAEA_J@Z 0000000180069540 f i libucrtd:output.obj
 0001:00068580       ??$extract_argument_from_va_list@_J_J@?$standard_base@DV?$string_output_adapter@D@__crt_stdio_output@@@__crt_stdio_output@@IEAA_NAEA_J@Z 0000000180069580 f i libucrtd:output.obj
 0001:000685c0       ??$extract_argument_from_va_list@_J_J@?$standard_base@_WV?$stream_output_adapter@_W@__crt_stdio_output@@@__crt_stdio_output@@IEAA_NAEA_J@Z 00000001800695c0 f i libucrtd:output.obj
 0001:00068600       ??$extract_argument_from_va_list@_J_J@?$standard_base@_WV?$string_output_adapter@_W@__crt_stdio_output@@@__crt_stdio_output@@IEAA_NAEA_J@Z 0000000180069600 f i libucrtd:output.obj
 0001:00068640       ??$extract_argument_from_va_list@_K_J@?$positional_parameter_base@DV?$stream_output_adapter@D@__crt_stdio_output@@@__crt_stdio_output@@IEAA_NAEA_J@Z 0000000180069640 f i libucrtd:output.obj
 0001:00068870       ??$extract_argument_from_va_list@_K_J@?$positional_parameter_base@DV?$string_output_adapter@D@__crt_stdio_output@@@__crt_stdio_output@@IEAA_NAEA_J@Z 0000000180069870 f i libucrtd:output.obj
 0001:00068aa0       ??$extract_argument_from_va_list@_K_J@?$positional_parameter_base@_WV?$stream_output_adapter@_W@__crt_stdio_output@@@__crt_stdio_output@@IEAA_NAEA_J@Z 0000000180069aa0 f i libucrtd:output.obj
 0001:00068cd0       ??$extract_argument_from_va_list@_K_J@?$positional_parameter_base@_WV?$string_output_adapter@_W@__crt_stdio_output@@@__crt_stdio_output@@IEAA_NAEA_J@Z 0000000180069cd0 f i libucrtd:output.obj
 0001:00068f00       ??$extract_argument_from_va_list@_K_J@?$standard_base@DV?$stream_output_adapter@D@__crt_stdio_output@@@__crt_stdio_output@@IEAA_NAEA_J@Z 0000000180069f00 f i libucrtd:output.obj
 0001:00068f40       ??$extract_argument_from_va_list@_K_J@?$standard_base@DV?$string_output_adapter@D@__crt_stdio_output@@@__crt_stdio_output@@IEAA_NAEA_J@Z 0000000180069f40 f i libucrtd:output.obj
 0001:00068f80       ??$extract_argument_from_va_list@_K_J@?$standard_base@_WV?$stream_output_adapter@_W@__crt_stdio_output@@@__crt_stdio_output@@IEAA_NAEA_J@Z 0000000180069f80 f i libucrtd:output.obj
 0001:00068fc0       ??$extract_argument_from_va_list@_K_J@?$standard_base@_WV?$string_output_adapter@_W@__crt_stdio_output@@@__crt_stdio_output@@IEAA_NAEA_J@Z 0000000180069fc0 f i libucrtd:output.obj
 0001:00069000       ??$extract_argument_from_va_list@_W_W@?$positional_parameter_base@DV?$stream_output_adapter@D@__crt_stdio_output@@@__crt_stdio_output@@IEAA_NAEA_W@Z 000000018006a000 f i libucrtd:output.obj
 0001:00069230       ??$extract_argument_from_va_list@_W_W@?$positional_parameter_base@DV?$string_output_adapter@D@__crt_stdio_output@@@__crt_stdio_output@@IEAA_NAEA_W@Z 000000018006a230 f i libucrtd:output.obj
 0001:00069460       ??$extract_argument_from_va_list@_W_W@?$positional_parameter_base@_WV?$stream_output_adapter@_W@__crt_stdio_output@@@__crt_stdio_output@@IEAA_NAEA_W@Z 000000018006a460 f i libucrtd:output.obj
 0001:00069690       ??$extract_argument_from_va_list@_W_W@?$positional_parameter_base@_WV?$string_output_adapter@_W@__crt_stdio_output@@@__crt_stdio_output@@IEAA_NAEA_W@Z 000000018006a690 f i libucrtd:output.obj
 0001:000698c0       ??$extract_argument_from_va_list@_W_W@?$standard_base@DV?$stream_output_adapter@D@__crt_stdio_output@@@__crt_stdio_output@@IEAA_NAEA_W@Z 000000018006a8c0 f i libucrtd:output.obj
 0001:00069900       ??$extract_argument_from_va_list@_W_W@?$standard_base@DV?$string_output_adapter@D@__crt_stdio_output@@@__crt_stdio_output@@IEAA_NAEA_W@Z 000000018006a900 f i libucrtd:output.obj
 0001:00069940       ??$extract_argument_from_va_list@_W_W@?$standard_base@_WV?$stream_output_adapter@_W@__crt_stdio_output@@@__crt_stdio_output@@IEAA_NAEA_W@Z 000000018006a940 f i libucrtd:output.obj
 0001:00069980       ??$extract_argument_from_va_list@_W_W@?$standard_base@_WV?$string_output_adapter@_W@__crt_stdio_output@@@__crt_stdio_output@@IEAA_NAEA_W@Z 000000018006a980 f i libucrtd:output.obj
 0001:000699c0       ??$get_parameter_type@D@?$positional_parameter_base@DV?$stream_output_adapter@D@__crt_stdio_output@@@__crt_stdio_output@@CA?AW4parameter_type@01@PEAD@Z 000000018006a9c0 f i libucrtd:output.obj
 0001:000699d0       ??$get_parameter_type@D@?$positional_parameter_base@DV?$string_output_adapter@D@__crt_stdio_output@@@__crt_stdio_output@@CA?AW4parameter_type@01@PEAD@Z 000000018006a9d0 f i libucrtd:output.obj
 0001:000699e0       ??$get_parameter_type@D@?$positional_parameter_base@_WV?$stream_output_adapter@_W@__crt_stdio_output@@@__crt_stdio_output@@CA?AW4parameter_type@01@PEAD@Z 000000018006a9e0 f i libucrtd:output.obj
 0001:000699f0       ??$get_parameter_type@D@?$positional_parameter_base@_WV?$string_output_adapter@_W@__crt_stdio_output@@@__crt_stdio_output@@CA?AW4parameter_type@01@PEAD@Z 000000018006a9f0 f i libucrtd:output.obj
 0001:00069a00       ??$get_parameter_type@Uansi_string@?1??type_case_Z@?$output_processor@DV?$stream_output_adapter@D@__crt_stdio_output@@V?$positional_parameter_base@DV?$stream_output_adapter@D@__crt_stdio_output@@@2@@__crt_stdio_output@@AEAA_NXZ@@?$positional_parameter_base@DV?$stream_output_adapter@D@__crt_stdio_output@@@__crt_stdio_output@@CA?AW4parameter_type@01@PEAUansi_string@?1??type_case_Z@?$output_processor@DV?$stream_output_adapter@D@__crt_stdio_output@@V?$positional_parameter_base@DV?$stream_output_adapter@D@__crt_stdio_output@@@2@@1@AEAA_NXZ@@Z 000000018006aa00 f i libucrtd:output.obj
 0001:00069a10       ??$get_parameter_type@Uansi_string@?1??type_case_Z@?$output_processor@DV?$string_output_adapter@D@__crt_stdio_output@@V?$positional_parameter_base@DV?$string_output_adapter@D@__crt_stdio_output@@@2@@__crt_stdio_output@@AEAA_NXZ@@?$positional_parameter_base@DV?$string_output_adapter@D@__crt_stdio_output@@@__crt_stdio_output@@CA?AW4parameter_type@01@PEAUansi_string@?1??type_case_Z@?$output_processor@DV?$string_output_adapter@D@__crt_stdio_output@@V?$positional_parameter_base@DV?$string_output_adapter@D@__crt_stdio_output@@@2@@1@AEAA_NXZ@@Z 000000018006aa10 f i libucrtd:output.obj
 0001:00069a20       ??$get_parameter_type@Uansi_string@?1??type_case_Z@?$output_processor@_WV?$stream_output_adapter@_W@__crt_stdio_output@@V?$positional_parameter_base@_WV?$stream_output_adapter@_W@__crt_stdio_output@@@2@@__crt_stdio_output@@AEAA_NXZ@@?$positional_parameter_base@_WV?$stream_output_adapter@_W@__crt_stdio_output@@@__crt_stdio_output@@CA?AW4parameter_type@01@PEAUansi_string@?1??type_case_Z@?$output_processor@_WV?$stream_output_adapter@_W@__crt_stdio_output@@V?$positional_parameter_base@_WV?$stream_output_adapter@_W@__crt_stdio_output@@@2@@1@AEAA_NXZ@@Z 000000018006aa20 f i libucrtd:output.obj
 0001:00069a30       ??$get_parameter_type@Uansi_string@?1??type_case_Z@?$output_processor@_WV?$string_output_adapter@_W@__crt_stdio_output@@V?$positional_parameter_base@_WV?$string_output_adapter@_W@__crt_stdio_output@@@2@@__crt_stdio_output@@AEAA_NXZ@@?$positional_parameter_base@_WV?$string_output_adapter@_W@__crt_stdio_output@@@__crt_stdio_output@@CA?AW4parameter_type@01@PEAUansi_string@?1??type_case_Z@?$output_processor@_WV?$string_output_adapter@_W@__crt_stdio_output@@V?$positional_parameter_base@_WV?$string_output_adapter@_W@__crt_stdio_output@@@2@@1@AEAA_NXZ@@Z 000000018006aa30 f i libucrtd:output.obj
 0001:00069a40       ??$get_parameter_type@X@?$positional_parameter_base@DV?$stream_output_adapter@D@__crt_stdio_output@@@__crt_stdio_output@@CA?AW4parameter_type@01@PEAX@Z 000000018006aa40 f i libucrtd:output.obj
 0001:00069a50       ??$get_parameter_type@X@?$positional_parameter_base@DV?$string_output_adapter@D@__crt_stdio_output@@@__crt_stdio_output@@CA?AW4parameter_type@01@PEAX@Z 000000018006aa50 f i libucrtd:output.obj
 0001:00069a60       ??$get_parameter_type@X@?$positional_parameter_base@_WV?$stream_output_adapter@_W@__crt_stdio_output@@@__crt_stdio_output@@CA?AW4parameter_type@01@PEAX@Z 000000018006aa60 f i libucrtd:output.obj
 0001:00069a70       ??$get_parameter_type@X@?$positional_parameter_base@_WV?$string_output_adapter@_W@__crt_stdio_output@@@__crt_stdio_output@@CA?AW4parameter_type@01@PEAX@Z 000000018006aa70 f i libucrtd:output.obj
 0001:00069a80       ??$is_character_specifier@D@?$positional_parameter_base@DV?$stream_output_adapter@D@__crt_stdio_output@@@__crt_stdio_output@@CA_ND@Z 000000018006aa80 f i libucrtd:output.obj
 0001:00069ad0       ??$is_character_specifier@D@?$positional_parameter_base@DV?$string_output_adapter@D@__crt_stdio_output@@@__crt_stdio_output@@CA_ND@Z 000000018006aad0 f i libucrtd:output.obj
 0001:00069b20       ??$is_character_specifier@_W@?$positional_parameter_base@_WV?$stream_output_adapter@_W@__crt_stdio_output@@@__crt_stdio_output@@CA_N_W@Z 000000018006ab20 f i libucrtd:output.obj
 0001:00069b70       ??$is_character_specifier@_W@?$positional_parameter_base@_WV?$string_output_adapter@_W@__crt_stdio_output@@@__crt_stdio_output@@CA_N_W@Z 000000018006ab70 f i libucrtd:output.obj
 0001:00069bc0       ??$is_integral_specifier@D@?$positional_parameter_base@DV?$stream_output_adapter@D@__crt_stdio_output@@@__crt_stdio_output@@CA_ND@Z 000000018006abc0 f i libucrtd:output.obj
 0001:00069c40       ??$is_integral_specifier@D@?$positional_parameter_base@DV?$string_output_adapter@D@__crt_stdio_output@@@__crt_stdio_output@@CA_ND@Z 000000018006ac40 f i libucrtd:output.obj
 0001:00069cc0       ??$is_integral_specifier@_W@?$positional_parameter_base@_WV?$stream_output_adapter@_W@__crt_stdio_output@@@__crt_stdio_output@@CA_N_W@Z 000000018006acc0 f i libucrtd:output.obj
 0001:00069d50       ??$is_integral_specifier@_W@?$positional_parameter_base@_WV?$string_output_adapter@_W@__crt_stdio_output@@@__crt_stdio_output@@CA_N_W@Z 000000018006ad50 f i libucrtd:output.obj
 0001:00069de0       ??$is_overflow_condition@K@__crt_strtox@@YA_NIK@Z 000000018006ade0 f i libucrtd:output.obj
 0001:00069e60       ??$is_pointer_specifier@D@?$positional_parameter_base@DV?$stream_output_adapter@D@__crt_stdio_output@@@__crt_stdio_output@@CA_ND@Z 000000018006ae60 f i libucrtd:output.obj
 0001:00069ea0       ??$is_pointer_specifier@D@?$positional_parameter_base@DV?$string_output_adapter@D@__crt_stdio_output@@@__crt_stdio_output@@CA_ND@Z 000000018006aea0 f i libucrtd:output.obj
 0001:00069ee0       ??$is_pointer_specifier@_W@?$positional_parameter_base@_WV?$stream_output_adapter@_W@__crt_stdio_output@@@__crt_stdio_output@@CA_N_W@Z 000000018006aee0 f i libucrtd:output.obj
 0001:00069f20       ??$is_pointer_specifier@_W@?$positional_parameter_base@_WV?$string_output_adapter@_W@__crt_stdio_output@@@__crt_stdio_output@@CA_N_W@Z 000000018006af20 f i libucrtd:output.obj
 0001:00069f60       ??$is_string_specifier@D@?$positional_parameter_base@DV?$stream_output_adapter@D@__crt_stdio_output@@@__crt_stdio_output@@CA_ND@Z 000000018006af60 f i libucrtd:output.obj
 0001:00069fb0       ??$is_string_specifier@D@?$positional_parameter_base@DV?$string_output_adapter@D@__crt_stdio_output@@@__crt_stdio_output@@CA_ND@Z 000000018006afb0 f i libucrtd:output.obj
 0001:0006a000       ??$is_string_specifier@_W@?$positional_parameter_base@_WV?$stream_output_adapter@_W@__crt_stdio_output@@@__crt_stdio_output@@CA_N_W@Z 000000018006b000 f i libucrtd:output.obj
 0001:0006a050       ??$is_string_specifier@_W@?$positional_parameter_base@_WV?$string_output_adapter@_W@__crt_stdio_output@@@__crt_stdio_output@@CA_N_W@Z 000000018006b050 f i libucrtd:output.obj
 0001:0006a0a0       ??$is_wide_character_specifier@D@__crt_stdio_output@@YA_N_KDW4length_modifier@0@@Z 000000018006b0a0 f i libucrtd:output.obj
 0001:0006a160       ??$is_wide_character_specifier@_W@__crt_stdio_output@@YA_N_K_WW4length_modifier@0@@Z 000000018006b160 f i libucrtd:output.obj
 0001:0006a260       ??$make_c_string_character_source@DPEAPEAD@__crt_strtox@@YA?AV?$c_string_character_source@D@0@QEBDQEAPEAD@Z 000000018006b260 f i libucrtd:output.obj
 0001:0006a2a0       ??$make_c_string_character_source@_WPEAPEA_W@__crt_strtox@@YA?AV?$c_string_character_source@_W@0@QEB_WQEAPEA_W@Z 000000018006b2a0 f i libucrtd:output.obj
 0001:0006a2e0       ??$parse_integer@KV?$c_string_character_source@D@__crt_strtox@@$0A@@__crt_strtox@@YAKAEAV__crt_cached_ptd_host@@V?$c_string_character_source@D@0@H_N@Z 000000018006b2e0 f i libucrtd:output.obj
 0001:0006a880       ??$parse_integer@KV?$c_string_character_source@_W@__crt_strtox@@$0A@@__crt_strtox@@YAKAEAV__crt_cached_ptd_host@@V?$c_string_character_source@_W@0@H_N@Z 000000018006b880 f i libucrtd:output.obj
 0001:0006ae20       ??$peek_va_arg@C@__crt_stdio_output@@YACPEAD@Z 000000018006be20 f i libucrtd:output.obj
 0001:0006ae90       ??$peek_va_arg@E@__crt_stdio_output@@YAEPEAD@Z 000000018006be90 f i libucrtd:output.obj
 0001:0006af00       ??$peek_va_arg@F@__crt_stdio_output@@YAFPEAD@Z 000000018006bf00 f i libucrtd:output.obj
 0001:0006af70       ??$peek_va_arg@G@__crt_stdio_output@@YAGPEAD@Z 000000018006bf70 f i libucrtd:output.obj
 0001:0006afe0       ??$peek_va_arg@H@__crt_stdio_output@@YAHPEAD@Z 000000018006bfe0 f i libucrtd:output.obj
 0001:0006b050       ??$peek_va_arg@I@__crt_stdio_output@@YAIPEAD@Z 000000018006c050 f i libucrtd:output.obj
 0001:0006b0c0       ??$peek_va_arg@PEAD@__crt_stdio_output@@YAPEADPEAD@Z 000000018006c0c0 f i libucrtd:output.obj
 0001:0006b130       ??$peek_va_arg@PEAUansi_string@?1??type_case_Z@?$output_processor@DV?$stream_output_adapter@D@__crt_stdio_output@@V?$positional_parameter_base@DV?$stream_output_adapter@D@__crt_stdio_output@@@2@@__crt_stdio_output@@AEAA_NXZ@@__crt_stdio_output@@YAPEAUansi_string@?1??type_case_Z@?$output_processor@DV?$stream_output_adapter@D@__crt_stdio_output@@V?$positional_parameter_base@DV?$stream_output_adapter@D@__crt_stdio_output@@@2@@0@AEAA_NXZ@PEAD@Z 000000018006c130 f i libucrtd:output.obj
 0001:0006b1a0       ??$peek_va_arg@PEAUansi_string@?1??type_case_Z@?$output_processor@DV?$string_output_adapter@D@__crt_stdio_output@@V?$positional_parameter_base@DV?$string_output_adapter@D@__crt_stdio_output@@@2@@__crt_stdio_output@@AEAA_NXZ@@__crt_stdio_output@@YAPEAUansi_string@?1??type_case_Z@?$output_processor@DV?$string_output_adapter@D@__crt_stdio_output@@V?$positional_parameter_base@DV?$string_output_adapter@D@__crt_stdio_output@@@2@@0@AEAA_NXZ@PEAD@Z 000000018006c1a0 f i libucrtd:output.obj
 0001:0006b210       ??$peek_va_arg@PEAUansi_string@?1??type_case_Z@?$output_processor@_WV?$stream_output_adapter@_W@__crt_stdio_output@@V?$positional_parameter_base@_WV?$stream_output_adapter@_W@__crt_stdio_output@@@2@@__crt_stdio_output@@AEAA_NXZ@@__crt_stdio_output@@YAPEAUansi_string@?1??type_case_Z@?$output_processor@_WV?$stream_output_adapter@_W@__crt_stdio_output@@V?$positional_parameter_base@_WV?$stream_output_adapter@_W@__crt_stdio_output@@@2@@0@AEAA_NXZ@PEAD@Z 000000018006c210 f i libucrtd:output.obj
 0001:0006b280       ??$peek_va_arg@PEAUansi_string@?1??type_case_Z@?$output_processor@_WV?$string_output_adapter@_W@__crt_stdio_output@@V?$positional_parameter_base@_WV?$string_output_adapter@_W@__crt_stdio_output@@@2@@__crt_stdio_output@@AEAA_NXZ@@__crt_stdio_output@@YAPEAUansi_string@?1??type_case_Z@?$output_processor@_WV?$string_output_adapter@_W@__crt_stdio_output@@V?$positional_parameter_base@_WV?$string_output_adapter@_W@__crt_stdio_output@@@2@@0@AEAA_NXZ@PEAD@Z 000000018006c280 f i libucrtd:output.obj
 0001:0006b2f0       ??$peek_va_arg@PEAX@__crt_stdio_output@@YAPEAXPEAD@Z 000000018006c2f0 f i libucrtd:output.obj
 0001:0006b360       ??$peek_va_arg@U_CRT_DOUBLE@@@__crt_stdio_output@@YA?AU_CRT_DOUBLE@@PEAD@Z 000000018006c360 f i libucrtd:output.obj
 0001:0006b3d0       ??$peek_va_arg@_J@__crt_stdio_output@@YA_JPEAD@Z 000000018006c3d0 f i libucrtd:output.obj
 0001:0006b440       ??$peek_va_arg@_K@__crt_stdio_output@@YA_KPEAD@Z 000000018006c440 f i libucrtd:output.obj
 0001:0006b4b0       ??$peek_va_arg@_W@__crt_stdio_output@@YA_WPEAD@Z 000000018006c4b0 f i libucrtd:output.obj
 0001:0006b520       ??$puttc_nolock_internal@AEBDPEAU_iobuf@@AEAV__crt_cached_ptd_host@@@?$__crt_char_traits@D@@SAHAEBD$$QEAPEAU_iobuf@@AEAV__crt_cached_ptd_host@@@Z 000000018006c520 f i libucrtd:output.obj
 0001:0006b570       ??$puttc_nolock_internal@AEB_WPEAU_iobuf@@AEAV__crt_cached_ptd_host@@@?$__crt_char_traits@_W@@SAGAEB_W$$QEAPEAU_iobuf@@AEAV__crt_cached_ptd_host@@@Z 000000018006c570 f i libucrtd:output.obj
 0001:0006b5b0       ??$read_va_arg@C@__crt_stdio_output@@YACAEAPEAD@Z 000000018006c5b0 f i libucrtd:output.obj
 0001:0006b630       ??$read_va_arg@E@__crt_stdio_output@@YAEAEAPEAD@Z 000000018006c630 f i libucrtd:output.obj
 0001:0006b6b0       ??$read_va_arg@F@__crt_stdio_output@@YAFAEAPEAD@Z 000000018006c6b0 f i libucrtd:output.obj
 0001:0006b730       ??$read_va_arg@G@__crt_stdio_output@@YAGAEAPEAD@Z 000000018006c730 f i libucrtd:output.obj
 0001:0006b7b0       ??$read_va_arg@H@__crt_stdio_output@@YAHAEAPEAD@Z 000000018006c7b0 f i libucrtd:output.obj
 0001:0006b830       ??$read_va_arg@I@__crt_stdio_output@@YAIAEAPEAD@Z 000000018006c830 f i libucrtd:output.obj
 0001:0006b8b0       ??$read_va_arg@PEAD@__crt_stdio_output@@YAPEADAEAPEAD@Z 000000018006c8b0 f i libucrtd:output.obj
 0001:0006b930       ??$read_va_arg@PEAUansi_string@?1??type_case_Z@?$output_processor@DV?$stream_output_adapter@D@__crt_stdio_output@@V?$format_validation_base@DV?$stream_output_adapter@D@__crt_stdio_output@@@2@@__crt_stdio_output@@AEAA_NXZ@@__crt_stdio_output@@YAPEAUansi_string@?1??type_case_Z@?$output_processor@DV?$stream_output_adapter@D@__crt_stdio_output@@V?$format_validation_base@DV?$stream_output_adapter@D@__crt_stdio_output@@@2@@0@AEAA_NXZ@AEAPEAD@Z 000000018006c930 f i libucrtd:output.obj
 0001:0006b9b0       ??$read_va_arg@PEAUansi_string@?1??type_case_Z@?$output_processor@DV?$stream_output_adapter@D@__crt_stdio_output@@V?$positional_parameter_base@DV?$stream_output_adapter@D@__crt_stdio_output@@@2@@__crt_stdio_output@@AEAA_NXZ@@__crt_stdio_output@@YAPEAUansi_string@?1??type_case_Z@?$output_processor@DV?$stream_output_adapter@D@__crt_stdio_output@@V?$positional_parameter_base@DV?$stream_output_adapter@D@__crt_stdio_output@@@2@@0@AEAA_NXZ@AEAPEAD@Z 000000018006c9b0 f i libucrtd:output.obj
 0001:0006ba30       ??$read_va_arg@PEAUansi_string@?1??type_case_Z@?$output_processor@DV?$stream_output_adapter@D@__crt_stdio_output@@V?$standard_base@DV?$stream_output_adapter@D@__crt_stdio_output@@@2@@__crt_stdio_output@@AEAA_NXZ@@__crt_stdio_output@@YAPEAUansi_string@?1??type_case_Z@?$output_processor@DV?$stream_output_adapter@D@__crt_stdio_output@@V?$standard_base@DV?$stream_output_adapter@D@__crt_stdio_output@@@2@@0@AEAA_NXZ@AEAPEAD@Z 000000018006ca30 f i libucrtd:output.obj
 0001:0006bab0       ??$read_va_arg@PEAUansi_string@?1??type_case_Z@?$output_processor@DV?$string_output_adapter@D@__crt_stdio_output@@V?$format_validation_base@DV?$string_output_adapter@D@__crt_stdio_output@@@2@@__crt_stdio_output@@AEAA_NXZ@@__crt_stdio_output@@YAPEAUansi_string@?1??type_case_Z@?$output_processor@DV?$string_output_adapter@D@__crt_stdio_output@@V?$format_validation_base@DV?$string_output_adapter@D@__crt_stdio_output@@@2@@0@AEAA_NXZ@AEAPEAD@Z 000000018006cab0 f i libucrtd:output.obj
 0001:0006bb30       ??$read_va_arg@PEAUansi_string@?1??type_case_Z@?$output_processor@DV?$string_output_adapter@D@__crt_stdio_output@@V?$positional_parameter_base@DV?$string_output_adapter@D@__crt_stdio_output@@@2@@__crt_stdio_output@@AEAA_NXZ@@__crt_stdio_output@@YAPEAUansi_string@?1??type_case_Z@?$output_processor@DV?$string_output_adapter@D@__crt_stdio_output@@V?$positional_parameter_base@DV?$string_output_adapter@D@__crt_stdio_output@@@2@@0@AEAA_NXZ@AEAPEAD@Z 000000018006cb30 f i libucrtd:output.obj
 0001:0006bbb0       ??$read_va_arg@PEAUansi_string@?1??type_case_Z@?$output_processor@DV?$string_output_adapter@D@__crt_stdio_output@@V?$standard_base@DV?$string_output_adapter@D@__crt_stdio_output@@@2@@__crt_stdio_output@@AEAA_NXZ@@__crt_stdio_output@@YAPEAUansi_string@?1??type_case_Z@?$output_processor@DV?$string_output_adapter@D@__crt_stdio_output@@V?$standard_base@DV?$string_output_adapter@D@__crt_stdio_output@@@2@@0@AEAA_NXZ@AEAPEAD@Z 000000018006cbb0 f i libucrtd:output.obj
 0001:0006bc30       ??$read_va_arg@PEAUansi_string@?1??type_case_Z@?$output_processor@_WV?$stream_output_adapter@_W@__crt_stdio_output@@V?$format_validation_base@_WV?$stream_output_adapter@_W@__crt_stdio_output@@@2@@__crt_stdio_output@@AEAA_NXZ@@__crt_stdio_output@@YAPEAUansi_string@?1??type_case_Z@?$output_processor@_WV?$stream_output_adapter@_W@__crt_stdio_output@@V?$format_validation_base@_WV?$stream_output_adapter@_W@__crt_stdio_output@@@2@@0@AEAA_NXZ@AEAPEAD@Z 000000018006cc30 f i libucrtd:output.obj
 0001:0006bcb0       ??$read_va_arg@PEAUansi_string@?1??type_case_Z@?$output_processor@_WV?$stream_output_adapter@_W@__crt_stdio_output@@V?$positional_parameter_base@_WV?$stream_output_adapter@_W@__crt_stdio_output@@@2@@__crt_stdio_output@@AEAA_NXZ@@__crt_stdio_output@@YAPEAUansi_string@?1??type_case_Z@?$output_processor@_WV?$stream_output_adapter@_W@__crt_stdio_output@@V?$positional_parameter_base@_WV?$stream_output_adapter@_W@__crt_stdio_output@@@2@@0@AEAA_NXZ@AEAPEAD@Z 000000018006ccb0 f i libucrtd:output.obj
 0001:0006bd30       ??$read_va_arg@PEAUansi_string@?1??type_case_Z@?$output_processor@_WV?$stream_output_adapter@_W@__crt_stdio_output@@V?$standard_base@_WV?$stream_output_adapter@_W@__crt_stdio_output@@@2@@__crt_stdio_output@@AEAA_NXZ@@__crt_stdio_output@@YAPEAUansi_string@?1??type_case_Z@?$output_processor@_WV?$stream_output_adapter@_W@__crt_stdio_output@@V?$standard_base@_WV?$stream_output_adapter@_W@__crt_stdio_output@@@2@@0@AEAA_NXZ@AEAPEAD@Z 000000018006cd30 f i libucrtd:output.obj
 0001:0006bdb0       ??$read_va_arg@PEAUansi_string@?1??type_case_Z@?$output_processor@_WV?$string_output_adapter@_W@__crt_stdio_output@@V?$format_validation_base@_WV?$string_output_adapter@_W@__crt_stdio_output@@@2@@__crt_stdio_output@@AEAA_NXZ@@__crt_stdio_output@@YAPEAUansi_string@?1??type_case_Z@?$output_processor@_WV?$string_output_adapter@_W@__crt_stdio_output@@V?$format_validation_base@_WV?$string_output_adapter@_W@__crt_stdio_output@@@2@@0@AEAA_NXZ@AEAPEAD@Z 000000018006cdb0 f i libucrtd:output.obj
 0001:0006be30       ??$read_va_arg@PEAUansi_string@?1??type_case_Z@?$output_processor@_WV?$string_output_adapter@_W@__crt_stdio_output@@V?$positional_parameter_base@_WV?$string_output_adapter@_W@__crt_stdio_output@@@2@@__crt_stdio_output@@AEAA_NXZ@@__crt_stdio_output@@YAPEAUansi_string@?1??type_case_Z@?$output_processor@_WV?$string_output_adapter@_W@__crt_stdio_output@@V?$positional_parameter_base@_WV?$string_output_adapter@_W@__crt_stdio_output@@@2@@0@AEAA_NXZ@AEAPEAD@Z 000000018006ce30 f i libucrtd:output.obj
 0001:0006beb0       ??$read_va_arg@PEAUansi_string@?1??type_case_Z@?$output_processor@_WV?$string_output_adapter@_W@__crt_stdio_output@@V?$standard_base@_WV?$string_output_adapter@_W@__crt_stdio_output@@@2@@__crt_stdio_output@@AEAA_NXZ@@__crt_stdio_output@@YAPEAUansi_string@?1??type_case_Z@?$output_processor@_WV?$string_output_adapter@_W@__crt_stdio_output@@V?$standard_base@_WV?$string_output_adapter@_W@__crt_stdio_output@@@2@@0@AEAA_NXZ@AEAPEAD@Z 000000018006ceb0 f i libucrtd:output.obj
 0001:0006bf30       ??$read_va_arg@PEAX@__crt_stdio_output@@YAPEAXAEAPEAD@Z 000000018006cf30 f i libucrtd:output.obj
 0001:0006bfb0       ??$read_va_arg@U_CRT_DOUBLE@@@__crt_stdio_output@@YA?AU_CRT_DOUBLE@@AEAPEAD@Z 000000018006cfb0 f i libucrtd:output.obj
 0001:0006c030       ??$read_va_arg@_J@__crt_stdio_output@@YA_JAEAPEAD@Z 000000018006d030 f i libucrtd:output.obj
 0001:0006c0b0       ??$read_va_arg@_K@__crt_stdio_output@@YA_KAEAPEAD@Z 000000018006d0b0 f i libucrtd:output.obj
 0001:0006c130       ??$read_va_arg@_W@__crt_stdio_output@@YA_WAEAPEAD@Z 000000018006d130 f i libucrtd:output.obj
 0001:0006c1b0       ??$scratch_count@D@formatting_buffer@__crt_stdio_output@@QEBA_KXZ 000000018006d1b0 f i libucrtd:output.obj
 0001:0006c1d0       ??$scratch_data@D@formatting_buffer@__crt_stdio_output@@QEAAPEADXZ 000000018006d1d0 f i libucrtd:output.obj
 0001:0006c260       ??$type_case_integer@$07@?$output_processor@DV?$stream_output_adapter@D@__crt_stdio_output@@V?$format_validation_base@DV?$stream_output_adapter@D@__crt_stdio_output@@@2@@__crt_stdio_output@@AEAA_N_N@Z 000000018006d260 f i libucrtd:output.obj
 0001:0006c7f0       ??$type_case_integer@$07@?$output_processor@DV?$stream_output_adapter@D@__crt_stdio_output@@V?$positional_parameter_base@DV?$stream_output_adapter@D@__crt_stdio_output@@@2@@__crt_stdio_output@@AEAA_N_N@Z 000000018006d7f0 f i libucrtd:output.obj
 0001:0006cd80       ??$type_case_integer@$07@?$output_processor@DV?$stream_output_adapter@D@__crt_stdio_output@@V?$standard_base@DV?$stream_output_adapter@D@__crt_stdio_output@@@2@@__crt_stdio_output@@AEAA_N_N@Z 000000018006dd80 f i libucrtd:output.obj
 0001:0006d310       ??$type_case_integer@$07@?$output_processor@DV?$string_output_adapter@D@__crt_stdio_output@@V?$format_validation_base@DV?$string_output_adapter@D@__crt_stdio_output@@@2@@__crt_stdio_output@@AEAA_N_N@Z 000000018006e310 f i libucrtd:output.obj
 0001:0006d8a0       ??$type_case_integer@$07@?$output_processor@DV?$string_output_adapter@D@__crt_stdio_output@@V?$positional_parameter_base@DV?$string_output_adapter@D@__crt_stdio_output@@@2@@__crt_stdio_output@@AEAA_N_N@Z 000000018006e8a0 f i libucrtd:output.obj
 0001:0006de30       ??$type_case_integer@$07@?$output_processor@DV?$string_output_adapter@D@__crt_stdio_output@@V?$standard_base@DV?$string_output_adapter@D@__crt_stdio_output@@@2@@__crt_stdio_output@@AEAA_N_N@Z 000000018006ee30 f i libucrtd:output.obj
 0001:0006e3c0       ??$type_case_integer@$07@?$output_processor@_WV?$stream_output_adapter@_W@__crt_stdio_output@@V?$format_validation_base@_WV?$stream_output_adapter@_W@__crt_stdio_output@@@2@@__crt_stdio_output@@AEAA_N_N@Z 000000018006f3c0 f i libucrtd:output.obj
 0001:0006e960       ??$type_case_integer@$07@?$output_processor@_WV?$stream_output_adapter@_W@__crt_stdio_output@@V?$positional_parameter_base@_WV?$stream_output_adapter@_W@__crt_stdio_output@@@2@@__crt_stdio_output@@AEAA_N_N@Z 000000018006f960 f i libucrtd:output.obj
 0001:0006ef00       ??$type_case_integer@$07@?$output_processor@_WV?$stream_output_adapter@_W@__crt_stdio_output@@V?$standard_base@_WV?$stream_output_adapter@_W@__crt_stdio_output@@@2@@__crt_stdio_output@@AEAA_N_N@Z 000000018006ff00 f i libucrtd:output.obj
 0001:0006f4a0       ??$type_case_integer@$07@?$output_processor@_WV?$string_output_adapter@_W@__crt_stdio_output@@V?$format_validation_base@_WV?$string_output_adapter@_W@__crt_stdio_output@@@2@@__crt_stdio_output@@AEAA_N_N@Z 00000001800704a0 f i libucrtd:output.obj
 0001:0006fa40       ??$type_case_integer@$07@?$output_processor@_WV?$string_output_adapter@_W@__crt_stdio_output@@V?$positional_parameter_base@_WV?$string_output_adapter@_W@__crt_stdio_output@@@2@@__crt_stdio_output@@AEAA_N_N@Z 0000000180070a40 f i libucrtd:output.obj
 0001:0006ffe0       ??$type_case_integer@$07@?$output_processor@_WV?$string_output_adapter@_W@__crt_stdio_output@@V?$standard_base@_WV?$string_output_adapter@_W@__crt_stdio_output@@@2@@__crt_stdio_output@@AEAA_N_N@Z 0000000180070fe0 f i libucrtd:output.obj
 0001:00070580       ??$type_case_integer@$09@?$output_processor@DV?$stream_output_adapter@D@__crt_stdio_output@@V?$format_validation_base@DV?$stream_output_adapter@D@__crt_stdio_output@@@2@@__crt_stdio_output@@AEAA_N_N@Z 0000000180071580 f i libucrtd:output.obj
 0001:00070b10       ??$type_case_integer@$09@?$output_processor@DV?$stream_output_adapter@D@__crt_stdio_output@@V?$positional_parameter_base@DV?$stream_output_adapter@D@__crt_stdio_output@@@2@@__crt_stdio_output@@AEAA_N_N@Z 0000000180071b10 f i libucrtd:output.obj
 0001:000710a0       ??$type_case_integer@$09@?$output_processor@DV?$stream_output_adapter@D@__crt_stdio_output@@V?$standard_base@DV?$stream_output_adapter@D@__crt_stdio_output@@@2@@__crt_stdio_output@@AEAA_N_N@Z 00000001800720a0 f i libucrtd:output.obj
 0001:00071630       ??$type_case_integer@$09@?$output_processor@DV?$string_output_adapter@D@__crt_stdio_output@@V?$format_validation_base@DV?$string_output_adapter@D@__crt_stdio_output@@@2@@__crt_stdio_output@@AEAA_N_N@Z 0000000180072630 f i libucrtd:output.obj
 0001:00071bc0       ??$type_case_integer@$09@?$output_processor@DV?$string_output_adapter@D@__crt_stdio_output@@V?$positional_parameter_base@DV?$string_output_adapter@D@__crt_stdio_output@@@2@@__crt_stdio_output@@AEAA_N_N@Z 0000000180072bc0 f i libucrtd:output.obj
 0001:00072150       ??$type_case_integer@$09@?$output_processor@DV?$string_output_adapter@D@__crt_stdio_output@@V?$standard_base@DV?$string_output_adapter@D@__crt_stdio_output@@@2@@__crt_stdio_output@@AEAA_N_N@Z 0000000180073150 f i libucrtd:output.obj
 0001:000726e0       ??$type_case_integer@$09@?$output_processor@_WV?$stream_output_adapter@_W@__crt_stdio_output@@V?$format_validation_base@_WV?$stream_output_adapter@_W@__crt_stdio_output@@@2@@__crt_stdio_output@@AEAA_N_N@Z 00000001800736e0 f i libucrtd:output.obj
 0001:00072c80       ??$type_case_integer@$09@?$output_processor@_WV?$stream_output_adapter@_W@__crt_stdio_output@@V?$positional_parameter_base@_WV?$stream_output_adapter@_W@__crt_stdio_output@@@2@@__crt_stdio_output@@AEAA_N_N@Z 0000000180073c80 f i libucrtd:output.obj
 0001:00073220       ??$type_case_integer@$09@?$output_processor@_WV?$stream_output_adapter@_W@__crt_stdio_output@@V?$standard_base@_WV?$stream_output_adapter@_W@__crt_stdio_output@@@2@@__crt_stdio_output@@AEAA_N_N@Z 0000000180074220 f i libucrtd:output.obj
 0001:000737c0       ??$type_case_integer@$09@?$output_processor@_WV?$string_output_adapter@_W@__crt_stdio_output@@V?$format_validation_base@_WV?$string_output_adapter@_W@__crt_stdio_output@@@2@@__crt_stdio_output@@AEAA_N_N@Z 00000001800747c0 f i libucrtd:output.obj
 0001:00073d60       ??$type_case_integer@$09@?$output_processor@_WV?$string_output_adapter@_W@__crt_stdio_output@@V?$positional_parameter_base@_WV?$string_output_adapter@_W@__crt_stdio_output@@@2@@__crt_stdio_output@@AEAA_N_N@Z 0000000180074d60 f i libucrtd:output.obj
 0001:00074300       ??$type_case_integer@$09@?$output_processor@_WV?$string_output_adapter@_W@__crt_stdio_output@@V?$standard_base@_WV?$string_output_adapter@_W@__crt_stdio_output@@@2@@__crt_stdio_output@@AEAA_N_N@Z 0000000180075300 f i libucrtd:output.obj
 0001:000748a0       ??$type_case_integer@$0BA@@?$output_processor@DV?$stream_output_adapter@D@__crt_stdio_output@@V?$format_validation_base@DV?$stream_output_adapter@D@__crt_stdio_output@@@2@@__crt_stdio_output@@AEAA_N_N@Z 00000001800758a0 f i libucrtd:output.obj
 0001:00074e30       ??$type_case_integer@$0BA@@?$output_processor@DV?$stream_output_adapter@D@__crt_stdio_output@@V?$positional_parameter_base@DV?$stream_output_adapter@D@__crt_stdio_output@@@2@@__crt_stdio_output@@AEAA_N_N@Z 0000000180075e30 f i libucrtd:output.obj
 0001:000753c0       ??$type_case_integer@$0BA@@?$output_processor@DV?$stream_output_adapter@D@__crt_stdio_output@@V?$standard_base@DV?$stream_output_adapter@D@__crt_stdio_output@@@2@@__crt_stdio_output@@AEAA_N_N@Z 00000001800763c0 f i libucrtd:output.obj
 0001:00075950       ??$type_case_integer@$0BA@@?$output_processor@DV?$string_output_adapter@D@__crt_stdio_output@@V?$format_validation_base@DV?$string_output_adapter@D@__crt_stdio_output@@@2@@__crt_stdio_output@@AEAA_N_N@Z 0000000180076950 f i libucrtd:output.obj
 0001:00075ee0       ??$type_case_integer@$0BA@@?$output_processor@DV?$string_output_adapter@D@__crt_stdio_output@@V?$positional_parameter_base@DV?$string_output_adapter@D@__crt_stdio_output@@@2@@__crt_stdio_output@@AEAA_N_N@Z 0000000180076ee0 f i libucrtd:output.obj
 0001:00076470       ??$type_case_integer@$0BA@@?$output_processor@DV?$string_output_adapter@D@__crt_stdio_output@@V?$standard_base@DV?$string_output_adapter@D@__crt_stdio_output@@@2@@__crt_stdio_output@@AEAA_N_N@Z 0000000180077470 f i libucrtd:output.obj
 0001:00076a00       ??$type_case_integer@$0BA@@?$output_processor@_WV?$stream_output_adapter@_W@__crt_stdio_output@@V?$format_validation_base@_WV?$stream_output_adapter@_W@__crt_stdio_output@@@2@@__crt_stdio_output@@AEAA_N_N@Z 0000000180077a00 f i libucrtd:output.obj
 0001:00076fa0       ??$type_case_integer@$0BA@@?$output_processor@_WV?$stream_output_adapter@_W@__crt_stdio_output@@V?$positional_parameter_base@_WV?$stream_output_adapter@_W@__crt_stdio_output@@@2@@__crt_stdio_output@@AEAA_N_N@Z 0000000180077fa0 f i libucrtd:output.obj
 0001:00077540       ??$type_case_integer@$0BA@@?$output_processor@_WV?$stream_output_adapter@_W@__crt_stdio_output@@V?$standard_base@_WV?$stream_output_adapter@_W@__crt_stdio_output@@@2@@__crt_stdio_output@@AEAA_N_N@Z 0000000180078540 f i libucrtd:output.obj
 0001:00077ae0       ??$type_case_integer@$0BA@@?$output_processor@_WV?$string_output_adapter@_W@__crt_stdio_output@@V?$format_validation_base@_WV?$string_output_adapter@_W@__crt_stdio_output@@@2@@__crt_stdio_output@@AEAA_N_N@Z 0000000180078ae0 f i libucrtd:output.obj
 0001:00078080       ??$type_case_integer@$0BA@@?$output_processor@_WV?$string_output_adapter@_W@__crt_stdio_output@@V?$positional_parameter_base@_WV?$string_output_adapter@_W@__crt_stdio_output@@@2@@__crt_stdio_output@@AEAA_N_N@Z 0000000180079080 f i libucrtd:output.obj
 0001:00078620       ??$type_case_integer@$0BA@@?$output_processor@_WV?$string_output_adapter@_W@__crt_stdio_output@@V?$standard_base@_WV?$string_output_adapter@_W@__crt_stdio_output@@@2@@__crt_stdio_output@@AEAA_N_N@Z 0000000180079620 f i libucrtd:output.obj
 0001:00078bc0       ??$type_case_integer_parse_into_buffer@I$07@?$output_processor@DV?$stream_output_adapter@D@__crt_stdio_output@@V?$format_validation_base@DV?$stream_output_adapter@D@__crt_stdio_output@@@2@@__crt_stdio_output@@AEAAXI_N@Z 0000000180079bc0 f i libucrtd:output.obj
 0001:00078d30       ??$type_case_integer_parse_into_buffer@I$07@?$output_processor@DV?$stream_output_adapter@D@__crt_stdio_output@@V?$positional_parameter_base@DV?$stream_output_adapter@D@__crt_stdio_output@@@2@@__crt_stdio_output@@AEAAXI_N@Z 0000000180079d30 f i libucrtd:output.obj
 0001:00078ea0       ??$type_case_integer_parse_into_buffer@I$07@?$output_processor@DV?$stream_output_adapter@D@__crt_stdio_output@@V?$standard_base@DV?$stream_output_adapter@D@__crt_stdio_output@@@2@@__crt_stdio_output@@AEAAXI_N@Z 0000000180079ea0 f i libucrtd:output.obj
 0001:00079010       ??$type_case_integer_parse_into_buffer@I$07@?$output_processor@DV?$string_output_adapter@D@__crt_stdio_output@@V?$format_validation_base@DV?$string_output_adapter@D@__crt_stdio_output@@@2@@__crt_stdio_output@@AEAAXI_N@Z 000000018007a010 f i libucrtd:output.obj
 0001:00079180       ??$type_case_integer_parse_into_buffer@I$07@?$output_processor@DV?$string_output_adapter@D@__crt_stdio_output@@V?$positional_parameter_base@DV?$string_output_adapter@D@__crt_stdio_output@@@2@@__crt_stdio_output@@AEAAXI_N@Z 000000018007a180 f i libucrtd:output.obj
 0001:000792f0       ??$type_case_integer_parse_into_buffer@I$07@?$output_processor@DV?$string_output_adapter@D@__crt_stdio_output@@V?$standard_base@DV?$string_output_adapter@D@__crt_stdio_output@@@2@@__crt_stdio_output@@AEAAXI_N@Z 000000018007a2f0 f i libucrtd:output.obj
 0001:00079460       ??$type_case_integer_parse_into_buffer@I$07@?$output_processor@_WV?$stream_output_adapter@_W@__crt_stdio_output@@V?$format_validation_base@_WV?$stream_output_adapter@_W@__crt_stdio_output@@@2@@__crt_stdio_output@@AEAAXI_N@Z 000000018007a460 f i libucrtd:output.obj
 0001:000795f0       ??$type_case_integer_parse_into_buffer@I$07@?$output_processor@_WV?$stream_output_adapter@_W@__crt_stdio_output@@V?$positional_parameter_base@_WV?$stream_output_adapter@_W@__crt_stdio_output@@@2@@__crt_stdio_output@@AEAAXI_N@Z 000000018007a5f0 f i libucrtd:output.obj
 0001:00079780       ??$type_case_integer_parse_into_buffer@I$07@?$output_processor@_WV?$stream_output_adapter@_W@__crt_stdio_output@@V?$standard_base@_WV?$stream_output_adapter@_W@__crt_stdio_output@@@2@@__crt_stdio_output@@AEAAXI_N@Z 000000018007a780 f i libucrtd:output.obj
 0001:00079910       ??$type_case_integer_parse_into_buffer@I$07@?$output_processor@_WV?$string_output_adapter@_W@__crt_stdio_output@@V?$format_validation_base@_WV?$string_output_adapter@_W@__crt_stdio_output@@@2@@__crt_stdio_output@@AEAAXI_N@Z 000000018007a910 f i libucrtd:output.obj
 0001:00079aa0       ??$type_case_integer_parse_into_buffer@I$07@?$output_processor@_WV?$string_output_adapter@_W@__crt_stdio_output@@V?$positional_parameter_base@_WV?$string_output_adapter@_W@__crt_stdio_output@@@2@@__crt_stdio_output@@AEAAXI_N@Z 000000018007aaa0 f i libucrtd:output.obj
 0001:00079c30       ??$type_case_integer_parse_into_buffer@I$07@?$output_processor@_WV?$string_output_adapter@_W@__crt_stdio_output@@V?$standard_base@_WV?$string_output_adapter@_W@__crt_stdio_output@@@2@@__crt_stdio_output@@AEAAXI_N@Z 000000018007ac30 f i libucrtd:output.obj
 0001:00079dc0       ??$type_case_integer_parse_into_buffer@I$09@?$output_processor@DV?$stream_output_adapter@D@__crt_stdio_output@@V?$format_validation_base@DV?$stream_output_adapter@D@__crt_stdio_output@@@2@@__crt_stdio_output@@AEAAXI_N@Z 000000018007adc0 f i libucrtd:output.obj
 0001:00079f30       ??$type_case_integer_parse_into_buffer@I$09@?$output_processor@DV?$stream_output_adapter@D@__crt_stdio_output@@V?$positional_parameter_base@DV?$stream_output_adapter@D@__crt_stdio_output@@@2@@__crt_stdio_output@@AEAAXI_N@Z 000000018007af30 f i libucrtd:output.obj
 0001:0007a0a0       ??$type_case_integer_parse_into_buffer@I$09@?$output_processor@DV?$stream_output_adapter@D@__crt_stdio_output@@V?$standard_base@DV?$stream_output_adapter@D@__crt_stdio_output@@@2@@__crt_stdio_output@@AEAAXI_N@Z 000000018007b0a0 f i libucrtd:output.obj
 0001:0007a210       ??$type_case_integer_parse_into_buffer@I$09@?$output_processor@DV?$string_output_adapter@D@__crt_stdio_output@@V?$format_validation_base@DV?$string_output_adapter@D@__crt_stdio_output@@@2@@__crt_stdio_output@@AEAAXI_N@Z 000000018007b210 f i libucrtd:output.obj
 0001:0007a380       ??$type_case_integer_parse_into_buffer@I$09@?$output_processor@DV?$string_output_adapter@D@__crt_stdio_output@@V?$positional_parameter_base@DV?$string_output_adapter@D@__crt_stdio_output@@@2@@__crt_stdio_output@@AEAAXI_N@Z 000000018007b380 f i libucrtd:output.obj
 0001:0007a4f0       ??$type_case_integer_parse_into_buffer@I$09@?$output_processor@DV?$string_output_adapter@D@__crt_stdio_output@@V?$standard_base@DV?$string_output_adapter@D@__crt_stdio_output@@@2@@__crt_stdio_output@@AEAAXI_N@Z 000000018007b4f0 f i libucrtd:output.obj
 0001:0007a660       ??$type_case_integer_parse_into_buffer@I$09@?$output_processor@_WV?$stream_output_adapter@_W@__crt_stdio_output@@V?$format_validation_base@_WV?$stream_output_adapter@_W@__crt_stdio_output@@@2@@__crt_stdio_output@@AEAAXI_N@Z 000000018007b660 f i libucrtd:output.obj
 0001:0007a7f0       ??$type_case_integer_parse_into_buffer@I$09@?$output_processor@_WV?$stream_output_adapter@_W@__crt_stdio_output@@V?$positional_parameter_base@_WV?$stream_output_adapter@_W@__crt_stdio_output@@@2@@__crt_stdio_output@@AEAAXI_N@Z 000000018007b7f0 f i libucrtd:output.obj
 0001:0007a980       ??$type_case_integer_parse_into_buffer@I$09@?$output_processor@_WV?$stream_output_adapter@_W@__crt_stdio_output@@V?$standard_base@_WV?$stream_output_adapter@_W@__crt_stdio_output@@@2@@__crt_stdio_output@@AEAAXI_N@Z 000000018007b980 f i libucrtd:output.obj
 0001:0007ab10       ??$type_case_integer_parse_into_buffer@I$09@?$output_processor@_WV?$string_output_adapter@_W@__crt_stdio_output@@V?$format_validation_base@_WV?$string_output_adapter@_W@__crt_stdio_output@@@2@@__crt_stdio_output@@AEAAXI_N@Z 000000018007bb10 f i libucrtd:output.obj
 0001:0007aca0       ??$type_case_integer_parse_into_buffer@I$09@?$output_processor@_WV?$string_output_adapter@_W@__crt_stdio_output@@V?$positional_parameter_base@_WV?$string_output_adapter@_W@__crt_stdio_output@@@2@@__crt_stdio_output@@AEAAXI_N@Z 000000018007bca0 f i libucrtd:output.obj
 0001:0007ae30       ??$type_case_integer_parse_into_buffer@I$09@?$output_processor@_WV?$string_output_adapter@_W@__crt_stdio_output@@V?$standard_base@_WV?$string_output_adapter@_W@__crt_stdio_output@@@2@@__crt_stdio_output@@AEAAXI_N@Z 000000018007be30 f i libucrtd:output.obj
 0001:0007afc0       ??$type_case_integer_parse_into_buffer@I$0BA@@?$output_processor@DV?$stream_output_adapter@D@__crt_stdio_output@@V?$format_validation_base@DV?$stream_output_adapter@D@__crt_stdio_output@@@2@@__crt_stdio_output@@AEAAXI_N@Z 000000018007bfc0 f i libucrtd:output.obj
 0001:0007b130       ??$type_case_integer_parse_into_buffer@I$0BA@@?$output_processor@DV?$stream_output_adapter@D@__crt_stdio_output@@V?$positional_parameter_base@DV?$stream_output_adapter@D@__crt_stdio_output@@@2@@__crt_stdio_output@@AEAAXI_N@Z 000000018007c130 f i libucrtd:output.obj
 0001:0007b2a0       ??$type_case_integer_parse_into_buffer@I$0BA@@?$output_processor@DV?$stream_output_adapter@D@__crt_stdio_output@@V?$standard_base@DV?$stream_output_adapter@D@__crt_stdio_output@@@2@@__crt_stdio_output@@AEAAXI_N@Z 000000018007c2a0 f i libucrtd:output.obj
 0001:0007b410       ??$type_case_integer_parse_into_buffer@I$0BA@@?$output_processor@DV?$string_output_adapter@D@__crt_stdio_output@@V?$format_validation_base@DV?$string_output_adapter@D@__crt_stdio_output@@@2@@__crt_stdio_output@@AEAAXI_N@Z 000000018007c410 f i libucrtd:output.obj
 0001:0007b580       ??$type_case_integer_parse_into_buffer@I$0BA@@?$output_processor@DV?$string_output_adapter@D@__crt_stdio_output@@V?$positional_parameter_base@DV?$string_output_adapter@D@__crt_stdio_output@@@2@@__crt_stdio_output@@AEAAXI_N@Z 000000018007c580 f i libucrtd:output.obj
 0001:0007b6f0       ??$type_case_integer_parse_into_buffer@I$0BA@@?$output_processor@DV?$string_output_adapter@D@__crt_stdio_output@@V?$standard_base@DV?$string_output_adapter@D@__crt_stdio_output@@@2@@__crt_stdio_output@@AEAAXI_N@Z 000000018007c6f0 f i libucrtd:output.obj
 0001:0007b860       ??$type_case_integer_parse_into_buffer@I$0BA@@?$output_processor@_WV?$stream_output_adapter@_W@__crt_stdio_output@@V?$format_validation_base@_WV?$stream_output_adapter@_W@__crt_stdio_output@@@2@@__crt_stdio_output@@AEAAXI_N@Z 000000018007c860 f i libucrtd:output.obj
 0001:0007b9f0       ??$type_case_integer_parse_into_buffer@I$0BA@@?$output_processor@_WV?$stream_output_adapter@_W@__crt_stdio_output@@V?$positional_parameter_base@_WV?$stream_output_adapter@_W@__crt_stdio_output@@@2@@__crt_stdio_output@@AEAAXI_N@Z 000000018007c9f0 f i libucrtd:output.obj
 0001:0007bb80       ??$type_case_integer_parse_into_buffer@I$0BA@@?$output_processor@_WV?$stream_output_adapter@_W@__crt_stdio_output@@V?$standard_base@_WV?$stream_output_adapter@_W@__crt_stdio_output@@@2@@__crt_stdio_output@@AEAAXI_N@Z 000000018007cb80 f i libucrtd:output.obj
 0001:0007bd10       ??$type_case_integer_parse_into_buffer@I$0BA@@?$output_processor@_WV?$string_output_adapter@_W@__crt_stdio_output@@V?$format_validation_base@_WV?$string_output_adapter@_W@__crt_stdio_output@@@2@@__crt_stdio_output@@AEAAXI_N@Z 000000018007cd10 f i libucrtd:output.obj
 0001:0007bea0       ??$type_case_integer_parse_into_buffer@I$0BA@@?$output_processor@_WV?$string_output_adapter@_W@__crt_stdio_output@@V?$positional_parameter_base@_WV?$string_output_adapter@_W@__crt_stdio_output@@@2@@__crt_stdio_output@@AEAAXI_N@Z 000000018007cea0 f i libucrtd:output.obj
 0001:0007c030       ??$type_case_integer_parse_into_buffer@I$0BA@@?$output_processor@_WV?$string_output_adapter@_W@__crt_stdio_output@@V?$standard_base@_WV?$string_output_adapter@_W@__crt_stdio_output@@@2@@__crt_stdio_output@@AEAAXI_N@Z 000000018007d030 f i libucrtd:output.obj
 0001:0007c1c0       ??$type_case_integer_parse_into_buffer@_K$07@?$output_processor@DV?$stream_output_adapter@D@__crt_stdio_output@@V?$format_validation_base@DV?$stream_output_adapter@D@__crt_stdio_output@@@2@@__crt_stdio_output@@AEAAX_K_N@Z 000000018007d1c0 f i libucrtd:output.obj
 0001:0007c340       ??$type_case_integer_parse_into_buffer@_K$07@?$output_processor@DV?$stream_output_adapter@D@__crt_stdio_output@@V?$positional_parameter_base@DV?$stream_output_adapter@D@__crt_stdio_output@@@2@@__crt_stdio_output@@AEAAX_K_N@Z 000000018007d340 f i libucrtd:output.obj
 0001:0007c4c0       ??$type_case_integer_parse_into_buffer@_K$07@?$output_processor@DV?$stream_output_adapter@D@__crt_stdio_output@@V?$standard_base@DV?$stream_output_adapter@D@__crt_stdio_output@@@2@@__crt_stdio_output@@AEAAX_K_N@Z 000000018007d4c0 f i libucrtd:output.obj
 0001:0007c640       ??$type_case_integer_parse_into_buffer@_K$07@?$output_processor@DV?$string_output_adapter@D@__crt_stdio_output@@V?$format_validation_base@DV?$string_output_adapter@D@__crt_stdio_output@@@2@@__crt_stdio_output@@AEAAX_K_N@Z 000000018007d640 f i libucrtd:output.obj
 0001:0007c7c0       ??$type_case_integer_parse_into_buffer@_K$07@?$output_processor@DV?$string_output_adapter@D@__crt_stdio_output@@V?$positional_parameter_base@DV?$string_output_adapter@D@__crt_stdio_output@@@2@@__crt_stdio_output@@AEAAX_K_N@Z 000000018007d7c0 f i libucrtd:output.obj
 0001:0007c940       ??$type_case_integer_parse_into_buffer@_K$07@?$output_processor@DV?$string_output_adapter@D@__crt_stdio_output@@V?$standard_base@DV?$string_output_adapter@D@__crt_stdio_output@@@2@@__crt_stdio_output@@AEAAX_K_N@Z 000000018007d940 f i libucrtd:output.obj
 0001:0007cac0       ??$type_case_integer_parse_into_buffer@_K$07@?$output_processor@_WV?$stream_output_adapter@_W@__crt_stdio_output@@V?$format_validation_base@_WV?$stream_output_adapter@_W@__crt_stdio_output@@@2@@__crt_stdio_output@@AEAAX_K_N@Z 000000018007dac0 f i libucrtd:output.obj
 0001:0007cc50       ??$type_case_integer_parse_into_buffer@_K$07@?$output_processor@_WV?$stream_output_adapter@_W@__crt_stdio_output@@V?$positional_parameter_base@_WV?$stream_output_adapter@_W@__crt_stdio_output@@@2@@__crt_stdio_output@@AEAAX_K_N@Z 000000018007dc50 f i libucrtd:output.obj
 0001:0007cde0       ??$type_case_integer_parse_into_buffer@_K$07@?$output_processor@_WV?$stream_output_adapter@_W@__crt_stdio_output@@V?$standard_base@_WV?$stream_output_adapter@_W@__crt_stdio_output@@@2@@__crt_stdio_output@@AEAAX_K_N@Z 000000018007dde0 f i libucrtd:output.obj
 0001:0007cf70       ??$type_case_integer_parse_into_buffer@_K$07@?$output_processor@_WV?$string_output_adapter@_W@__crt_stdio_output@@V?$format_validation_base@_WV?$string_output_adapter@_W@__crt_stdio_output@@@2@@__crt_stdio_output@@AEAAX_K_N@Z 000000018007df70 f i libucrtd:output.obj
 0001:0007d100       ??$type_case_integer_parse_into_buffer@_K$07@?$output_processor@_WV?$string_output_adapter@_W@__crt_stdio_output@@V?$positional_parameter_base@_WV?$string_output_adapter@_W@__crt_stdio_output@@@2@@__crt_stdio_output@@AEAAX_K_N@Z 000000018007e100 f i libucrtd:output.obj
 0001:0007d290       ??$type_case_integer_parse_into_buffer@_K$07@?$output_processor@_WV?$string_output_adapter@_W@__crt_stdio_output@@V?$standard_base@_WV?$string_output_adapter@_W@__crt_stdio_output@@@2@@__crt_stdio_output@@AEAAX_K_N@Z 000000018007e290 f i libucrtd:output.obj
 0001:0007d420       ??$type_case_integer_parse_into_buffer@_K$09@?$output_processor@DV?$stream_output_adapter@D@__crt_stdio_output@@V?$format_validation_base@DV?$stream_output_adapter@D@__crt_stdio_output@@@2@@__crt_stdio_output@@AEAAX_K_N@Z 000000018007e420 f i libucrtd:output.obj
 0001:0007d5a0       ??$type_case_integer_parse_into_buffer@_K$09@?$output_processor@DV?$stream_output_adapter@D@__crt_stdio_output@@V?$positional_parameter_base@DV?$stream_output_adapter@D@__crt_stdio_output@@@2@@__crt_stdio_output@@AEAAX_K_N@Z 000000018007e5a0 f i libucrtd:output.obj
 0001:0007d720       ??$type_case_integer_parse_into_buffer@_K$09@?$output_processor@DV?$stream_output_adapter@D@__crt_stdio_output@@V?$standard_base@DV?$stream_output_adapter@D@__crt_stdio_output@@@2@@__crt_stdio_output@@AEAAX_K_N@Z 000000018007e720 f i libucrtd:output.obj
 0001:0007d8a0       ??$type_case_integer_parse_into_buffer@_K$09@?$output_processor@DV?$string_output_adapter@D@__crt_stdio_output@@V?$format_validation_base@DV?$string_output_adapter@D@__crt_stdio_output@@@2@@__crt_stdio_output@@AEAAX_K_N@Z 000000018007e8a0 f i libucrtd:output.obj
 0001:0007da20       ??$type_case_integer_parse_into_buffer@_K$09@?$output_processor@DV?$string_output_adapter@D@__crt_stdio_output@@V?$positional_parameter_base@DV?$string_output_adapter@D@__crt_stdio_output@@@2@@__crt_stdio_output@@AEAAX_K_N@Z 000000018007ea20 f i libucrtd:output.obj
 0001:0007dba0       ??$type_case_integer_parse_into_buffer@_K$09@?$output_processor@DV?$string_output_adapter@D@__crt_stdio_output@@V?$standard_base@DV?$string_output_adapter@D@__crt_stdio_output@@@2@@__crt_stdio_output@@AEAAX_K_N@Z 000000018007eba0 f i libucrtd:output.obj
 0001:0007dd20       ??$type_case_integer_parse_into_buffer@_K$09@?$output_processor@_WV?$stream_output_adapter@_W@__crt_stdio_output@@V?$format_validation_base@_WV?$stream_output_adapter@_W@__crt_stdio_output@@@2@@__crt_stdio_output@@AEAAX_K_N@Z 000000018007ed20 f i libucrtd:output.obj
 0001:0007deb0       ??$type_case_integer_parse_into_buffer@_K$09@?$output_processor@_WV?$stream_output_adapter@_W@__crt_stdio_output@@V?$positional_parameter_base@_WV?$stream_output_adapter@_W@__crt_stdio_output@@@2@@__crt_stdio_output@@AEAAX_K_N@Z 000000018007eeb0 f i libucrtd:output.obj
 0001:0007e040       ??$type_case_integer_parse_into_buffer@_K$09@?$output_processor@_WV?$stream_output_adapter@_W@__crt_stdio_output@@V?$standard_base@_WV?$stream_output_adapter@_W@__crt_stdio_output@@@2@@__crt_stdio_output@@AEAAX_K_N@Z 000000018007f040 f i libucrtd:output.obj
 0001:0007e1d0       ??$type_case_integer_parse_into_buffer@_K$09@?$output_processor@_WV?$string_output_adapter@_W@__crt_stdio_output@@V?$format_validation_base@_WV?$string_output_adapter@_W@__crt_stdio_output@@@2@@__crt_stdio_output@@AEAAX_K_N@Z 000000018007f1d0 f i libucrtd:output.obj
 0001:0007e360       ??$type_case_integer_parse_into_buffer@_K$09@?$output_processor@_WV?$string_output_adapter@_W@__crt_stdio_output@@V?$positional_parameter_base@_WV?$string_output_adapter@_W@__crt_stdio_output@@@2@@__crt_stdio_output@@AEAAX_K_N@Z 000000018007f360 f i libucrtd:output.obj
 0001:0007e4f0       ??$type_case_integer_parse_into_buffer@_K$09@?$output_processor@_WV?$string_output_adapter@_W@__crt_stdio_output@@V?$standard_base@_WV?$string_output_adapter@_W@__crt_stdio_output@@@2@@__crt_stdio_output@@AEAAX_K_N@Z 000000018007f4f0 f i libucrtd:output.obj
 0001:0007e680       ??$type_case_integer_parse_into_buffer@_K$0BA@@?$output_processor@DV?$stream_output_adapter@D@__crt_stdio_output@@V?$format_validation_base@DV?$stream_output_adapter@D@__crt_stdio_output@@@2@@__crt_stdio_output@@AEAAX_K_N@Z 000000018007f680 f i libucrtd:output.obj
 0001:0007e800       ??$type_case_integer_parse_into_buffer@_K$0BA@@?$output_processor@DV?$stream_output_adapter@D@__crt_stdio_output@@V?$positional_parameter_base@DV?$stream_output_adapter@D@__crt_stdio_output@@@2@@__crt_stdio_output@@AEAAX_K_N@Z 000000018007f800 f i libucrtd:output.obj
 0001:0007e980       ??$type_case_integer_parse_into_buffer@_K$0BA@@?$output_processor@DV?$stream_output_adapter@D@__crt_stdio_output@@V?$standard_base@DV?$stream_output_adapter@D@__crt_stdio_output@@@2@@__crt_stdio_output@@AEAAX_K_N@Z 000000018007f980 f i libucrtd:output.obj
 0001:0007eb00       ??$type_case_integer_parse_into_buffer@_K$0BA@@?$output_processor@DV?$string_output_adapter@D@__crt_stdio_output@@V?$format_validation_base@DV?$string_output_adapter@D@__crt_stdio_output@@@2@@__crt_stdio_output@@AEAAX_K_N@Z 000000018007fb00 f i libucrtd:output.obj
 0001:0007ec80       ??$type_case_integer_parse_into_buffer@_K$0BA@@?$output_processor@DV?$string_output_adapter@D@__crt_stdio_output@@V?$positional_parameter_base@DV?$string_output_adapter@D@__crt_stdio_output@@@2@@__crt_stdio_output@@AEAAX_K_N@Z 000000018007fc80 f i libucrtd:output.obj
 0001:0007ee00       ??$type_case_integer_parse_into_buffer@_K$0BA@@?$output_processor@DV?$string_output_adapter@D@__crt_stdio_output@@V?$standard_base@DV?$string_output_adapter@D@__crt_stdio_output@@@2@@__crt_stdio_output@@AEAAX_K_N@Z 000000018007fe00 f i libucrtd:output.obj
 0001:0007ef80       ??$type_case_integer_parse_into_buffer@_K$0BA@@?$output_processor@_WV?$stream_output_adapter@_W@__crt_stdio_output@@V?$format_validation_base@_WV?$stream_output_adapter@_W@__crt_stdio_output@@@2@@__crt_stdio_output@@AEAAX_K_N@Z 000000018007ff80 f i libucrtd:output.obj
 0001:0007f110       ??$type_case_integer_parse_into_buffer@_K$0BA@@?$output_processor@_WV?$stream_output_adapter@_W@__crt_stdio_output@@V?$positional_parameter_base@_WV?$stream_output_adapter@_W@__crt_stdio_output@@@2@@__crt_stdio_output@@AEAAX_K_N@Z 0000000180080110 f i libucrtd:output.obj
 0001:0007f2a0       ??$type_case_integer_parse_into_buffer@_K$0BA@@?$output_processor@_WV?$stream_output_adapter@_W@__crt_stdio_output@@V?$standard_base@_WV?$stream_output_adapter@_W@__crt_stdio_output@@@2@@__crt_stdio_output@@AEAAX_K_N@Z 00000001800802a0 f i libucrtd:output.obj
 0001:0007f430       ??$type_case_integer_parse_into_buffer@_K$0BA@@?$output_processor@_WV?$string_output_adapter@_W@__crt_stdio_output@@V?$format_validation_base@_WV?$string_output_adapter@_W@__crt_stdio_output@@@2@@__crt_stdio_output@@AEAAX_K_N@Z 0000000180080430 f i libucrtd:output.obj
 0001:0007f5c0       ??$type_case_integer_parse_into_buffer@_K$0BA@@?$output_processor@_WV?$string_output_adapter@_W@__crt_stdio_output@@V?$positional_parameter_base@_WV?$string_output_adapter@_W@__crt_stdio_output@@@2@@__crt_stdio_output@@AEAAX_K_N@Z 00000001800805c0 f i libucrtd:output.obj
 0001:0007f750       ??$type_case_integer_parse_into_buffer@_K$0BA@@?$output_processor@_WV?$string_output_adapter@_W@__crt_stdio_output@@V?$standard_base@_WV?$string_output_adapter@_W@__crt_stdio_output@@@2@@__crt_stdio_output@@AEAAX_K_N@Z 0000000180080750 f i libucrtd:output.obj
 0001:0007f8e0       ??$write_multiple_characters@V?$stream_output_adapter@D@__crt_stdio_output@@D@__crt_stdio_output@@YAXAEBV?$stream_output_adapter@D@0@DHQEAHAEAV__crt_cached_ptd_host@@@Z 00000001800808e0 f i libucrtd:output.obj
 0001:0007f960       ??$write_multiple_characters@V?$stream_output_adapter@_W@__crt_stdio_output@@D@__crt_stdio_output@@YAXAEBV?$stream_output_adapter@_W@0@DHQEAHAEAV__crt_cached_ptd_host@@@Z 0000000180080960 f i libucrtd:output.obj
 0001:0007f9e0       ??$write_multiple_characters@V?$string_output_adapter@D@__crt_stdio_output@@D@__crt_stdio_output@@YAXAEBV?$string_output_adapter@D@0@DHQEAHAEAV__crt_cached_ptd_host@@@Z 00000001800809e0 f i libucrtd:output.obj
 0001:0007fa60       ??$write_multiple_characters@V?$string_output_adapter@_W@__crt_stdio_output@@D@__crt_stdio_output@@YAXAEBV?$string_output_adapter@_W@0@DHQEAHAEAV__crt_cached_ptd_host@@@Z 0000000180080a60 f i libucrtd:output.obj
 0001:00080020       ??0?$c_string_character_source@D@__crt_strtox@@QEAA@QEBDQEAPEBD@Z 0000000180081020 f i libucrtd:output.obj
 0001:00080080       ??0?$c_string_character_source@_W@__crt_strtox@@QEAA@QEB_WQEAPEB_W@Z 0000000180081080 f i libucrtd:output.obj
 0001:000800e0       ??0?$common_data@D@__crt_stdio_output@@IEAA@AEAV__crt_cached_ptd_host@@@Z 00000001800810e0 f i libucrtd:output.obj
 0001:000801d0       ??0?$common_data@_W@__crt_stdio_output@@IEAA@AEAV__crt_cached_ptd_host@@@Z 00000001800811d0 f i libucrtd:output.obj
 0001:000802c0       ??0?$output_adapter_data@DV?$stream_output_adapter@D@__crt_stdio_output@@@__crt_stdio_output@@IEAA@AEBV?$stream_output_adapter@D@1@_KQEBDAEAV__crt_cached_ptd_host@@QEAD@Z 00000001800812c0 f i libucrtd:output.obj
 0001:00080360       ??0?$output_adapter_data@DV?$string_output_adapter@D@__crt_stdio_output@@@__crt_stdio_output@@IEAA@AEBV?$string_output_adapter@D@1@_KQEBDAEAV__crt_cached_ptd_host@@QEAD@Z 0000000180081360 f i libucrtd:output.obj
 0001:00080400       ??0?$output_adapter_data@_WV?$stream_output_adapter@_W@__crt_stdio_output@@@__crt_stdio_output@@IEAA@AEBV?$stream_output_adapter@_W@1@_KQEB_WAEAV__crt_cached_ptd_host@@QEAD@Z 0000000180081400 f i libucrtd:output.obj
 0001:000804a0       ??0?$output_adapter_data@_WV?$string_output_adapter@_W@__crt_stdio_output@@@__crt_stdio_output@@IEAA@AEBV?$string_output_adapter@_W@1@_KQEB_WAEAV__crt_cached_ptd_host@@QEAD@Z 00000001800814a0 f i libucrtd:output.obj
 0001:00080540       ??0?$output_processor@DV?$stream_output_adapter@D@__crt_stdio_output@@V?$format_validation_base@DV?$stream_output_adapter@D@__crt_stdio_output@@@2@@__crt_stdio_output@@QEAA@AEBV?$stream_output_adapter@D@1@_KQEBDAEAV__crt_cached_ptd_host@@QEAD@Z 0000000180081540 f i libucrtd:output.obj
 0001:000805b0       ??0?$output_processor@DV?$stream_output_adapter@D@__crt_stdio_output@@V?$positional_parameter_base@DV?$stream_output_adapter@D@__crt_stdio_output@@@2@@__crt_stdio_output@@QEAA@AEBV?$stream_output_adapter@D@1@_KQEBDAEAV__crt_cached_ptd_host@@QEAD@Z 00000001800815b0 f i libucrtd:output.obj
 0001:00080620       ??0?$output_processor@DV?$stream_output_adapter@D@__crt_stdio_output@@V?$standard_base@DV?$stream_output_adapter@D@__crt_stdio_output@@@2@@__crt_stdio_output@@QEAA@AEBV?$stream_output_adapter@D@1@_KQEBDAEAV__crt_cached_ptd_host@@QEAD@Z 0000000180081620 f i libucrtd:output.obj
 0001:00080690       ??0?$output_processor@DV?$string_output_adapter@D@__crt_stdio_output@@V?$format_validation_base@DV?$string_output_adapter@D@__crt_stdio_output@@@2@@__crt_stdio_output@@QEAA@AEBV?$string_output_adapter@D@1@_KQEBDAEAV__crt_cached_ptd_host@@QEAD@Z 0000000180081690 f i libucrtd:output.obj
 0001:00080700       ??0?$output_processor@DV?$string_output_adapter@D@__crt_stdio_output@@V?$positional_parameter_base@DV?$string_output_adapter@D@__crt_stdio_output@@@2@@__crt_stdio_output@@QEAA@AEBV?$string_output_adapter@D@1@_KQEBDAEAV__crt_cached_ptd_host@@QEAD@Z 0000000180081700 f i libucrtd:output.obj
 0001:00080770       ??0?$output_processor@DV?$string_output_adapter@D@__crt_stdio_output@@V?$standard_base@DV?$string_output_adapter@D@__crt_stdio_output@@@2@@__crt_stdio_output@@QEAA@AEBV?$string_output_adapter@D@1@_KQEBDAEAV__crt_cached_ptd_host@@QEAD@Z 0000000180081770 f i libucrtd:output.obj
 0001:000807e0       ??0?$output_processor@_WV?$stream_output_adapter@_W@__crt_stdio_output@@V?$format_validation_base@_WV?$stream_output_adapter@_W@__crt_stdio_output@@@2@@__crt_stdio_output@@QEAA@AEBV?$stream_output_adapter@_W@1@_KQEB_WAEAV__crt_cached_ptd_host@@QEAD@Z 00000001800817e0 f i libucrtd:output.obj
 0001:00080850       ??0?$output_processor@_WV?$stream_output_adapter@_W@__crt_stdio_output@@V?$positional_parameter_base@_WV?$stream_output_adapter@_W@__crt_stdio_output@@@2@@__crt_stdio_output@@QEAA@AEBV?$stream_output_adapter@_W@1@_KQEB_WAEAV__crt_cached_ptd_host@@QEAD@Z 0000000180081850 f i libucrtd:output.obj
 0001:000808c0       ??0?$output_processor@_WV?$stream_output_adapter@_W@__crt_stdio_output@@V?$standard_base@_WV?$stream_output_adapter@_W@__crt_stdio_output@@@2@@__crt_stdio_output@@QEAA@AEBV?$stream_output_adapter@_W@1@_KQEB_WAEAV__crt_cached_ptd_host@@QEAD@Z 00000001800818c0 f i libucrtd:output.obj
 0001:00080930       ??0?$output_processor@_WV?$string_output_adapter@_W@__crt_stdio_output@@V?$format_validation_base@_WV?$string_output_adapter@_W@__crt_stdio_output@@@2@@__crt_stdio_output@@QEAA@AEBV?$string_output_adapter@_W@1@_KQEB_WAEAV__crt_cached_ptd_host@@QEAD@Z 0000000180081930 f i libucrtd:output.obj
 0001:000809a0       ??0?$output_processor@_WV?$string_output_adapter@_W@__crt_stdio_output@@V?$positional_parameter_base@_WV?$string_output_adapter@_W@__crt_stdio_output@@@2@@__crt_stdio_output@@QEAA@AEBV?$string_output_adapter@_W@1@_KQEB_WAEAV__crt_cached_ptd_host@@QEAD@Z 00000001800819a0 f i libucrtd:output.obj
 0001:00080a10       ??0?$output_processor@_WV?$string_output_adapter@_W@__crt_stdio_output@@V?$standard_base@_WV?$string_output_adapter@_W@__crt_stdio_output@@@2@@__crt_stdio_output@@QEAA@AEBV?$string_output_adapter@_W@1@_KQEB_WAEAV__crt_cached_ptd_host@@QEAD@Z 0000000180081a10 f i libucrtd:output.obj
 0001:00080a80       ??0?$stream_output_adapter@D@__crt_stdio_output@@QEAA@QEAU_iobuf@@@Z 0000000180081a80 f i libucrtd:output.obj
 0001:00080ac0       ??0?$stream_output_adapter@_W@__crt_stdio_output@@QEAA@QEAU_iobuf@@@Z 0000000180081ac0 f i libucrtd:output.obj
 0001:00080b00       ??0?$string_output_adapter@D@__crt_stdio_output@@QEAA@QEAU?$string_output_adapter_context@D@1@@Z 0000000180081b00 f i libucrtd:output.obj
 0001:00080b30       ??0?$string_output_adapter@_W@__crt_stdio_output@@QEAA@QEAU?$string_output_adapter_context@_W@1@@Z 0000000180081b30 f i libucrtd:output.obj
 0001:00080b60       ??0__acrt_stdio_temporary_buffering_guard@@QEAA@QEAU_iobuf@@AEAV__crt_cached_ptd_host@@@Z 0000000180081b60 f i libucrtd:output.obj
 0001:00080bc0       ??0__crt_stdio_stream@@QEAA@QEAU_iobuf@@@Z 0000000180081bc0 f i libucrtd:output.obj
 0001:00080bf0       ??0formatting_buffer@__crt_stdio_output@@QEAA@XZ 0000000180081bf0 f i libucrtd:output.obj
 0001:00080c40       ??0guard@?$cached@H@__crt_cached_ptd_host@@QEAA@AEAU12@@Z 0000000180081c40 f i libucrtd:output.obj
 0001:00080c90       ??1?$c_string_character_source@D@__crt_strtox@@QEAA@XZ 0000000180081c90 f i libucrtd:output.obj
 0001:00080cc0       ??1?$c_string_character_source@_W@__crt_strtox@@QEAA@XZ 0000000180081cc0 f i libucrtd:output.obj
 0001:00080cf0       ??1?$common_data@D@__crt_stdio_output@@QEAA@XZ 0000000180081cf0 f i libucrtd:output.obj
 0001:00080d20       ??1?$common_data@_W@__crt_stdio_output@@QEAA@XZ 0000000180081d20 f i libucrtd:output.obj
 0001:00080d50       ??1?$format_validation_base@DV?$stream_output_adapter@D@__crt_stdio_output@@@__crt_stdio_output@@QEAA@XZ 0000000180081d50 f i libucrtd:output.obj
 0001:00080d70       ??1?$format_validation_base@DV?$string_output_adapter@D@__crt_stdio_output@@@__crt_stdio_output@@QEAA@XZ 0000000180081d70 f i libucrtd:output.obj
 0001:00080d90       ??1?$format_validation_base@_WV?$stream_output_adapter@_W@__crt_stdio_output@@@__crt_stdio_output@@QEAA@XZ 0000000180081d90 f i libucrtd:output.obj
 0001:00080db0       ??1?$format_validation_base@_WV?$string_output_adapter@_W@__crt_stdio_output@@@__crt_stdio_output@@QEAA@XZ 0000000180081db0 f i libucrtd:output.obj
 0001:00080dd0       ??1?$output_adapter_data@DV?$stream_output_adapter@D@__crt_stdio_output@@@__crt_stdio_output@@QEAA@XZ 0000000180081dd0 f i libucrtd:output.obj
 0001:00080df0       ??1?$output_adapter_data@DV?$string_output_adapter@D@__crt_stdio_output@@@__crt_stdio_output@@QEAA@XZ 0000000180081df0 f i libucrtd:output.obj
 0001:00080e10       ??1?$output_adapter_data@_WV?$stream_output_adapter@_W@__crt_stdio_output@@@__crt_stdio_output@@QEAA@XZ 0000000180081e10 f i libucrtd:output.obj
 0001:00080e30       ??1?$output_adapter_data@_WV?$string_output_adapter@_W@__crt_stdio_output@@@__crt_stdio_output@@QEAA@XZ 0000000180081e30 f i libucrtd:output.obj
 0001:00080e50       ??1?$output_processor@DV?$stream_output_adapter@D@__crt_stdio_output@@V?$format_validation_base@DV?$stream_output_adapter@D@__crt_stdio_output@@@2@@__crt_stdio_output@@QEAA@XZ 0000000180081e50 f i libucrtd:output.obj
 0001:00080e70       ??1?$output_processor@DV?$stream_output_adapter@D@__crt_stdio_output@@V?$positional_parameter_base@DV?$stream_output_adapter@D@__crt_stdio_output@@@2@@__crt_stdio_output@@QEAA@XZ 0000000180081e70 f i libucrtd:output.obj
 0001:00080e90       ??1?$output_processor@DV?$stream_output_adapter@D@__crt_stdio_output@@V?$standard_base@DV?$stream_output_adapter@D@__crt_stdio_output@@@2@@__crt_stdio_output@@QEAA@XZ 0000000180081e90 f i libucrtd:output.obj
 0001:00080eb0       ??1?$output_processor@DV?$string_output_adapter@D@__crt_stdio_output@@V?$format_validation_base@DV?$string_output_adapter@D@__crt_stdio_output@@@2@@__crt_stdio_output@@QEAA@XZ 0000000180081eb0 f i libucrtd:output.obj
 0001:00080ed0       ??1?$output_processor@DV?$string_output_adapter@D@__crt_stdio_output@@V?$positional_parameter_base@DV?$string_output_adapter@D@__crt_stdio_output@@@2@@__crt_stdio_output@@QEAA@XZ 0000000180081ed0 f i libucrtd:output.obj
 0001:00080ef0       ??1?$output_processor@DV?$string_output_adapter@D@__crt_stdio_output@@V?$standard_base@DV?$string_output_adapter@D@__crt_stdio_output@@@2@@__crt_stdio_output@@QEAA@XZ 0000000180081ef0 f i libucrtd:output.obj
 0001:00080f10       ??1?$output_processor@_WV?$stream_output_adapter@_W@__crt_stdio_output@@V?$format_validation_base@_WV?$stream_output_adapter@_W@__crt_stdio_output@@@2@@__crt_stdio_output@@QEAA@XZ 0000000180081f10 f i libucrtd:output.obj
 0001:00080f30       ??1?$output_processor@_WV?$stream_output_adapter@_W@__crt_stdio_output@@V?$positional_parameter_base@_WV?$stream_output_adapter@_W@__crt_stdio_output@@@2@@__crt_stdio_output@@QEAA@XZ 0000000180081f30 f i libucrtd:output.obj
 0001:00080f50       ??1?$output_processor@_WV?$stream_output_adapter@_W@__crt_stdio_output@@V?$standard_base@_WV?$stream_output_adapter@_W@__crt_stdio_output@@@2@@__crt_stdio_output@@QEAA@XZ 0000000180081f50 f i libucrtd:output.obj
 0001:00080f70       ??1?$output_processor@_WV?$string_output_adapter@_W@__crt_stdio_output@@V?$format_validation_base@_WV?$string_output_adapter@_W@__crt_stdio_output@@@2@@__crt_stdio_output@@QEAA@XZ 0000000180081f70 f i libucrtd:output.obj
 0001:00080f90       ??1?$output_processor@_WV?$string_output_adapter@_W@__crt_stdio_output@@V?$positional_parameter_base@_WV?$string_output_adapter@_W@__crt_stdio_output@@@2@@__crt_stdio_output@@QEAA@XZ 0000000180081f90 f i libucrtd:output.obj
 0001:00080fb0       ??1?$output_processor@_WV?$string_output_adapter@_W@__crt_stdio_output@@V?$standard_base@_WV?$string_output_adapter@_W@__crt_stdio_output@@@2@@__crt_stdio_output@@QEAA@XZ 0000000180081fb0 f i libucrtd:output.obj
 0001:00080fd0       ??1?$positional_parameter_base@DV?$stream_output_adapter@D@__crt_stdio_output@@@__crt_stdio_output@@QEAA@XZ 0000000180081fd0 f i libucrtd:output.obj
 0001:00080ff0       ??1?$positional_parameter_base@DV?$string_output_adapter@D@__crt_stdio_output@@@__crt_stdio_output@@QEAA@XZ 0000000180081ff0 f i libucrtd:output.obj
 0001:00081010       ??1?$positional_parameter_base@_WV?$stream_output_adapter@_W@__crt_stdio_output@@@__crt_stdio_output@@QEAA@XZ 0000000180082010 f i libucrtd:output.obj
 0001:00081030       ??1?$positional_parameter_base@_WV?$string_output_adapter@_W@__crt_stdio_output@@@__crt_stdio_output@@QEAA@XZ 0000000180082030 f i libucrtd:output.obj
 0001:00081050       ??1?$standard_base@DV?$stream_output_adapter@D@__crt_stdio_output@@@__crt_stdio_output@@QEAA@XZ 0000000180082050 f i libucrtd:output.obj
 0001:00081070       ??1?$standard_base@DV?$string_output_adapter@D@__crt_stdio_output@@@__crt_stdio_output@@QEAA@XZ 0000000180082070 f i libucrtd:output.obj
 0001:00081090       ??1?$standard_base@_WV?$stream_output_adapter@_W@__crt_stdio_output@@@__crt_stdio_output@@QEAA@XZ 0000000180082090 f i libucrtd:output.obj
 0001:000810b0       ??1?$standard_base@_WV?$string_output_adapter@_W@__crt_stdio_output@@@__crt_stdio_output@@QEAA@XZ 00000001800820b0 f i libucrtd:output.obj
 0001:000810d0       ??1__acrt_stdio_temporary_buffering_guard@@QEAA@XZ 00000001800820d0 f i libucrtd:output.obj
 0001:00081110       ??1formatting_buffer@__crt_stdio_output@@QEAA@XZ 0000000180082110 f i libucrtd:output.obj
 0001:00081140       ??1guard@?$cached@H@__crt_cached_ptd_host@@QEAA@XZ 0000000180082140 f i libucrtd:output.obj
 0001:00081170       ??4?$__crt_unique_heap_ptr@DU__crt_internal_free_policy@@@@QEAAAEAV0@$$QEAV0@@Z 0000000180082170 f i libucrtd:output.obj
 0001:000811c0       ??A?$spectre_mitigated_lookup_table@Ustate_transition_pair@__crt_stdio_output@@$0IA@@__crt_stdio_output@@QEBAAEBUstate_transition_pair@1@_K@Z 00000001800821c0 f i libucrtd:output.obj
 0001:000811f0       ??C__crt_stdio_stream@@QEBAPEAU__crt_stdio_stream_data@@XZ 00000001800821f0 f i libucrtd:output.obj
 0001:00081cf0       ?__crt_interlocked_read_32@@YAHPEDH@Z 0000000180082cf0 f i libucrtd:output.obj
 0001:00081d20       ?adjust_hexit@?$output_processor@DV?$stream_output_adapter@D@__crt_stdio_output@@V?$format_validation_base@DV?$stream_output_adapter@D@__crt_stdio_output@@@2@@__crt_stdio_output@@CADH_N@Z 0000000180082d20 f i libucrtd:output.obj
 0001:00081d80       ?adjust_hexit@?$output_processor@DV?$stream_output_adapter@D@__crt_stdio_output@@V?$positional_parameter_base@DV?$stream_output_adapter@D@__crt_stdio_output@@@2@@__crt_stdio_output@@CADH_N@Z 0000000180082d80 f i libucrtd:output.obj
 0001:00081de0       ?adjust_hexit@?$output_processor@DV?$stream_output_adapter@D@__crt_stdio_output@@V?$standard_base@DV?$stream_output_adapter@D@__crt_stdio_output@@@2@@__crt_stdio_output@@CADH_N@Z 0000000180082de0 f i libucrtd:output.obj
 0001:00081e40       ?adjust_hexit@?$output_processor@DV?$string_output_adapter@D@__crt_stdio_output@@V?$format_validation_base@DV?$string_output_adapter@D@__crt_stdio_output@@@2@@__crt_stdio_output@@CADH_N@Z 0000000180082e40 f i libucrtd:output.obj
 0001:00081ea0       ?adjust_hexit@?$output_processor@DV?$string_output_adapter@D@__crt_stdio_output@@V?$positional_parameter_base@DV?$string_output_adapter@D@__crt_stdio_output@@@2@@__crt_stdio_output@@CADH_N@Z 0000000180082ea0 f i libucrtd:output.obj
 0001:00081f00       ?adjust_hexit@?$output_processor@DV?$string_output_adapter@D@__crt_stdio_output@@V?$standard_base@DV?$string_output_adapter@D@__crt_stdio_output@@@2@@__crt_stdio_output@@CADH_N@Z 0000000180082f00 f i libucrtd:output.obj
 0001:00081f60       ?adjust_hexit@?$output_processor@_WV?$stream_output_adapter@_W@__crt_stdio_output@@V?$format_validation_base@_WV?$stream_output_adapter@_W@__crt_stdio_output@@@2@@__crt_stdio_output@@CADH_N@Z 0000000180082f60 f i libucrtd:output.obj
 0001:00081fc0       ?adjust_hexit@?$output_processor@_WV?$stream_output_adapter@_W@__crt_stdio_output@@V?$positional_parameter_base@_WV?$stream_output_adapter@_W@__crt_stdio_output@@@2@@__crt_stdio_output@@CADH_N@Z 0000000180082fc0 f i libucrtd:output.obj
 0001:00082020       ?adjust_hexit@?$output_processor@_WV?$stream_output_adapter@_W@__crt_stdio_output@@V?$standard_base@_WV?$stream_output_adapter@_W@__crt_stdio_output@@@2@@__crt_stdio_output@@CADH_N@Z 0000000180083020 f i libucrtd:output.obj
 0001:00082080       ?adjust_hexit@?$output_processor@_WV?$string_output_adapter@_W@__crt_stdio_output@@V?$format_validation_base@_WV?$string_output_adapter@_W@__crt_stdio_output@@@2@@__crt_stdio_output@@CADH_N@Z 0000000180083080 f i libucrtd:output.obj
 0001:000820e0       ?adjust_hexit@?$output_processor@_WV?$string_output_adapter@_W@__crt_stdio_output@@V?$positional_parameter_base@_WV?$string_output_adapter@_W@__crt_stdio_output@@@2@@__crt_stdio_output@@CADH_N@Z 00000001800830e0 f i libucrtd:output.obj
 0001:00082140       ?adjust_hexit@?$output_processor@_WV?$string_output_adapter@_W@__crt_stdio_output@@V?$standard_base@_WV?$string_output_adapter@_W@__crt_stdio_output@@@2@@__crt_stdio_output@@CADH_N@Z 0000000180083140 f i libucrtd:output.obj
 0001:000821a0       ?advance_to_next_pass@?$positional_parameter_base@DV?$stream_output_adapter@D@__crt_stdio_output@@@__crt_stdio_output@@IEAA_NXZ 00000001800831a0 f i libucrtd:output.obj
 0001:00082280       ?advance_to_next_pass@?$positional_parameter_base@DV?$string_output_adapter@D@__crt_stdio_output@@@__crt_stdio_output@@IEAA_NXZ 0000000180083280 f i libucrtd:output.obj
 0001:00082360       ?advance_to_next_pass@?$positional_parameter_base@_WV?$stream_output_adapter@_W@__crt_stdio_output@@@__crt_stdio_output@@IEAA_NXZ 0000000180083360 f i libucrtd:output.obj
 0001:00082440       ?advance_to_next_pass@?$positional_parameter_base@_WV?$string_output_adapter@_W@__crt_stdio_output@@@__crt_stdio_output@@IEAA_NXZ 0000000180083440 f i libucrtd:output.obj
 0001:00082520       ?advance_to_next_pass@?$standard_base@DV?$stream_output_adapter@D@__crt_stdio_output@@@__crt_stdio_output@@IEAA_NXZ 0000000180083520 f i libucrtd:output.obj
 0001:00082580       ?advance_to_next_pass@?$standard_base@DV?$string_output_adapter@D@__crt_stdio_output@@@__crt_stdio_output@@IEAA_NXZ 0000000180083580 f i libucrtd:output.obj
 0001:000825e0       ?advance_to_next_pass@?$standard_base@_WV?$stream_output_adapter@_W@__crt_stdio_output@@@__crt_stdio_output@@IEAA_NXZ 00000001800835e0 f i libucrtd:output.obj
 0001:00082640       ?advance_to_next_pass@?$standard_base@_WV?$string_output_adapter@_W@__crt_stdio_output@@@__crt_stdio_output@@IEAA_NXZ 0000000180083640 f i libucrtd:output.obj
 0001:000826a0       ?check@?$cached@H@__crt_cached_ptd_host@@QEBA_NH@Z 00000001800836a0 f i libucrtd:output.obj
 0001:000826f0       ?create_guard@?$cached@H@__crt_cached_ptd_host@@QEAA?AVguard@12@XZ 00000001800836f0 f i libucrtd:output.obj
 0001:00082720       ?crop_zeroes@__crt_stdio_output@@YAXPEADQEAU__crt_locale_pointers@@@Z 0000000180083720 f i libucrtd:output.obj
 0001:000828c0       ?disable@guard@?$cached@H@__crt_cached_ptd_host@@QEAAXXZ 00000001800838c0 f i libucrtd:output.obj
 0001:000828e0       ?enable@guard@?$cached@H@__crt_cached_ptd_host@@QEAAXXZ 00000001800838e0 f i libucrtd:output.obj
 0001:00082900       ?find_next_state@?$output_processor@DV?$stream_output_adapter@D@__crt_stdio_output@@V?$format_validation_base@DV?$stream_output_adapter@D@__crt_stdio_output@@@2@@__crt_stdio_output@@AEBA?AW4state@2@DW432@@Z 0000000180083900 f i libucrtd:output.obj
 0001:000829c0       ?find_next_state@?$output_processor@DV?$stream_output_adapter@D@__crt_stdio_output@@V?$positional_parameter_base@DV?$stream_output_adapter@D@__crt_stdio_output@@@2@@__crt_stdio_output@@AEBA?AW4state@2@DW432@@Z 00000001800839c0 f i libucrtd:output.obj
 0001:00082a80       ?find_next_state@?$output_processor@DV?$stream_output_adapter@D@__crt_stdio_output@@V?$standard_base@DV?$stream_output_adapter@D@__crt_stdio_output@@@2@@__crt_stdio_output@@AEBA?AW4state@2@DW432@@Z 0000000180083a80 f i libucrtd:output.obj
 0001:00082b40       ?find_next_state@?$output_processor@DV?$string_output_adapter@D@__crt_stdio_output@@V?$format_validation_base@DV?$string_output_adapter@D@__crt_stdio_output@@@2@@__crt_stdio_output@@AEBA?AW4state@2@DW432@@Z 0000000180083b40 f i libucrtd:output.obj
 0001:00082c00       ?find_next_state@?$output_processor@DV?$string_output_adapter@D@__crt_stdio_output@@V?$positional_parameter_base@DV?$string_output_adapter@D@__crt_stdio_output@@@2@@__crt_stdio_output@@AEBA?AW4state@2@DW432@@Z 0000000180083c00 f i libucrtd:output.obj
 0001:00082cc0       ?find_next_state@?$output_processor@DV?$string_output_adapter@D@__crt_stdio_output@@V?$standard_base@DV?$string_output_adapter@D@__crt_stdio_output@@@2@@__crt_stdio_output@@AEBA?AW4state@2@DW432@@Z 0000000180083cc0 f i libucrtd:output.obj
 0001:00082d80       ?find_next_state@?$output_processor@_WV?$stream_output_adapter@_W@__crt_stdio_output@@V?$format_validation_base@_WV?$stream_output_adapter@_W@__crt_stdio_output@@@2@@__crt_stdio_output@@AEBA?AW4state@2@_WW432@@Z 0000000180083d80 f i libucrtd:output.obj
 0001:00082e40       ?find_next_state@?$output_processor@_WV?$stream_output_adapter@_W@__crt_stdio_output@@V?$positional_parameter_base@_WV?$stream_output_adapter@_W@__crt_stdio_output@@@2@@__crt_stdio_output@@AEBA?AW4state@2@_WW432@@Z 0000000180083e40 f i libucrtd:output.obj
 0001:00082f00       ?find_next_state@?$output_processor@_WV?$stream_output_adapter@_W@__crt_stdio_output@@V?$standard_base@_WV?$stream_output_adapter@_W@__crt_stdio_output@@@2@@__crt_stdio_output@@AEBA?AW4state@2@_WW432@@Z 0000000180083f00 f i libucrtd:output.obj
 0001:00082fc0       ?find_next_state@?$output_processor@_WV?$string_output_adapter@_W@__crt_stdio_output@@V?$format_validation_base@_WV?$string_output_adapter@_W@__crt_stdio_output@@@2@@__crt_stdio_output@@AEBA?AW4state@2@_WW432@@Z 0000000180083fc0 f i libucrtd:output.obj
 0001:00083080       ?find_next_state@?$output_processor@_WV?$string_output_adapter@_W@__crt_stdio_output@@V?$positional_parameter_base@_WV?$string_output_adapter@_W@__crt_stdio_output@@@2@@__crt_stdio_output@@AEBA?AW4state@2@_WW432@@Z 0000000180084080 f i libucrtd:output.obj
 0001:00083140       ?find_next_state@?$output_processor@_WV?$string_output_adapter@_W@__crt_stdio_output@@V?$standard_base@_WV?$string_output_adapter@_W@__crt_stdio_output@@@2@@__crt_stdio_output@@AEBA?AW4state@2@_WW432@@Z 0000000180084140 f i libucrtd:output.obj
 0001:00083200       ?force_decimal_point@__crt_stdio_output@@YAXPEADQEAU__crt_locale_pointers@@@Z 0000000180084200 f i libucrtd:output.obj
 0001:00083330       ?get@?$c_string_character_source@D@__crt_strtox@@QEAADXZ 0000000180084330 f i libucrtd:output.obj
 0001:00083370       ?get@?$c_string_character_source@_W@__crt_strtox@@QEAA_WXZ 0000000180084370 f i libucrtd:output.obj
 0001:000833c0       ?get_errno@__crt_cached_ptd_host@@QEAAAEAU?$cached@H@1@XZ 00000001800843c0 f i libucrtd:output.obj
 0001:000833e0       ?get_flags@__crt_stdio_stream@@QEBAJXZ 00000001800843e0 f i libucrtd:output.obj
 0001:00083410       ?get_locale@__crt_cached_ptd_host@@QEAAPEAU__crt_locale_pointers@@XZ 0000000180084410 f i libucrtd:output.obj
 0001:00083440       ?get_parameter_type@?$positional_parameter_base@DV?$stream_output_adapter@D@__crt_stdio_output@@@__crt_stdio_output@@CA?AW4parameter_type@12@F@Z 0000000180084440 f i libucrtd:output.obj
 0001:00083450       ?get_parameter_type@?$positional_parameter_base@DV?$stream_output_adapter@D@__crt_stdio_output@@@__crt_stdio_output@@CA?AW4parameter_type@12@G@Z 0000000180084450 f i libucrtd:output.obj
 0001:00083460       ?get_parameter_type@?$positional_parameter_base@DV?$stream_output_adapter@D@__crt_stdio_output@@@__crt_stdio_output@@CA?AW4parameter_type@12@H@Z 0000000180084460 f i libucrtd:output.obj
 0001:00083470       ?get_parameter_type@?$positional_parameter_base@DV?$stream_output_adapter@D@__crt_stdio_output@@@__crt_stdio_output@@CA?AW4parameter_type@12@I@Z 0000000180084470 f i libucrtd:output.obj
 0001:00083480       ?get_parameter_type@?$positional_parameter_base@DV?$stream_output_adapter@D@__crt_stdio_output@@@__crt_stdio_output@@CA?AW4parameter_type@12@U_CRT_DOUBLE@@@Z 0000000180084480 f i libucrtd:output.obj
 0001:00083490       ?get_parameter_type@?$positional_parameter_base@DV?$stream_output_adapter@D@__crt_stdio_output@@@__crt_stdio_output@@CA?AW4parameter_type@12@_J@Z 0000000180084490 f i libucrtd:output.obj
 0001:000834a0       ?get_parameter_type@?$positional_parameter_base@DV?$stream_output_adapter@D@__crt_stdio_output@@@__crt_stdio_output@@CA?AW4parameter_type@12@_K@Z 00000001800844a0 f i libucrtd:output.obj
 0001:000834b0       ?get_parameter_type@?$positional_parameter_base@DV?$stream_output_adapter@D@__crt_stdio_output@@@__crt_stdio_output@@CA?AW4parameter_type@12@_W@Z 00000001800844b0 f i libucrtd:output.obj
 0001:000834c0       ?get_parameter_type@?$positional_parameter_base@DV?$string_output_adapter@D@__crt_stdio_output@@@__crt_stdio_output@@CA?AW4parameter_type@12@F@Z 00000001800844c0 f i libucrtd:output.obj
 0001:000834d0       ?get_parameter_type@?$positional_parameter_base@DV?$string_output_adapter@D@__crt_stdio_output@@@__crt_stdio_output@@CA?AW4parameter_type@12@G@Z 00000001800844d0 f i libucrtd:output.obj
 0001:000834e0       ?get_parameter_type@?$positional_parameter_base@DV?$string_output_adapter@D@__crt_stdio_output@@@__crt_stdio_output@@CA?AW4parameter_type@12@H@Z 00000001800844e0 f i libucrtd:output.obj
 0001:000834f0       ?get_parameter_type@?$positional_parameter_base@DV?$string_output_adapter@D@__crt_stdio_output@@@__crt_stdio_output@@CA?AW4parameter_type@12@I@Z 00000001800844f0 f i libucrtd:output.obj
 0001:00083500       ?get_parameter_type@?$positional_parameter_base@DV?$string_output_adapter@D@__crt_stdio_output@@@__crt_stdio_output@@CA?AW4parameter_type@12@U_CRT_DOUBLE@@@Z 0000000180084500 f i libucrtd:output.obj
 0001:00083510       ?get_parameter_type@?$positional_parameter_base@DV?$string_output_adapter@D@__crt_stdio_output@@@__crt_stdio_output@@CA?AW4parameter_type@12@_J@Z 0000000180084510 f i libucrtd:output.obj
 0001:00083520       ?get_parameter_type@?$positional_parameter_base@DV?$string_output_adapter@D@__crt_stdio_output@@@__crt_stdio_output@@CA?AW4parameter_type@12@_K@Z 0000000180084520 f i libucrtd:output.obj
 0001:00083530       ?get_parameter_type@?$positional_parameter_base@DV?$string_output_adapter@D@__crt_stdio_output@@@__crt_stdio_output@@CA?AW4parameter_type@12@_W@Z 0000000180084530 f i libucrtd:output.obj
 0001:00083540       ?get_parameter_type@?$positional_parameter_base@_WV?$stream_output_adapter@_W@__crt_stdio_output@@@__crt_stdio_output@@CA?AW4parameter_type@12@F@Z 0000000180084540 f i libucrtd:output.obj
 0001:00083550       ?get_parameter_type@?$positional_parameter_base@_WV?$stream_output_adapter@_W@__crt_stdio_output@@@__crt_stdio_output@@CA?AW4parameter_type@12@G@Z 0000000180084550 f i libucrtd:output.obj
 0001:00083560       ?get_parameter_type@?$positional_parameter_base@_WV?$stream_output_adapter@_W@__crt_stdio_output@@@__crt_stdio_output@@CA?AW4parameter_type@12@H@Z 0000000180084560 f i libucrtd:output.obj
 0001:00083570       ?get_parameter_type@?$positional_parameter_base@_WV?$stream_output_adapter@_W@__crt_stdio_output@@@__crt_stdio_output@@CA?AW4parameter_type@12@I@Z 0000000180084570 f i libucrtd:output.obj
 0001:00083580       ?get_parameter_type@?$positional_parameter_base@_WV?$stream_output_adapter@_W@__crt_stdio_output@@@__crt_stdio_output@@CA?AW4parameter_type@12@U_CRT_DOUBLE@@@Z 0000000180084580 f i libucrtd:output.obj
 0001:00083590       ?get_parameter_type@?$positional_parameter_base@_WV?$stream_output_adapter@_W@__crt_stdio_output@@@__crt_stdio_output@@CA?AW4parameter_type@12@_J@Z 0000000180084590 f i libucrtd:output.obj
 0001:000835a0       ?get_parameter_type@?$positional_parameter_base@_WV?$stream_output_adapter@_W@__crt_stdio_output@@@__crt_stdio_output@@CA?AW4parameter_type@12@_K@Z 00000001800845a0 f i libucrtd:output.obj
 0001:000835b0       ?get_parameter_type@?$positional_parameter_base@_WV?$stream_output_adapter@_W@__crt_stdio_output@@@__crt_stdio_output@@CA?AW4parameter_type@12@_W@Z 00000001800845b0 f i libucrtd:output.obj
 0001:000835c0       ?get_parameter_type@?$positional_parameter_base@_WV?$string_output_adapter@_W@__crt_stdio_output@@@__crt_stdio_output@@CA?AW4parameter_type@12@F@Z 00000001800845c0 f i libucrtd:output.obj
 0001:000835d0       ?get_parameter_type@?$positional_parameter_base@_WV?$string_output_adapter@_W@__crt_stdio_output@@@__crt_stdio_output@@CA?AW4parameter_type@12@G@Z 00000001800845d0 f i libucrtd:output.obj
 0001:000835e0       ?get_parameter_type@?$positional_parameter_base@_WV?$string_output_adapter@_W@__crt_stdio_output@@@__crt_stdio_output@@CA?AW4parameter_type@12@H@Z 00000001800845e0 f i libucrtd:output.obj
 0001:000835f0       ?get_parameter_type@?$positional_parameter_base@_WV?$string_output_adapter@_W@__crt_stdio_output@@@__crt_stdio_output@@CA?AW4parameter_type@12@I@Z 00000001800845f0 f i libucrtd:output.obj
 0001:00083600       ?get_parameter_type@?$positional_parameter_base@_WV?$string_output_adapter@_W@__crt_stdio_output@@@__crt_stdio_output@@CA?AW4parameter_type@12@U_CRT_DOUBLE@@@Z 0000000180084600 f i libucrtd:output.obj
 0001:00083610       ?get_parameter_type@?$positional_parameter_base@_WV?$string_output_adapter@_W@__crt_stdio_output@@@__crt_stdio_output@@CA?AW4parameter_type@12@_J@Z 0000000180084610 f i libucrtd:output.obj
 0001:00083620       ?get_parameter_type@?$positional_parameter_base@_WV?$string_output_adapter@_W@__crt_stdio_output@@@__crt_stdio_output@@CA?AW4parameter_type@12@_K@Z 0000000180084620 f i libucrtd:output.obj
 0001:00083630       ?get_parameter_type@?$positional_parameter_base@_WV?$string_output_adapter@_W@__crt_stdio_output@@@__crt_stdio_output@@CA?AW4parameter_type@12@_W@Z 0000000180084630 f i libucrtd:output.obj
 0001:00083640       ?has_flag@?$output_processor@DV?$stream_output_adapter@D@__crt_stdio_output@@V?$format_validation_base@DV?$stream_output_adapter@D@__crt_stdio_output@@@2@@__crt_stdio_output@@AEBA_NI@Z 0000000180084640 f i libucrtd:output.obj
 0001:00083690       ?has_flag@?$output_processor@DV?$stream_output_adapter@D@__crt_stdio_output@@V?$positional_parameter_base@DV?$stream_output_adapter@D@__crt_stdio_output@@@2@@__crt_stdio_output@@AEBA_NI@Z 0000000180084690 f i libucrtd:output.obj
 0001:000836e0       ?has_flag@?$output_processor@DV?$stream_output_adapter@D@__crt_stdio_output@@V?$standard_base@DV?$stream_output_adapter@D@__crt_stdio_output@@@2@@__crt_stdio_output@@AEBA_NI@Z 00000001800846e0 f i libucrtd:output.obj
 0001:00083730       ?has_flag@?$output_processor@DV?$string_output_adapter@D@__crt_stdio_output@@V?$format_validation_base@DV?$string_output_adapter@D@__crt_stdio_output@@@2@@__crt_stdio_output@@AEBA_NI@Z 0000000180084730 f i libucrtd:output.obj
 0001:00083780       ?has_flag@?$output_processor@DV?$string_output_adapter@D@__crt_stdio_output@@V?$positional_parameter_base@DV?$string_output_adapter@D@__crt_stdio_output@@@2@@__crt_stdio_output@@AEBA_NI@Z 0000000180084780 f i libucrtd:output.obj
 0001:000837d0       ?has_flag@?$output_processor@DV?$string_output_adapter@D@__crt_stdio_output@@V?$standard_base@DV?$string_output_adapter@D@__crt_stdio_output@@@2@@__crt_stdio_output@@AEBA_NI@Z 00000001800847d0 f i libucrtd:output.obj
 0001:00083820       ?has_flag@?$output_processor@_WV?$stream_output_adapter@_W@__crt_stdio_output@@V?$format_validation_base@_WV?$stream_output_adapter@_W@__crt_stdio_output@@@2@@__crt_stdio_output@@AEBA_NI@Z 0000000180084820 f i libucrtd:output.obj
 0001:00083870       ?has_flag@?$output_processor@_WV?$stream_output_adapter@_W@__crt_stdio_output@@V?$positional_parameter_base@_WV?$stream_output_adapter@_W@__crt_stdio_output@@@2@@__crt_stdio_output@@AEBA_NI@Z 0000000180084870 f i libucrtd:output.obj
 0001:000838c0       ?has_flag@?$output_processor@_WV?$stream_output_adapter@_W@__crt_stdio_output@@V?$standard_base@_WV?$stream_output_adapter@_W@__crt_stdio_output@@@2@@__crt_stdio_output@@AEBA_NI@Z 00000001800848c0 f i libucrtd:output.obj
 0001:00083910       ?has_flag@?$output_processor@_WV?$string_output_adapter@_W@__crt_stdio_output@@V?$format_validation_base@_WV?$string_output_adapter@_W@__crt_stdio_output@@@2@@__crt_stdio_output@@AEBA_NI@Z 0000000180084910 f i libucrtd:output.obj
 0001:00083960       ?has_flag@?$output_processor@_WV?$string_output_adapter@_W@__crt_stdio_output@@V?$positional_parameter_base@_WV?$string_output_adapter@_W@__crt_stdio_output@@@2@@__crt_stdio_output@@AEBA_NI@Z 0000000180084960 f i libucrtd:output.obj
 0001:000839b0       ?has_flag@?$output_processor@_WV?$string_output_adapter@_W@__crt_stdio_output@@V?$standard_base@_WV?$string_output_adapter@_W@__crt_stdio_output@@@2@@__crt_stdio_output@@AEBA_NI@Z 00000001800849b0 f i libucrtd:output.obj
 0001:00083a00       ?is_positional_parameter_reappearance_consistent@?$positional_parameter_base@DV?$stream_output_adapter@D@__crt_stdio_output@@@__crt_stdio_output@@AEAA_NAEBUparameter_data@12@W4parameter_type@12@DW4length_modifier@2@@Z 0000000180084a00 f i libucrtd:output.obj
 0001:00083cf0       ?is_positional_parameter_reappearance_consistent@?$positional_parameter_base@DV?$string_output_adapter@D@__crt_stdio_output@@@__crt_stdio_output@@AEAA_NAEBUparameter_data@12@W4parameter_type@12@DW4length_modifier@2@@Z 0000000180084cf0 f i libucrtd:output.obj
 0001:00083fe0       ?is_positional_parameter_reappearance_consistent@?$positional_parameter_base@_WV?$stream_output_adapter@_W@__crt_stdio_output@@@__crt_stdio_output@@AEAA_NAEBUparameter_data@12@W4parameter_type@12@_WW4length_modifier@2@@Z 0000000180084fe0 f i libucrtd:output.obj
 0001:000842d0       ?is_positional_parameter_reappearance_consistent@?$positional_parameter_base@_WV?$string_output_adapter@_W@__crt_stdio_output@@@__crt_stdio_output@@AEAA_NAEBUparameter_data@12@W4parameter_type@12@_WW4length_modifier@2@@Z 00000001800852d0 f i libucrtd:output.obj
 0001:000845c0       ?is_string_backed@__crt_stdio_stream@@QEBA_NXZ 00000001800855c0 f i libucrtd:output.obj
 0001:00084610       ?maximum_signed_value@__crt_strtox@@YAJK@Z 0000000180085610 f i libucrtd:output.obj
 0001:00084620       ?minimum_signed_value@__crt_strtox@@YAJK@Z 0000000180085620 f i libucrtd:output.obj
 0001:00084630       ?narrow_null_string@?$output_processor@DV?$stream_output_adapter@D@__crt_stdio_output@@V?$format_validation_base@DV?$stream_output_adapter@D@__crt_stdio_output@@@2@@__crt_stdio_output@@CAPEADXZ 0000000180085630 f i libucrtd:output.obj
 0001:00084640       ?narrow_null_string@?$output_processor@DV?$stream_output_adapter@D@__crt_stdio_output@@V?$positional_parameter_base@DV?$stream_output_adapter@D@__crt_stdio_output@@@2@@__crt_stdio_output@@CAPEADXZ 0000000180085640 f i libucrtd:output.obj
 0001:00084650       ?narrow_null_string@?$output_processor@DV?$stream_output_adapter@D@__crt_stdio_output@@V?$standard_base@DV?$stream_output_adapter@D@__crt_stdio_output@@@2@@__crt_stdio_output@@CAPEADXZ 0000000180085650 f i libucrtd:output.obj
 0001:00084660       ?narrow_null_string@?$output_processor@DV?$string_output_adapter@D@__crt_stdio_output@@V?$format_validation_base@DV?$string_output_adapter@D@__crt_stdio_output@@@2@@__crt_stdio_output@@CAPEADXZ 0000000180085660 f i libucrtd:output.obj
 0001:00084670       ?narrow_null_string@?$output_processor@DV?$string_output_adapter@D@__crt_stdio_output@@V?$positional_parameter_base@DV?$string_output_adapter@D@__crt_stdio_output@@@2@@__crt_stdio_output@@CAPEADXZ 0000000180085670 f i libucrtd:output.obj
 0001:00084680       ?narrow_null_string@?$output_processor@DV?$string_output_adapter@D@__crt_stdio_output@@V?$standard_base@DV?$string_output_adapter@D@__crt_stdio_output@@@2@@__crt_stdio_output@@CAPEADXZ 0000000180085680 f i libucrtd:output.obj
 0001:00084690       ?narrow_null_string@?$output_processor@_WV?$stream_output_adapter@_W@__crt_stdio_output@@V?$format_validation_base@_WV?$stream_output_adapter@_W@__crt_stdio_output@@@2@@__crt_stdio_output@@CAPEADXZ 0000000180085690 f i libucrtd:output.obj
 0001:000846a0       ?narrow_null_string@?$output_processor@_WV?$stream_output_adapter@_W@__crt_stdio_output@@V?$positional_parameter_base@_WV?$stream_output_adapter@_W@__crt_stdio_output@@@2@@__crt_stdio_output@@CAPEADXZ 00000001800856a0 f i libucrtd:output.obj
 0001:000846b0       ?narrow_null_string@?$output_processor@_WV?$stream_output_adapter@_W@__crt_stdio_output@@V?$standard_base@_WV?$stream_output_adapter@_W@__crt_stdio_output@@@2@@__crt_stdio_output@@CAPEADXZ 00000001800856b0 f i libucrtd:output.obj
 0001:000846c0       ?narrow_null_string@?$output_processor@_WV?$string_output_adapter@_W@__crt_stdio_output@@V?$format_validation_base@_WV?$string_output_adapter@_W@__crt_stdio_output@@@2@@__crt_stdio_output@@CAPEADXZ 00000001800856c0 f i libucrtd:output.obj
 0001:000846d0       ?narrow_null_string@?$output_processor@_WV?$string_output_adapter@_W@__crt_stdio_output@@V?$positional_parameter_base@_WV?$string_output_adapter@_W@__crt_stdio_output@@@2@@__crt_stdio_output@@CAPEADXZ 00000001800856d0 f i libucrtd:output.obj
 0001:000846e0       ?narrow_null_string@?$output_processor@_WV?$string_output_adapter@_W@__crt_stdio_output@@V?$standard_base@_WV?$string_output_adapter@_W@__crt_stdio_output@@@2@@__crt_stdio_output@@CAPEADXZ 00000001800856e0 f i libucrtd:output.obj
 0001:000846f0       ?parse_digit@__crt_strtox@@YAID@Z 00000001800856f0 f i libucrtd:output.obj
 0001:00084770       ?parse_digit@__crt_strtox@@YAI_W@Z 0000000180085770 f i libucrtd:output.obj
 0001:000847e0       ?parse_int_from_format_string@?$output_processor@DV?$stream_output_adapter@D@__crt_stdio_output@@V?$format_validation_base@DV?$stream_output_adapter@D@__crt_stdio_output@@@2@@__crt_stdio_output@@AEAA_NQEAH@Z 00000001800857e0 f i libucrtd:output.obj
 0001:00084920       ?parse_int_from_format_string@?$output_processor@DV?$stream_output_adapter@D@__crt_stdio_output@@V?$positional_parameter_base@DV?$stream_output_adapter@D@__crt_stdio_output@@@2@@__crt_stdio_output@@AEAA_NQEAH@Z 0000000180085920 f i libucrtd:output.obj
 0001:00084a60       ?parse_int_from_format_string@?$output_processor@DV?$stream_output_adapter@D@__crt_stdio_output@@V?$standard_base@DV?$stream_output_adapter@D@__crt_stdio_output@@@2@@__crt_stdio_output@@AEAA_NQEAH@Z 0000000180085a60 f i libucrtd:output.obj
 0001:00084ba0       ?parse_int_from_format_string@?$output_processor@DV?$string_output_adapter@D@__crt_stdio_output@@V?$format_validation_base@DV?$string_output_adapter@D@__crt_stdio_output@@@2@@__crt_stdio_output@@AEAA_NQEAH@Z 0000000180085ba0 f i libucrtd:output.obj
 0001:00084ce0       ?parse_int_from_format_string@?$output_processor@DV?$string_output_adapter@D@__crt_stdio_output@@V?$positional_parameter_base@DV?$string_output_adapter@D@__crt_stdio_output@@@2@@__crt_stdio_output@@AEAA_NQEAH@Z 0000000180085ce0 f i libucrtd:output.obj
 0001:00084e20       ?parse_int_from_format_string@?$output_processor@DV?$string_output_adapter@D@__crt_stdio_output@@V?$standard_base@DV?$string_output_adapter@D@__crt_stdio_output@@@2@@__crt_stdio_output@@AEAA_NQEAH@Z 0000000180085e20 f i libucrtd:output.obj
 0001:00084f60       ?parse_int_from_format_string@?$output_processor@_WV?$stream_output_adapter@_W@__crt_stdio_output@@V?$format_validation_base@_WV?$stream_output_adapter@_W@__crt_stdio_output@@@2@@__crt_stdio_output@@AEAA_NQEAH@Z 0000000180085f60 f i libucrtd:output.obj
 0001:000850a0       ?parse_int_from_format_string@?$output_processor@_WV?$stream_output_adapter@_W@__crt_stdio_output@@V?$positional_parameter_base@_WV?$stream_output_adapter@_W@__crt_stdio_output@@@2@@__crt_stdio_output@@AEAA_NQEAH@Z 00000001800860a0 f i libucrtd:output.obj
 0001:000851e0       ?parse_int_from_format_string@?$output_processor@_WV?$stream_output_adapter@_W@__crt_stdio_output@@V?$standard_base@_WV?$stream_output_adapter@_W@__crt_stdio_output@@@2@@__crt_stdio_output@@AEAA_NQEAH@Z 00000001800861e0 f i libucrtd:output.obj
 0001:00085320       ?parse_int_from_format_string@?$output_processor@_WV?$string_output_adapter@_W@__crt_stdio_output@@V?$format_validation_base@_WV?$string_output_adapter@_W@__crt_stdio_output@@@2@@__crt_stdio_output@@AEAA_NQEAH@Z 0000000180086320 f i libucrtd:output.obj
 0001:00085460       ?parse_int_from_format_string@?$output_processor@_WV?$string_output_adapter@_W@__crt_stdio_output@@V?$positional_parameter_base@_WV?$string_output_adapter@_W@__crt_stdio_output@@@2@@__crt_stdio_output@@AEAA_NQEAH@Z 0000000180086460 f i libucrtd:output.obj
 0001:000855a0       ?parse_int_from_format_string@?$output_processor@_WV?$string_output_adapter@_W@__crt_stdio_output@@V?$standard_base@_WV?$string_output_adapter@_W@__crt_stdio_output@@@2@@__crt_stdio_output@@AEAA_NQEAH@Z 00000001800865a0 f i libucrtd:output.obj
 0001:000856e0       ?process@?$output_processor@DV?$stream_output_adapter@D@__crt_stdio_output@@V?$format_validation_base@DV?$stream_output_adapter@D@__crt_stdio_output@@@2@@__crt_stdio_output@@QEAAHXZ 00000001800866e0 f i libucrtd:output.obj
 0001:00085b90       ?process@?$output_processor@DV?$stream_output_adapter@D@__crt_stdio_output@@V?$positional_parameter_base@DV?$stream_output_adapter@D@__crt_stdio_output@@@2@@__crt_stdio_output@@QEAAHXZ 0000000180086b90 f i libucrtd:output.obj
 0001:00086040       ?process@?$output_processor@DV?$stream_output_adapter@D@__crt_stdio_output@@V?$standard_base@DV?$stream_output_adapter@D@__crt_stdio_output@@@2@@__crt_stdio_output@@QEAAHXZ 0000000180087040 f i libucrtd:output.obj
 0001:000864f0       ?process@?$output_processor@DV?$string_output_adapter@D@__crt_stdio_output@@V?$format_validation_base@DV?$string_output_adapter@D@__crt_stdio_output@@@2@@__crt_stdio_output@@QEAAHXZ 00000001800874f0 f i libucrtd:output.obj
 0001:000869a0       ?process@?$output_processor@DV?$string_output_adapter@D@__crt_stdio_output@@V?$positional_parameter_base@DV?$string_output_adapter@D@__crt_stdio_output@@@2@@__crt_stdio_output@@QEAAHXZ 00000001800879a0 f i libucrtd:output.obj
 0001:00086e50       ?process@?$output_processor@DV?$string_output_adapter@D@__crt_stdio_output@@V?$standard_base@DV?$string_output_adapter@D@__crt_stdio_output@@@2@@__crt_stdio_output@@QEAAHXZ 0000000180087e50 f i libucrtd:output.obj
 0001:00087300       ?process@?$output_processor@_WV?$stream_output_adapter@_W@__crt_stdio_output@@V?$format_validation_base@_WV?$stream_output_adapter@_W@__crt_stdio_output@@@2@@__crt_stdio_output@@QEAAHXZ 0000000180088300 f i libucrtd:output.obj
 0001:000877b0       ?process@?$output_processor@_WV?$stream_output_adapter@_W@__crt_stdio_output@@V?$positional_parameter_base@_WV?$stream_output_adapter@_W@__crt_stdio_output@@@2@@__crt_stdio_output@@QEAAHXZ 00000001800887b0 f i libucrtd:output.obj
 0001:00087c60       ?process@?$output_processor@_WV?$stream_output_adapter@_W@__crt_stdio_output@@V?$standard_base@_WV?$stream_output_adapter@_W@__crt_stdio_output@@@2@@__crt_stdio_output@@QEAAHXZ 0000000180088c60 f i libucrtd:output.obj
 0001:00088110       ?process@?$output_processor@_WV?$string_output_adapter@_W@__crt_stdio_output@@V?$format_validation_base@_WV?$string_output_adapter@_W@__crt_stdio_output@@@2@@__crt_stdio_output@@QEAAHXZ 0000000180089110 f i libucrtd:output.obj
 0001:000885c0       ?process@?$output_processor@_WV?$string_output_adapter@_W@__crt_stdio_output@@V?$positional_parameter_base@_WV?$string_output_adapter@_W@__crt_stdio_output@@@2@@__crt_stdio_output@@QEAAHXZ 00000001800895c0 f i libucrtd:output.obj
 0001:00088a70       ?process@?$output_processor@_WV?$string_output_adapter@_W@__crt_stdio_output@@V?$standard_base@_WV?$string_output_adapter@_W@__crt_stdio_output@@@2@@__crt_stdio_output@@QEAAHXZ 0000000180089a70 f i libucrtd:output.obj
 0001:00088f20       ?public_stream@__crt_stdio_stream@@QEBAPEAU_iobuf@@XZ 0000000180089f20 f i libucrtd:output.obj
 0001:00088f40       ?restore_state@?$c_string_character_source@D@__crt_strtox@@QEAA_NQEBD@Z 0000000180089f40 f i libucrtd:output.obj
 0001:00088f60       ?restore_state@?$c_string_character_source@_W@__crt_strtox@@QEAA_NQEB_W@Z 0000000180089f60 f i libucrtd:output.obj
 0001:00088f80       ?save_state@?$c_string_character_source@D@__crt_strtox@@QEBAPEBDXZ 0000000180089f80 f i libucrtd:output.obj
 0001:00088fa0       ?save_state@?$c_string_character_source@_W@__crt_strtox@@QEBAPEB_WXZ 0000000180089fa0 f i libucrtd:output.obj
 0001:00088fc0       ?set@?$cached@H@__crt_cached_ptd_host@@QEAAHH@Z 0000000180089fc0 f i libucrtd:output.obj
 0001:00088ff0       ?set_flag@?$output_processor@DV?$stream_output_adapter@D@__crt_stdio_output@@V?$format_validation_base@DV?$stream_output_adapter@D@__crt_stdio_output@@@2@@__crt_stdio_output@@AEAAXI@Z 0000000180089ff0 f i libucrtd:output.obj
 0001:00089020       ?set_flag@?$output_processor@DV?$stream_output_adapter@D@__crt_stdio_output@@V?$positional_parameter_base@DV?$stream_output_adapter@D@__crt_stdio_output@@@2@@__crt_stdio_output@@AEAAXI@Z 000000018008a020 f i libucrtd:output.obj
 0001:00089050       ?set_flag@?$output_processor@DV?$stream_output_adapter@D@__crt_stdio_output@@V?$standard_base@DV?$stream_output_adapter@D@__crt_stdio_output@@@2@@__crt_stdio_output@@AEAAXI@Z 000000018008a050 f i libucrtd:output.obj
 0001:00089080       ?set_flag@?$output_processor@DV?$string_output_adapter@D@__crt_stdio_output@@V?$format_validation_base@DV?$string_output_adapter@D@__crt_stdio_output@@@2@@__crt_stdio_output@@AEAAXI@Z 000000018008a080 f i libucrtd:output.obj
 0001:000890b0       ?set_flag@?$output_processor@DV?$string_output_adapter@D@__crt_stdio_output@@V?$positional_parameter_base@DV?$string_output_adapter@D@__crt_stdio_output@@@2@@__crt_stdio_output@@AEAAXI@Z 000000018008a0b0 f i libucrtd:output.obj
 0001:000890e0       ?set_flag@?$output_processor@DV?$string_output_adapter@D@__crt_stdio_output@@V?$standard_base@DV?$string_output_adapter@D@__crt_stdio_output@@@2@@__crt_stdio_output@@AEAAXI@Z 000000018008a0e0 f i libucrtd:output.obj
 0001:00089110       ?set_flag@?$output_processor@_WV?$stream_output_adapter@_W@__crt_stdio_output@@V?$format_validation_base@_WV?$stream_output_adapter@_W@__crt_stdio_output@@@2@@__crt_stdio_output@@AEAAXI@Z 000000018008a110 f i libucrtd:output.obj
 0001:00089140       ?set_flag@?$output_processor@_WV?$stream_output_adapter@_W@__crt_stdio_output@@V?$positional_parameter_base@_WV?$stream_output_adapter@_W@__crt_stdio_output@@@2@@__crt_stdio_output@@AEAAXI@Z 000000018008a140 f i libucrtd:output.obj
 0001:00089170       ?set_flag@?$output_processor@_WV?$stream_output_adapter@_W@__crt_stdio_output@@V?$standard_base@_WV?$stream_output_adapter@_W@__crt_stdio_output@@@2@@__crt_stdio_output@@AEAAXI@Z 000000018008a170 f i libucrtd:output.obj
 0001:000891a0       ?set_flag@?$output_processor@_WV?$string_output_adapter@_W@__crt_stdio_output@@V?$format_validation_base@_WV?$string_output_adapter@_W@__crt_stdio_output@@@2@@__crt_stdio_output@@AEAAXI@Z 000000018008a1a0 f i libucrtd:output.obj
 0001:000891d0       ?set_flag@?$output_processor@_WV?$string_output_adapter@_W@__crt_stdio_output@@V?$positional_parameter_base@_WV?$string_output_adapter@_W@__crt_stdio_output@@@2@@__crt_stdio_output@@AEAAXI@Z 000000018008a1d0 f i libucrtd:output.obj
 0001:00089200       ?set_flag@?$output_processor@_WV?$string_output_adapter@_W@__crt_stdio_output@@V?$standard_base@_WV?$string_output_adapter@_W@__crt_stdio_output@@@2@@__crt_stdio_output@@AEAAXI@Z 000000018008a200 f i libucrtd:output.obj
 0001:00089230       ?should_format@?$positional_parameter_base@DV?$stream_output_adapter@D@__crt_stdio_output@@@__crt_stdio_output@@IEAA_NXZ 000000018008a230 f i libucrtd:output.obj
 0001:00089280       ?should_format@?$positional_parameter_base@DV?$string_output_adapter@D@__crt_stdio_output@@@__crt_stdio_output@@IEAA_NXZ 000000018008a280 f i libucrtd:output.obj
 0001:000892d0       ?should_format@?$positional_parameter_base@_WV?$stream_output_adapter@_W@__crt_stdio_output@@@__crt_stdio_output@@IEAA_NXZ 000000018008a2d0 f i libucrtd:output.obj
 0001:00089320       ?should_format@?$positional_parameter_base@_WV?$string_output_adapter@_W@__crt_stdio_output@@@__crt_stdio_output@@IEAA_NXZ 000000018008a320 f i libucrtd:output.obj
 0001:00089370       ?should_format@?$standard_base@DV?$stream_output_adapter@D@__crt_stdio_output@@@__crt_stdio_output@@IEAA_NXZ 000000018008a370 f i libucrtd:output.obj
 0001:00089380       ?should_format@?$standard_base@DV?$string_output_adapter@D@__crt_stdio_output@@@__crt_stdio_output@@IEAA_NXZ 000000018008a380 f i libucrtd:output.obj
 0001:00089390       ?should_format@?$standard_base@_WV?$stream_output_adapter@_W@__crt_stdio_output@@@__crt_stdio_output@@IEAA_NXZ 000000018008a390 f i libucrtd:output.obj
 0001:000893a0       ?should_format@?$standard_base@_WV?$string_output_adapter@_W@__crt_stdio_output@@@__crt_stdio_output@@IEAA_NXZ 000000018008a3a0 f i libucrtd:output.obj
 0001:000893b0       ?should_skip_normal_state_processing@?$positional_parameter_base@DV?$stream_output_adapter@D@__crt_stdio_output@@@__crt_stdio_output@@IEAA_NXZ 000000018008a3b0 f i libucrtd:output.obj
 0001:00089410       ?should_skip_normal_state_processing@?$positional_parameter_base@DV?$string_output_adapter@D@__crt_stdio_output@@@__crt_stdio_output@@IEAA_NXZ 000000018008a410 f i libucrtd:output.obj
 0001:00089470       ?should_skip_normal_state_processing@?$positional_parameter_base@_WV?$stream_output_adapter@_W@__crt_stdio_output@@@__crt_stdio_output@@IEAA_NXZ 000000018008a470 f i libucrtd:output.obj
 0001:000894d0       ?should_skip_normal_state_processing@?$positional_parameter_base@_WV?$string_output_adapter@_W@__crt_stdio_output@@@__crt_stdio_output@@IEAA_NXZ 000000018008a4d0 f i libucrtd:output.obj
 0001:00089530       ?should_skip_normal_state_processing@?$standard_base@DV?$stream_output_adapter@D@__crt_stdio_output@@@__crt_stdio_output@@IEAA_NXZ 000000018008a530 f i libucrtd:output.obj
 0001:00089540       ?should_skip_normal_state_processing@?$standard_base@DV?$string_output_adapter@D@__crt_stdio_output@@@__crt_stdio_output@@IEAA_NXZ 000000018008a540 f i libucrtd:output.obj
 0001:00089550       ?should_skip_normal_state_processing@?$standard_base@_WV?$stream_output_adapter@_W@__crt_stdio_output@@@__crt_stdio_output@@IEAA_NXZ 000000018008a550 f i libucrtd:output.obj
 0001:00089560       ?should_skip_normal_state_processing@?$standard_base@_WV?$string_output_adapter@_W@__crt_stdio_output@@@__crt_stdio_output@@IEAA_NXZ 000000018008a560 f i libucrtd:output.obj
 0001:00089570       ?should_skip_type_state_output@?$positional_parameter_base@DV?$stream_output_adapter@D@__crt_stdio_output@@@__crt_stdio_output@@IEBA_NXZ 000000018008a570 f i libucrtd:output.obj
 0001:000895c0       ?should_skip_type_state_output@?$positional_parameter_base@DV?$string_output_adapter@D@__crt_stdio_output@@@__crt_stdio_output@@IEBA_NXZ 000000018008a5c0 f i libucrtd:output.obj
 0001:00089610       ?should_skip_type_state_output@?$positional_parameter_base@_WV?$stream_output_adapter@_W@__crt_stdio_output@@@__crt_stdio_output@@IEBA_NXZ 000000018008a610 f i libucrtd:output.obj
 0001:00089660       ?should_skip_type_state_output@?$positional_parameter_base@_WV?$string_output_adapter@_W@__crt_stdio_output@@@__crt_stdio_output@@IEBA_NXZ 000000018008a660 f i libucrtd:output.obj
 0001:000896b0       ?should_skip_type_state_output@?$standard_base@DV?$stream_output_adapter@D@__crt_stdio_output@@@__crt_stdio_output@@IEBA_NXZ 000000018008a6b0 f i libucrtd:output.obj
 0001:000896c0       ?should_skip_type_state_output@?$standard_base@DV?$string_output_adapter@D@__crt_stdio_output@@@__crt_stdio_output@@IEBA_NXZ 000000018008a6c0 f i libucrtd:output.obj
 0001:000896d0       ?should_skip_type_state_output@?$standard_base@_WV?$stream_output_adapter@_W@__crt_stdio_output@@@__crt_stdio_output@@IEBA_NXZ 000000018008a6d0 f i libucrtd:output.obj
 0001:000896e0       ?should_skip_type_state_output@?$standard_base@_WV?$string_output_adapter@_W@__crt_stdio_output@@@__crt_stdio_output@@IEBA_NXZ 000000018008a6e0 f i libucrtd:output.obj
 0001:000896f0       ?state_case_dot@?$output_processor@DV?$stream_output_adapter@D@__crt_stdio_output@@V?$format_validation_base@DV?$stream_output_adapter@D@__crt_stdio_output@@@2@@__crt_stdio_output@@AEAA_NXZ 000000018008a6f0 f i libucrtd:output.obj
 0001:00089710       ?state_case_dot@?$output_processor@DV?$stream_output_adapter@D@__crt_stdio_output@@V?$positional_parameter_base@DV?$stream_output_adapter@D@__crt_stdio_output@@@2@@__crt_stdio_output@@AEAA_NXZ 000000018008a710 f i libucrtd:output.obj
 0001:00089730       ?state_case_dot@?$output_processor@DV?$stream_output_adapter@D@__crt_stdio_output@@V?$standard_base@DV?$stream_output_adapter@D@__crt_stdio_output@@@2@@__crt_stdio_output@@AEAA_NXZ 000000018008a730 f i libucrtd:output.obj
 0001:00089750       ?state_case_dot@?$output_processor@DV?$string_output_adapter@D@__crt_stdio_output@@V?$format_validation_base@DV?$string_output_adapter@D@__crt_stdio_output@@@2@@__crt_stdio_output@@AEAA_NXZ 000000018008a750 f i libucrtd:output.obj
 0001:00089770       ?state_case_dot@?$output_processor@DV?$string_output_adapter@D@__crt_stdio_output@@V?$positional_parameter_base@DV?$string_output_adapter@D@__crt_stdio_output@@@2@@__crt_stdio_output@@AEAA_NXZ 000000018008a770 f i libucrtd:output.obj
 0001:00089790       ?state_case_dot@?$output_processor@DV?$string_output_adapter@D@__crt_stdio_output@@V?$standard_base@DV?$string_output_adapter@D@__crt_stdio_output@@@2@@__crt_stdio_output@@AEAA_NXZ 000000018008a790 f i libucrtd:output.obj
 0001:000897b0       ?state_case_dot@?$output_processor@_WV?$stream_output_adapter@_W@__crt_stdio_output@@V?$format_validation_base@_WV?$stream_output_adapter@_W@__crt_stdio_output@@@2@@__crt_stdio_output@@AEAA_NXZ 000000018008a7b0 f i libucrtd:output.obj
 0001:000897d0       ?state_case_dot@?$output_processor@_WV?$stream_output_adapter@_W@__crt_stdio_output@@V?$positional_parameter_base@_WV?$stream_output_adapter@_W@__crt_stdio_output@@@2@@__crt_stdio_output@@AEAA_NXZ 000000018008a7d0 f i libucrtd:output.obj
 0001:000897f0       ?state_case_dot@?$output_processor@_WV?$stream_output_adapter@_W@__crt_stdio_output@@V?$standard_base@_WV?$stream_output_adapter@_W@__crt_stdio_output@@@2@@__crt_stdio_output@@AEAA_NXZ 000000018008a7f0 f i libucrtd:output.obj
 0001:00089810       ?state_case_dot@?$output_processor@_WV?$string_output_adapter@_W@__crt_stdio_output@@V?$format_validation_base@_WV?$string_output_adapter@_W@__crt_stdio_output@@@2@@__crt_stdio_output@@AEAA_NXZ 000000018008a810 f i libucrtd:output.obj
 0001:00089830       ?state_case_dot@?$output_processor@_WV?$string_output_adapter@_W@__crt_stdio_output@@V?$positional_parameter_base@_WV?$string_output_adapter@_W@__crt_stdio_output@@@2@@__crt_stdio_output@@AEAA_NXZ 000000018008a830 f i libucrtd:output.obj
 0001:00089850       ?state_case_dot@?$output_processor@_WV?$string_output_adapter@_W@__crt_stdio_output@@V?$standard_base@_WV?$string_output_adapter@_W@__crt_stdio_output@@@2@@__crt_stdio_output@@AEAA_NXZ 000000018008a850 f i libucrtd:output.obj
 0001:00089870       ?state_case_flag@?$output_processor@DV?$stream_output_adapter@D@__crt_stdio_output@@V?$format_validation_base@DV?$stream_output_adapter@D@__crt_stdio_output@@@2@@__crt_stdio_output@@AEAA_NXZ 000000018008a870 f i libucrtd:output.obj
 0001:00089930       ?state_case_flag@?$output_processor@DV?$stream_output_adapter@D@__crt_stdio_output@@V?$positional_parameter_base@DV?$stream_output_adapter@D@__crt_stdio_output@@@2@@__crt_stdio_output@@AEAA_NXZ 000000018008a930 f i libucrtd:output.obj
 0001:000899f0       ?state_case_flag@?$output_processor@DV?$stream_output_adapter@D@__crt_stdio_output@@V?$standard_base@DV?$stream_output_adapter@D@__crt_stdio_output@@@2@@__crt_stdio_output@@AEAA_NXZ 000000018008a9f0 f i libucrtd:output.obj
 0001:00089ab0       ?state_case_flag@?$output_processor@DV?$string_output_adapter@D@__crt_stdio_output@@V?$format_validation_base@DV?$string_output_adapter@D@__crt_stdio_output@@@2@@__crt_stdio_output@@AEAA_NXZ 000000018008aab0 f i libucrtd:output.obj
 0001:00089b70       ?state_case_flag@?$output_processor@DV?$string_output_adapter@D@__crt_stdio_output@@V?$positional_parameter_base@DV?$string_output_adapter@D@__crt_stdio_output@@@2@@__crt_stdio_output@@AEAA_NXZ 000000018008ab70 f i libucrtd:output.obj
 0001:00089c30       ?state_case_flag@?$output_processor@DV?$string_output_adapter@D@__crt_stdio_output@@V?$standard_base@DV?$string_output_adapter@D@__crt_stdio_output@@@2@@__crt_stdio_output@@AEAA_NXZ 000000018008ac30 f i libucrtd:output.obj
 0001:00089cf0       ?state_case_flag@?$output_processor@_WV?$stream_output_adapter@_W@__crt_stdio_output@@V?$format_validation_base@_WV?$stream_output_adapter@_W@__crt_stdio_output@@@2@@__crt_stdio_output@@AEAA_NXZ 000000018008acf0 f i libucrtd:output.obj
 0001:00089db0       ?state_case_flag@?$output_processor@_WV?$stream_output_adapter@_W@__crt_stdio_output@@V?$positional_parameter_base@_WV?$stream_output_adapter@_W@__crt_stdio_output@@@2@@__crt_stdio_output@@AEAA_NXZ 000000018008adb0 f i libucrtd:output.obj
 0001:00089e70       ?state_case_flag@?$output_processor@_WV?$stream_output_adapter@_W@__crt_stdio_output@@V?$standard_base@_WV?$stream_output_adapter@_W@__crt_stdio_output@@@2@@__crt_stdio_output@@AEAA_NXZ 000000018008ae70 f i libucrtd:output.obj
 0001:00089f30       ?state_case_flag@?$output_processor@_WV?$string_output_adapter@_W@__crt_stdio_output@@V?$format_validation_base@_WV?$string_output_adapter@_W@__crt_stdio_output@@@2@@__crt_stdio_output@@AEAA_NXZ 000000018008af30 f i libucrtd:output.obj
 0001:00089ff0       ?state_case_flag@?$output_processor@_WV?$string_output_adapter@_W@__crt_stdio_output@@V?$positional_parameter_base@_WV?$string_output_adapter@_W@__crt_stdio_output@@@2@@__crt_stdio_output@@AEAA_NXZ 000000018008aff0 f i libucrtd:output.obj
 0001:0008a0b0       ?state_case_flag@?$output_processor@_WV?$string_output_adapter@_W@__crt_stdio_output@@V?$standard_base@_WV?$string_output_adapter@_W@__crt_stdio_output@@@2@@__crt_stdio_output@@AEAA_NXZ 000000018008b0b0 f i libucrtd:output.obj
 0001:0008a170       ?state_case_normal@?$output_processor@DV?$stream_output_adapter@D@__crt_stdio_output@@V?$format_validation_base@DV?$stream_output_adapter@D@__crt_stdio_output@@@2@@__crt_stdio_output@@AEAA_NXZ 000000018008b170 f i libucrtd:output.obj
 0001:0008a2b0       ?state_case_normal@?$output_processor@DV?$stream_output_adapter@D@__crt_stdio_output@@V?$positional_parameter_base@DV?$stream_output_adapter@D@__crt_stdio_output@@@2@@__crt_stdio_output@@AEAA_NXZ 000000018008b2b0 f i libucrtd:output.obj
 0001:0008a3f0       ?state_case_normal@?$output_processor@DV?$stream_output_adapter@D@__crt_stdio_output@@V?$standard_base@DV?$stream_output_adapter@D@__crt_stdio_output@@@2@@__crt_stdio_output@@AEAA_NXZ 000000018008b3f0 f i libucrtd:output.obj
 0001:0008a530       ?state_case_normal@?$output_processor@DV?$string_output_adapter@D@__crt_stdio_output@@V?$format_validation_base@DV?$string_output_adapter@D@__crt_stdio_output@@@2@@__crt_stdio_output@@AEAA_NXZ 000000018008b530 f i libucrtd:output.obj
 0001:0008a670       ?state_case_normal@?$output_processor@DV?$string_output_adapter@D@__crt_stdio_output@@V?$positional_parameter_base@DV?$string_output_adapter@D@__crt_stdio_output@@@2@@__crt_stdio_output@@AEAA_NXZ 000000018008b670 f i libucrtd:output.obj
 0001:0008a7b0       ?state_case_normal@?$output_processor@DV?$string_output_adapter@D@__crt_stdio_output@@V?$standard_base@DV?$string_output_adapter@D@__crt_stdio_output@@@2@@__crt_stdio_output@@AEAA_NXZ 000000018008b7b0 f i libucrtd:output.obj
 0001:0008a8f0       ?state_case_normal@?$output_processor@_WV?$stream_output_adapter@_W@__crt_stdio_output@@V?$format_validation_base@_WV?$stream_output_adapter@_W@__crt_stdio_output@@@2@@__crt_stdio_output@@AEAA_NXZ 000000018008b8f0 f i libucrtd:output.obj
 0001:0008aa30       ?state_case_normal@?$output_processor@_WV?$stream_output_adapter@_W@__crt_stdio_output@@V?$positional_parameter_base@_WV?$stream_output_adapter@_W@__crt_stdio_output@@@2@@__crt_stdio_output@@AEAA_NXZ 000000018008ba30 f i libucrtd:output.obj
 0001:0008ab70       ?state_case_normal@?$output_processor@_WV?$stream_output_adapter@_W@__crt_stdio_output@@V?$standard_base@_WV?$stream_output_adapter@_W@__crt_stdio_output@@@2@@__crt_stdio_output@@AEAA_NXZ 000000018008bb70 f i libucrtd:output.obj
 0001:0008acb0       ?state_case_normal@?$output_processor@_WV?$string_output_adapter@_W@__crt_stdio_output@@V?$format_validation_base@_WV?$string_output_adapter@_W@__crt_stdio_output@@@2@@__crt_stdio_output@@AEAA_NXZ 000000018008bcb0 f i libucrtd:output.obj
 0001:0008adf0       ?state_case_normal@?$output_processor@_WV?$string_output_adapter@_W@__crt_stdio_output@@V?$positional_parameter_base@_WV?$string_output_adapter@_W@__crt_stdio_output@@@2@@__crt_stdio_output@@AEAA_NXZ 000000018008bdf0 f i libucrtd:output.obj
 0001:0008af30       ?state_case_normal@?$output_processor@_WV?$string_output_adapter@_W@__crt_stdio_output@@V?$standard_base@_WV?$string_output_adapter@_W@__crt_stdio_output@@@2@@__crt_stdio_output@@AEAA_NXZ 000000018008bf30 f i libucrtd:output.obj
 0001:0008b070       ?state_case_normal_common@?$output_processor@DV?$stream_output_adapter@D@__crt_stdio_output@@V?$format_validation_base@DV?$stream_output_adapter@D@__crt_stdio_output@@@2@@__crt_stdio_output@@AEAA_NXZ 000000018008c070 f i libucrtd:output.obj
 0001:0008b0f0       ?state_case_normal_common@?$output_processor@DV?$stream_output_adapter@D@__crt_stdio_output@@V?$positional_parameter_base@DV?$stream_output_adapter@D@__crt_stdio_output@@@2@@__crt_stdio_output@@AEAA_NXZ 000000018008c0f0 f i libucrtd:output.obj
 0001:0008b170       ?state_case_normal_common@?$output_processor@DV?$stream_output_adapter@D@__crt_stdio_output@@V?$standard_base@DV?$stream_output_adapter@D@__crt_stdio_output@@@2@@__crt_stdio_output@@AEAA_NXZ 000000018008c170 f i libucrtd:output.obj
 0001:0008b1f0       ?state_case_normal_common@?$output_processor@DV?$string_output_adapter@D@__crt_stdio_output@@V?$format_validation_base@DV?$string_output_adapter@D@__crt_stdio_output@@@2@@__crt_stdio_output@@AEAA_NXZ 000000018008c1f0 f i libucrtd:output.obj
 0001:0008b270       ?state_case_normal_common@?$output_processor@DV?$string_output_adapter@D@__crt_stdio_output@@V?$positional_parameter_base@DV?$string_output_adapter@D@__crt_stdio_output@@@2@@__crt_stdio_output@@AEAA_NXZ 000000018008c270 f i libucrtd:output.obj
 0001:0008b2f0       ?state_case_normal_common@?$output_processor@DV?$string_output_adapter@D@__crt_stdio_output@@V?$standard_base@DV?$string_output_adapter@D@__crt_stdio_output@@@2@@__crt_stdio_output@@AEAA_NXZ 000000018008c2f0 f i libucrtd:output.obj
 0001:0008b370       ?state_case_normal_common@?$output_processor@_WV?$stream_output_adapter@_W@__crt_stdio_output@@V?$format_validation_base@_WV?$stream_output_adapter@_W@__crt_stdio_output@@@2@@__crt_stdio_output@@AEAA_NXZ 000000018008c370 f i libucrtd:output.obj
 0001:0008b3f0       ?state_case_normal_common@?$output_processor@_WV?$stream_output_adapter@_W@__crt_stdio_output@@V?$positional_parameter_base@_WV?$stream_output_adapter@_W@__crt_stdio_output@@@2@@__crt_stdio_output@@AEAA_NXZ 000000018008c3f0 f i libucrtd:output.obj
 0001:0008b470       ?state_case_normal_common@?$output_processor@_WV?$stream_output_adapter@_W@__crt_stdio_output@@V?$standard_base@_WV?$stream_output_adapter@_W@__crt_stdio_output@@@2@@__crt_stdio_output@@AEAA_NXZ 000000018008c470 f i libucrtd:output.obj
 0001:0008b4f0       ?state_case_normal_common@?$output_processor@_WV?$string_output_adapter@_W@__crt_stdio_output@@V?$format_validation_base@_WV?$string_output_adapter@_W@__crt_stdio_output@@@2@@__crt_stdio_output@@AEAA_NXZ 000000018008c4f0 f i libucrtd:output.obj
 0001:0008b570       ?state_case_normal_common@?$output_processor@_WV?$string_output_adapter@_W@__crt_stdio_output@@V?$positional_parameter_base@_WV?$string_output_adapter@_W@__crt_stdio_output@@@2@@__crt_stdio_output@@AEAA_NXZ 000000018008c570 f i libucrtd:output.obj
 0001:0008b5f0       ?state_case_normal_common@?$output_processor@_WV?$string_output_adapter@_W@__crt_stdio_output@@V?$standard_base@_WV?$string_output_adapter@_W@__crt_stdio_output@@@2@@__crt_stdio_output@@AEAA_NXZ 000000018008c5f0 f i libucrtd:output.obj
 0001:0008b670       ?state_case_normal_tchar@?$output_processor@DV?$stream_output_adapter@D@__crt_stdio_output@@V?$format_validation_base@DV?$stream_output_adapter@D@__crt_stdio_output@@@2@@__crt_stdio_output@@AEAA_ND@Z 000000018008c670 f i libucrtd:output.obj
 0001:0008b860       ?state_case_normal_tchar@?$output_processor@DV?$stream_output_adapter@D@__crt_stdio_output@@V?$positional_parameter_base@DV?$stream_output_adapter@D@__crt_stdio_output@@@2@@__crt_stdio_output@@AEAA_ND@Z 000000018008c860 f i libucrtd:output.obj
 0001:0008ba50       ?state_case_normal_tchar@?$output_processor@DV?$stream_output_adapter@D@__crt_stdio_output@@V?$standard_base@DV?$stream_output_adapter@D@__crt_stdio_output@@@2@@__crt_stdio_output@@AEAA_ND@Z 000000018008ca50 f i libucrtd:output.obj
 0001:0008bc40       ?state_case_normal_tchar@?$output_processor@DV?$string_output_adapter@D@__crt_stdio_output@@V?$format_validation_base@DV?$string_output_adapter@D@__crt_stdio_output@@@2@@__crt_stdio_output@@AEAA_ND@Z 000000018008cc40 f i libucrtd:output.obj
 0001:0008be30       ?state_case_normal_tchar@?$output_processor@DV?$string_output_adapter@D@__crt_stdio_output@@V?$positional_parameter_base@DV?$string_output_adapter@D@__crt_stdio_output@@@2@@__crt_stdio_output@@AEAA_ND@Z 000000018008ce30 f i libucrtd:output.obj
 0001:0008c020       ?state_case_normal_tchar@?$output_processor@DV?$string_output_adapter@D@__crt_stdio_output@@V?$standard_base@DV?$string_output_adapter@D@__crt_stdio_output@@@2@@__crt_stdio_output@@AEAA_ND@Z 000000018008d020 f i libucrtd:output.obj
 0001:0008c210       ?state_case_normal_tchar@?$output_processor@_WV?$stream_output_adapter@_W@__crt_stdio_output@@V?$format_validation_base@_WV?$stream_output_adapter@_W@__crt_stdio_output@@@2@@__crt_stdio_output@@AEAA_N_W@Z 000000018008d210 f i libucrtd:output.obj
 0001:0008c230       ?state_case_normal_tchar@?$output_processor@_WV?$stream_output_adapter@_W@__crt_stdio_output@@V?$positional_parameter_base@_WV?$stream_output_adapter@_W@__crt_stdio_output@@@2@@__crt_stdio_output@@AEAA_N_W@Z 000000018008d230 f i libucrtd:output.obj
 0001:0008c250       ?state_case_normal_tchar@?$output_processor@_WV?$stream_output_adapter@_W@__crt_stdio_output@@V?$standard_base@_WV?$stream_output_adapter@_W@__crt_stdio_output@@@2@@__crt_stdio_output@@AEAA_N_W@Z 000000018008d250 f i libucrtd:output.obj
 0001:0008c270       ?state_case_normal_tchar@?$output_processor@_WV?$string_output_adapter@_W@__crt_stdio_output@@V?$format_validation_base@_WV?$string_output_adapter@_W@__crt_stdio_output@@@2@@__crt_stdio_output@@AEAA_N_W@Z 000000018008d270 f i libucrtd:output.obj
 0001:0008c290       ?state_case_normal_tchar@?$output_processor@_WV?$string_output_adapter@_W@__crt_stdio_output@@V?$positional_parameter_base@_WV?$string_output_adapter@_W@__crt_stdio_output@@@2@@__crt_stdio_output@@AEAA_N_W@Z 000000018008d290 f i libucrtd:output.obj
 0001:0008c2b0       ?state_case_normal_tchar@?$output_processor@_WV?$string_output_adapter@_W@__crt_stdio_output@@V?$standard_base@_WV?$string_output_adapter@_W@__crt_stdio_output@@@2@@__crt_stdio_output@@AEAA_N_W@Z 000000018008d2b0 f i libucrtd:output.obj
 0001:0008c2d0       ?state_case_percent@?$output_processor@DV?$stream_output_adapter@D@__crt_stdio_output@@V?$format_validation_base@DV?$stream_output_adapter@D@__crt_stdio_output@@@2@@__crt_stdio_output@@AEAA_NXZ 000000018008d2d0 f i libucrtd:output.obj
 0001:0008c330       ?state_case_percent@?$output_processor@DV?$stream_output_adapter@D@__crt_stdio_output@@V?$positional_parameter_base@DV?$stream_output_adapter@D@__crt_stdio_output@@@2@@__crt_stdio_output@@AEAA_NXZ 000000018008d330 f i libucrtd:output.obj
 0001:0008c390       ?state_case_percent@?$output_processor@DV?$stream_output_adapter@D@__crt_stdio_output@@V?$standard_base@DV?$stream_output_adapter@D@__crt_stdio_output@@@2@@__crt_stdio_output@@AEAA_NXZ 000000018008d390 f i libucrtd:output.obj
 0001:0008c3f0       ?state_case_percent@?$output_processor@DV?$string_output_adapter@D@__crt_stdio_output@@V?$format_validation_base@DV?$string_output_adapter@D@__crt_stdio_output@@@2@@__crt_stdio_output@@AEAA_NXZ 000000018008d3f0 f i libucrtd:output.obj
 0001:0008c450       ?state_case_percent@?$output_processor@DV?$string_output_adapter@D@__crt_stdio_output@@V?$positional_parameter_base@DV?$string_output_adapter@D@__crt_stdio_output@@@2@@__crt_stdio_output@@AEAA_NXZ 000000018008d450 f i libucrtd:output.obj
 0001:0008c4b0       ?state_case_percent@?$output_processor@DV?$string_output_adapter@D@__crt_stdio_output@@V?$standard_base@DV?$string_output_adapter@D@__crt_stdio_output@@@2@@__crt_stdio_output@@AEAA_NXZ 000000018008d4b0 f i libucrtd:output.obj
 0001:0008c510       ?state_case_percent@?$output_processor@_WV?$stream_output_adapter@_W@__crt_stdio_output@@V?$format_validation_base@_WV?$stream_output_adapter@_W@__crt_stdio_output@@@2@@__crt_stdio_output@@AEAA_NXZ 000000018008d510 f i libucrtd:output.obj
 0001:0008c570       ?state_case_percent@?$output_processor@_WV?$stream_output_adapter@_W@__crt_stdio_output@@V?$positional_parameter_base@_WV?$stream_output_adapter@_W@__crt_stdio_output@@@2@@__crt_stdio_output@@AEAA_NXZ 000000018008d570 f i libucrtd:output.obj
 0001:0008c5d0       ?state_case_percent@?$output_processor@_WV?$stream_output_adapter@_W@__crt_stdio_output@@V?$standard_base@_WV?$stream_output_adapter@_W@__crt_stdio_output@@@2@@__crt_stdio_output@@AEAA_NXZ 000000018008d5d0 f i libucrtd:output.obj
 0001:0008c630       ?state_case_percent@?$output_processor@_WV?$string_output_adapter@_W@__crt_stdio_output@@V?$format_validation_base@_WV?$string_output_adapter@_W@__crt_stdio_output@@@2@@__crt_stdio_output@@AEAA_NXZ 000000018008d630 f i libucrtd:output.obj
 0001:0008c690       ?state_case_percent@?$output_processor@_WV?$string_output_adapter@_W@__crt_stdio_output@@V?$positional_parameter_base@_WV?$string_output_adapter@_W@__crt_stdio_output@@@2@@__crt_stdio_output@@AEAA_NXZ 000000018008d690 f i libucrtd:output.obj
 0001:0008c6f0       ?state_case_percent@?$output_processor@_WV?$string_output_adapter@_W@__crt_stdio_output@@V?$standard_base@_WV?$string_output_adapter@_W@__crt_stdio_output@@@2@@__crt_stdio_output@@AEAA_NXZ 000000018008d6f0 f i libucrtd:output.obj
 0001:0008c750       ?state_case_precision@?$output_processor@DV?$stream_output_adapter@D@__crt_stdio_output@@V?$format_validation_base@DV?$stream_output_adapter@D@__crt_stdio_output@@@2@@__crt_stdio_output@@AEAA_NXZ 000000018008d750 f i libucrtd:output.obj
 0001:0008c7f0       ?state_case_precision@?$output_processor@DV?$stream_output_adapter@D@__crt_stdio_output@@V?$positional_parameter_base@DV?$stream_output_adapter@D@__crt_stdio_output@@@2@@__crt_stdio_output@@AEAA_NXZ 000000018008d7f0 f i libucrtd:output.obj
 0001:0008c890       ?state_case_precision@?$output_processor@DV?$stream_output_adapter@D@__crt_stdio_output@@V?$standard_base@DV?$stream_output_adapter@D@__crt_stdio_output@@@2@@__crt_stdio_output@@AEAA_NXZ 000000018008d890 f i libucrtd:output.obj
 0001:0008c930       ?state_case_precision@?$output_processor@DV?$string_output_adapter@D@__crt_stdio_output@@V?$format_validation_base@DV?$string_output_adapter@D@__crt_stdio_output@@@2@@__crt_stdio_output@@AEAA_NXZ 000000018008d930 f i libucrtd:output.obj
 0001:0008c9d0       ?state_case_precision@?$output_processor@DV?$string_output_adapter@D@__crt_stdio_output@@V?$positional_parameter_base@DV?$string_output_adapter@D@__crt_stdio_output@@@2@@__crt_stdio_output@@AEAA_NXZ 000000018008d9d0 f i libucrtd:output.obj
 0001:0008ca70       ?state_case_precision@?$output_processor@DV?$string_output_adapter@D@__crt_stdio_output@@V?$standard_base@DV?$string_output_adapter@D@__crt_stdio_output@@@2@@__crt_stdio_output@@AEAA_NXZ 000000018008da70 f i libucrtd:output.obj
 0001:0008cb10       ?state_case_precision@?$output_processor@_WV?$stream_output_adapter@_W@__crt_stdio_output@@V?$format_validation_base@_WV?$stream_output_adapter@_W@__crt_stdio_output@@@2@@__crt_stdio_output@@AEAA_NXZ 000000018008db10 f i libucrtd:output.obj
 0001:0008cbb0       ?state_case_precision@?$output_processor@_WV?$stream_output_adapter@_W@__crt_stdio_output@@V?$positional_parameter_base@_WV?$stream_output_adapter@_W@__crt_stdio_output@@@2@@__crt_stdio_output@@AEAA_NXZ 000000018008dbb0 f i libucrtd:output.obj
 0001:0008cc50       ?state_case_precision@?$output_processor@_WV?$stream_output_adapter@_W@__crt_stdio_output@@V?$standard_base@_WV?$stream_output_adapter@_W@__crt_stdio_output@@@2@@__crt_stdio_output@@AEAA_NXZ 000000018008dc50 f i libucrtd:output.obj
 0001:0008ccf0       ?state_case_precision@?$output_processor@_WV?$string_output_adapter@_W@__crt_stdio_output@@V?$format_validation_base@_WV?$string_output_adapter@_W@__crt_stdio_output@@@2@@__crt_stdio_output@@AEAA_NXZ 000000018008dcf0 f i libucrtd:output.obj
 0001:0008cd90       ?state_case_precision@?$output_processor@_WV?$string_output_adapter@_W@__crt_stdio_output@@V?$positional_parameter_base@_WV?$string_output_adapter@_W@__crt_stdio_output@@@2@@__crt_stdio_output@@AEAA_NXZ 000000018008dd90 f i libucrtd:output.obj
 0001:0008ce30       ?state_case_precision@?$output_processor@_WV?$string_output_adapter@_W@__crt_stdio_output@@V?$standard_base@_WV?$string_output_adapter@_W@__crt_stdio_output@@@2@@__crt_stdio_output@@AEAA_NXZ 000000018008de30 f i libucrtd:output.obj
 0001:0008ced0       ?state_case_size@?$output_processor@DV?$stream_output_adapter@D@__crt_stdio_output@@V?$format_validation_base@DV?$stream_output_adapter@D@__crt_stdio_output@@@2@@__crt_stdio_output@@AEAA_NXZ 000000018008ded0 f i libucrtd:output.obj
 0001:0008d4c0       ?state_case_size@?$output_processor@DV?$stream_output_adapter@D@__crt_stdio_output@@V?$positional_parameter_base@DV?$stream_output_adapter@D@__crt_stdio_output@@@2@@__crt_stdio_output@@AEAA_NXZ 000000018008e4c0 f i libucrtd:output.obj
 0001:0008dab0       ?state_case_size@?$output_processor@DV?$stream_output_adapter@D@__crt_stdio_output@@V?$standard_base@DV?$stream_output_adapter@D@__crt_stdio_output@@@2@@__crt_stdio_output@@AEAA_NXZ 000000018008eab0 f i libucrtd:output.obj
 0001:0008e0a0       ?state_case_size@?$output_processor@DV?$string_output_adapter@D@__crt_stdio_output@@V?$format_validation_base@DV?$string_output_adapter@D@__crt_stdio_output@@@2@@__crt_stdio_output@@AEAA_NXZ 000000018008f0a0 f i libucrtd:output.obj
 0001:0008e690       ?state_case_size@?$output_processor@DV?$string_output_adapter@D@__crt_stdio_output@@V?$positional_parameter_base@DV?$string_output_adapter@D@__crt_stdio_output@@@2@@__crt_stdio_output@@AEAA_NXZ 000000018008f690 f i libucrtd:output.obj
 0001:0008ec80       ?state_case_size@?$output_processor@DV?$string_output_adapter@D@__crt_stdio_output@@V?$standard_base@DV?$string_output_adapter@D@__crt_stdio_output@@@2@@__crt_stdio_output@@AEAA_NXZ 000000018008fc80 f i libucrtd:output.obj
 0001:0008f270       ?state_case_size@?$output_processor@_WV?$stream_output_adapter@_W@__crt_stdio_output@@V?$format_validation_base@_WV?$stream_output_adapter@_W@__crt_stdio_output@@@2@@__crt_stdio_output@@AEAA_NXZ 0000000180090270 f i libucrtd:output.obj
 0001:0008f860       ?state_case_size@?$output_processor@_WV?$stream_output_adapter@_W@__crt_stdio_output@@V?$positional_parameter_base@_WV?$stream_output_adapter@_W@__crt_stdio_output@@@2@@__crt_stdio_output@@AEAA_NXZ 0000000180090860 f i libucrtd:output.obj
 0001:0008fe50       ?state_case_size@?$output_processor@_WV?$stream_output_adapter@_W@__crt_stdio_output@@V?$standard_base@_WV?$stream_output_adapter@_W@__crt_stdio_output@@@2@@__crt_stdio_output@@AEAA_NXZ 0000000180090e50 f i libucrtd:output.obj
 0001:00090440       ?state_case_size@?$output_processor@_WV?$string_output_adapter@_W@__crt_stdio_output@@V?$format_validation_base@_WV?$string_output_adapter@_W@__crt_stdio_output@@@2@@__crt_stdio_output@@AEAA_NXZ 0000000180091440 f i libucrtd:output.obj
 0001:00090a30       ?state_case_size@?$output_processor@_WV?$string_output_adapter@_W@__crt_stdio_output@@V?$positional_parameter_base@_WV?$string_output_adapter@_W@__crt_stdio_output@@@2@@__crt_stdio_output@@AEAA_NXZ 0000000180091a30 f i libucrtd:output.obj
 0001:00091020       ?state_case_size@?$output_processor@_WV?$string_output_adapter@_W@__crt_stdio_output@@V?$standard_base@_WV?$string_output_adapter@_W@__crt_stdio_output@@@2@@__crt_stdio_output@@AEAA_NXZ 0000000180092020 f i libucrtd:output.obj
 0001:00091610       ?state_case_type@?$output_processor@DV?$stream_output_adapter@D@__crt_stdio_output@@V?$format_validation_base@DV?$stream_output_adapter@D@__crt_stdio_output@@@2@@__crt_stdio_output@@AEAA_NXZ 0000000180092610 f i libucrtd:output.obj
 0001:00091c00       ?state_case_type@?$output_processor@DV?$stream_output_adapter@D@__crt_stdio_output@@V?$positional_parameter_base@DV?$stream_output_adapter@D@__crt_stdio_output@@@2@@__crt_stdio_output@@AEAA_NXZ 0000000180092c00 f i libucrtd:output.obj
 0001:000921f0       ?state_case_type@?$output_processor@DV?$stream_output_adapter@D@__crt_stdio_output@@V?$standard_base@DV?$stream_output_adapter@D@__crt_stdio_output@@@2@@__crt_stdio_output@@AEAA_NXZ 00000001800931f0 f i libucrtd:output.obj
 0001:000927e0       ?state_case_type@?$output_processor@DV?$string_output_adapter@D@__crt_stdio_output@@V?$format_validation_base@DV?$string_output_adapter@D@__crt_stdio_output@@@2@@__crt_stdio_output@@AEAA_NXZ 00000001800937e0 f i libucrtd:output.obj
 0001:00092dd0       ?state_case_type@?$output_processor@DV?$string_output_adapter@D@__crt_stdio_output@@V?$positional_parameter_base@DV?$string_output_adapter@D@__crt_stdio_output@@@2@@__crt_stdio_output@@AEAA_NXZ 0000000180093dd0 f i libucrtd:output.obj
 0001:000933c0       ?state_case_type@?$output_processor@DV?$string_output_adapter@D@__crt_stdio_output@@V?$standard_base@DV?$string_output_adapter@D@__crt_stdio_output@@@2@@__crt_stdio_output@@AEAA_NXZ 00000001800943c0 f i libucrtd:output.obj
 0001:000939b0       ?state_case_type@?$output_processor@_WV?$stream_output_adapter@_W@__crt_stdio_output@@V?$format_validation_base@_WV?$stream_output_adapter@_W@__crt_stdio_output@@@2@@__crt_stdio_output@@AEAA_NXZ 00000001800949b0 f i libucrtd:output.obj
 0001:000940a0       ?state_case_type@?$output_processor@_WV?$stream_output_adapter@_W@__crt_stdio_output@@V?$positional_parameter_base@_WV?$stream_output_adapter@_W@__crt_stdio_output@@@2@@__crt_stdio_output@@AEAA_NXZ 00000001800950a0 f i libucrtd:output.obj
 0001:00094790       ?state_case_type@?$output_processor@_WV?$stream_output_adapter@_W@__crt_stdio_output@@V?$standard_base@_WV?$stream_output_adapter@_W@__crt_stdio_output@@@2@@__crt_stdio_output@@AEAA_NXZ 0000000180095790 f i libucrtd:output.obj
 0001:00094e80       ?state_case_type@?$output_processor@_WV?$string_output_adapter@_W@__crt_stdio_output@@V?$format_validation_base@_WV?$string_output_adapter@_W@__crt_stdio_output@@@2@@__crt_stdio_output@@AEAA_NXZ 0000000180095e80 f i libucrtd:output.obj
 0001:00095570       ?state_case_type@?$output_processor@_WV?$string_output_adapter@_W@__crt_stdio_output@@V?$positional_parameter_base@_WV?$string_output_adapter@_W@__crt_stdio_output@@@2@@__crt_stdio_output@@AEAA_NXZ 0000000180096570 f i libucrtd:output.obj
 0001:00095c60       ?state_case_type@?$output_processor@_WV?$string_output_adapter@_W@__crt_stdio_output@@V?$standard_base@_WV?$string_output_adapter@_W@__crt_stdio_output@@@2@@__crt_stdio_output@@AEAA_NXZ 0000000180096c60 f i libucrtd:output.obj
 0001:00096350       ?state_case_width@?$output_processor@DV?$stream_output_adapter@D@__crt_stdio_output@@V?$format_validation_base@DV?$stream_output_adapter@D@__crt_stdio_output@@@2@@__crt_stdio_output@@AEAA_NXZ 0000000180097350 f i libucrtd:output.obj
 0001:00096400       ?state_case_width@?$output_processor@DV?$stream_output_adapter@D@__crt_stdio_output@@V?$positional_parameter_base@DV?$stream_output_adapter@D@__crt_stdio_output@@@2@@__crt_stdio_output@@AEAA_NXZ 0000000180097400 f i libucrtd:output.obj
 0001:000964b0       ?state_case_width@?$output_processor@DV?$stream_output_adapter@D@__crt_stdio_output@@V?$standard_base@DV?$stream_output_adapter@D@__crt_stdio_output@@@2@@__crt_stdio_output@@AEAA_NXZ 00000001800974b0 f i libucrtd:output.obj
 0001:00096560       ?state_case_width@?$output_processor@DV?$string_output_adapter@D@__crt_stdio_output@@V?$format_validation_base@DV?$string_output_adapter@D@__crt_stdio_output@@@2@@__crt_stdio_output@@AEAA_NXZ 0000000180097560 f i libucrtd:output.obj
 0001:00096610       ?state_case_width@?$output_processor@DV?$string_output_adapter@D@__crt_stdio_output@@V?$positional_parameter_base@DV?$string_output_adapter@D@__crt_stdio_output@@@2@@__crt_stdio_output@@AEAA_NXZ 0000000180097610 f i libucrtd:output.obj
 0001:000966c0       ?state_case_width@?$output_processor@DV?$string_output_adapter@D@__crt_stdio_output@@V?$standard_base@DV?$string_output_adapter@D@__crt_stdio_output@@@2@@__crt_stdio_output@@AEAA_NXZ 00000001800976c0 f i libucrtd:output.obj
 0001:00096770       ?state_case_width@?$output_processor@_WV?$stream_output_adapter@_W@__crt_stdio_output@@V?$format_validation_base@_WV?$stream_output_adapter@_W@__crt_stdio_output@@@2@@__crt_stdio_output@@AEAA_NXZ 0000000180097770 f i libucrtd:output.obj
 0001:00096820       ?state_case_width@?$output_processor@_WV?$stream_output_adapter@_W@__crt_stdio_output@@V?$positional_parameter_base@_WV?$stream_output_adapter@_W@__crt_stdio_output@@@2@@__crt_stdio_output@@AEAA_NXZ 0000000180097820 f i libucrtd:output.obj
 0001:000968d0       ?state_case_width@?$output_processor@_WV?$stream_output_adapter@_W@__crt_stdio_output@@V?$standard_base@_WV?$stream_output_adapter@_W@__crt_stdio_output@@@2@@__crt_stdio_output@@AEAA_NXZ 00000001800978d0 f i libucrtd:output.obj
 0001:00096980       ?state_case_width@?$output_processor@_WV?$string_output_adapter@_W@__crt_stdio_output@@V?$format_validation_base@_WV?$string_output_adapter@_W@__crt_stdio_output@@@2@@__crt_stdio_output@@AEAA_NXZ 0000000180097980 f i libucrtd:output.obj
 0001:00096a30       ?state_case_width@?$output_processor@_WV?$string_output_adapter@_W@__crt_stdio_output@@V?$positional_parameter_base@_WV?$string_output_adapter@_W@__crt_stdio_output@@@2@@__crt_stdio_output@@AEAA_NXZ 0000000180097a30 f i libucrtd:output.obj
 0001:00096ae0       ?state_case_width@?$output_processor@_WV?$string_output_adapter@_W@__crt_stdio_output@@V?$standard_base@_WV?$string_output_adapter@_W@__crt_stdio_output@@@2@@__crt_stdio_output@@AEAA_NXZ 0000000180097ae0 f i libucrtd:output.obj
 0001:00096b90       ?state_count@?$format_validation_base@DV?$stream_output_adapter@D@__crt_stdio_output@@@__crt_stdio_output@@KAIXZ 0000000180097b90 f i libucrtd:output.obj
 0001:00096ba0       ?state_count@?$format_validation_base@DV?$string_output_adapter@D@__crt_stdio_output@@@__crt_stdio_output@@KAIXZ 0000000180097ba0 f i libucrtd:output.obj
 0001:00096bb0       ?state_count@?$format_validation_base@_WV?$stream_output_adapter@_W@__crt_stdio_output@@@__crt_stdio_output@@KAIXZ 0000000180097bb0 f i libucrtd:output.obj
 0001:00096bc0       ?state_count@?$format_validation_base@_WV?$string_output_adapter@_W@__crt_stdio_output@@@__crt_stdio_output@@KAIXZ 0000000180097bc0 f i libucrtd:output.obj
 0001:00096bd0       ?state_count@?$standard_base@DV?$stream_output_adapter@D@__crt_stdio_output@@@__crt_stdio_output@@KAIXZ 0000000180097bd0 f i libucrtd:output.obj
 0001:00096be0       ?state_count@?$standard_base@DV?$string_output_adapter@D@__crt_stdio_output@@@__crt_stdio_output@@KAIXZ 0000000180097be0 f i libucrtd:output.obj
 0001:00096bf0       ?state_count@?$standard_base@_WV?$stream_output_adapter@_W@__crt_stdio_output@@@__crt_stdio_output@@KAIXZ 0000000180097bf0 f i libucrtd:output.obj
 0001:00096c00       ?state_count@?$standard_base@_WV?$string_output_adapter@_W@__crt_stdio_output@@@__crt_stdio_output@@KAIXZ 0000000180097c00 f i libucrtd:output.obj
 0001:00096c10       ?state_transition_table@?$format_validation_base@DV?$stream_output_adapter@D@__crt_stdio_output@@@__crt_stdio_output@@KAAEBV?$spectre_mitigated_lookup_table@Ustate_transition_pair@__crt_stdio_output@@$0IA@@2@XZ 0000000180097c10 f i libucrtd:output.obj
 0001:00096c20       ?state_transition_table@?$format_validation_base@DV?$string_output_adapter@D@__crt_stdio_output@@@__crt_stdio_output@@KAAEBV?$spectre_mitigated_lookup_table@Ustate_transition_pair@__crt_stdio_output@@$0IA@@2@XZ 0000000180097c20 f i libucrtd:output.obj
 0001:00096c30       ?state_transition_table@?$format_validation_base@_WV?$stream_output_adapter@_W@__crt_stdio_output@@@__crt_stdio_output@@KAAEBV?$spectre_mitigated_lookup_table@Ustate_transition_pair@__crt_stdio_output@@$0IA@@2@XZ 0000000180097c30 f i libucrtd:output.obj
 0001:00096c40       ?state_transition_table@?$format_validation_base@_WV?$string_output_adapter@_W@__crt_stdio_output@@@__crt_stdio_output@@KAAEBV?$spectre_mitigated_lookup_table@Ustate_transition_pair@__crt_stdio_output@@$0IA@@2@XZ 0000000180097c40 f i libucrtd:output.obj
 0001:00096c50       ?state_transition_table@?$standard_base@DV?$stream_output_adapter@D@__crt_stdio_output@@@__crt_stdio_output@@KAAEBV?$spectre_mitigated_lookup_table@Ustate_transition_pair@__crt_stdio_output@@$0IA@@2@XZ 0000000180097c50 f i libucrtd:output.obj
 0001:00096c60       ?state_transition_table@?$standard_base@DV?$string_output_adapter@D@__crt_stdio_output@@@__crt_stdio_output@@KAAEBV?$spectre_mitigated_lookup_table@Ustate_transition_pair@__crt_stdio_output@@$0IA@@2@XZ 0000000180097c60 f i libucrtd:output.obj
 0001:00096c70       ?state_transition_table@?$standard_base@_WV?$stream_output_adapter@_W@__crt_stdio_output@@@__crt_stdio_output@@KAAEBV?$spectre_mitigated_lookup_table@Ustate_transition_pair@__crt_stdio_output@@$0IA@@2@XZ 0000000180097c70 f i libucrtd:output.obj
 0001:00096c80       ?state_transition_table@?$standard_base@_WV?$string_output_adapter@_W@__crt_stdio_output@@@__crt_stdio_output@@KAAEBV?$spectre_mitigated_lookup_table@Ustate_transition_pair@__crt_stdio_output@@$0IA@@2@XZ 0000000180097c80 f i libucrtd:output.obj
 0001:00096c90       ?tchar_string@?$common_data@D@__crt_stdio_output@@IEAAAEAPEADD@Z 0000000180097c90 f i libucrtd:output.obj
 0001:00096cb0       ?tchar_string@?$common_data@D@__crt_stdio_output@@IEAAAEAPEADXZ 0000000180097cb0 f i libucrtd:output.obj
 0001:00096cd0       ?tchar_string@?$common_data@_W@__crt_stdio_output@@IEAAAEAPEA_WXZ 0000000180097cd0 f i libucrtd:output.obj
 0001:00096cf0       ?tchar_string@?$common_data@_W@__crt_stdio_output@@IEAAAEAPEA_W_W@Z 0000000180097cf0 f i libucrtd:output.obj
 0001:00096d10       ?to_integer_size@__crt_stdio_output@@YA_KW4length_modifier@1@@Z 0000000180097d10 f i libucrtd:output.obj
 0001:00096df0       ?type_case_X@?$output_processor@DV?$stream_output_adapter@D@__crt_stdio_output@@V?$format_validation_base@DV?$stream_output_adapter@D@__crt_stdio_output@@@2@@__crt_stdio_output@@AEAA_NXZ 0000000180097df0 f i libucrtd:output.obj
 0001:00096e10       ?type_case_X@?$output_processor@DV?$stream_output_adapter@D@__crt_stdio_output@@V?$positional_parameter_base@DV?$stream_output_adapter@D@__crt_stdio_output@@@2@@__crt_stdio_output@@AEAA_NXZ 0000000180097e10 f i libucrtd:output.obj
 0001:00096e30       ?type_case_X@?$output_processor@DV?$stream_output_adapter@D@__crt_stdio_output@@V?$standard_base@DV?$stream_output_adapter@D@__crt_stdio_output@@@2@@__crt_stdio_output@@AEAA_NXZ 0000000180097e30 f i libucrtd:output.obj
 0001:00096e50       ?type_case_X@?$output_processor@DV?$string_output_adapter@D@__crt_stdio_output@@V?$format_validation_base@DV?$string_output_adapter@D@__crt_stdio_output@@@2@@__crt_stdio_output@@AEAA_NXZ 0000000180097e50 f i libucrtd:output.obj
 0001:00096e70       ?type_case_X@?$output_processor@DV?$string_output_adapter@D@__crt_stdio_output@@V?$positional_parameter_base@DV?$string_output_adapter@D@__crt_stdio_output@@@2@@__crt_stdio_output@@AEAA_NXZ 0000000180097e70 f i libucrtd:output.obj
 0001:00096e90       ?type_case_X@?$output_processor@DV?$string_output_adapter@D@__crt_stdio_output@@V?$standard_base@DV?$string_output_adapter@D@__crt_stdio_output@@@2@@__crt_stdio_output@@AEAA_NXZ 0000000180097e90 f i libucrtd:output.obj
 0001:00096eb0       ?type_case_X@?$output_processor@_WV?$stream_output_adapter@_W@__crt_stdio_output@@V?$format_validation_base@_WV?$stream_output_adapter@_W@__crt_stdio_output@@@2@@__crt_stdio_output@@AEAA_NXZ 0000000180097eb0 f i libucrtd:output.obj
 0001:00096ed0       ?type_case_X@?$output_processor@_WV?$stream_output_adapter@_W@__crt_stdio_output@@V?$positional_parameter_base@_WV?$stream_output_adapter@_W@__crt_stdio_output@@@2@@__crt_stdio_output@@AEAA_NXZ 0000000180097ed0 f i libucrtd:output.obj
 0001:00096ef0       ?type_case_X@?$output_processor@_WV?$stream_output_adapter@_W@__crt_stdio_output@@V?$standard_base@_WV?$stream_output_adapter@_W@__crt_stdio_output@@@2@@__crt_stdio_output@@AEAA_NXZ 0000000180097ef0 f i libucrtd:output.obj
 0001:00096f10       ?type_case_X@?$output_processor@_WV?$string_output_adapter@_W@__crt_stdio_output@@V?$format_validation_base@_WV?$string_output_adapter@_W@__crt_stdio_output@@@2@@__crt_stdio_output@@AEAA_NXZ 0000000180097f10 f i libucrtd:output.obj
 0001:00096f30       ?type_case_X@?$output_processor@_WV?$string_output_adapter@_W@__crt_stdio_output@@V?$positional_parameter_base@_WV?$string_output_adapter@_W@__crt_stdio_output@@@2@@__crt_stdio_output@@AEAA_NXZ 0000000180097f30 f i libucrtd:output.obj
 0001:00096f50       ?type_case_X@?$output_processor@_WV?$string_output_adapter@_W@__crt_stdio_output@@V?$standard_base@_WV?$string_output_adapter@_W@__crt_stdio_output@@@2@@__crt_stdio_output@@AEAA_NXZ 0000000180097f50 f i libucrtd:output.obj
 0001:00096f70       ?type_case_Z@?$output_processor@DV?$stream_output_adapter@D@__crt_stdio_output@@V?$format_validation_base@DV?$stream_output_adapter@D@__crt_stdio_output@@@2@@__crt_stdio_output@@AEAA_NXZ 0000000180097f70 f i libucrtd:output.obj
 0001:000970d0       ?type_case_Z@?$output_processor@DV?$stream_output_adapter@D@__crt_stdio_output@@V?$positional_parameter_base@DV?$stream_output_adapter@D@__crt_stdio_output@@@2@@__crt_stdio_output@@AEAA_NXZ 00000001800980d0 f i libucrtd:output.obj
 0001:00097230       ?type_case_Z@?$output_processor@DV?$stream_output_adapter@D@__crt_stdio_output@@V?$standard_base@DV?$stream_output_adapter@D@__crt_stdio_output@@@2@@__crt_stdio_output@@AEAA_NXZ 0000000180098230 f i libucrtd:output.obj
 0001:00097390       ?type_case_Z@?$output_processor@DV?$string_output_adapter@D@__crt_stdio_output@@V?$format_validation_base@DV?$string_output_adapter@D@__crt_stdio_output@@@2@@__crt_stdio_output@@AEAA_NXZ 0000000180098390 f i libucrtd:output.obj
 0001:000974f0       ?type_case_Z@?$output_processor@DV?$string_output_adapter@D@__crt_stdio_output@@V?$positional_parameter_base@DV?$string_output_adapter@D@__crt_stdio_output@@@2@@__crt_stdio_output@@AEAA_NXZ 00000001800984f0 f i libucrtd:output.obj
 0001:00097650       ?type_case_Z@?$output_processor@DV?$string_output_adapter@D@__crt_stdio_output@@V?$standard_base@DV?$string_output_adapter@D@__crt_stdio_output@@@2@@__crt_stdio_output@@AEAA_NXZ 0000000180098650 f i libucrtd:output.obj
 0001:000977b0       ?type_case_Z@?$output_processor@_WV?$stream_output_adapter@_W@__crt_stdio_output@@V?$format_validation_base@_WV?$stream_output_adapter@_W@__crt_stdio_output@@@2@@__crt_stdio_output@@AEAA_NXZ 00000001800987b0 f i libucrtd:output.obj
 0001:00097910       ?type_case_Z@?$output_processor@_WV?$stream_output_adapter@_W@__crt_stdio_output@@V?$positional_parameter_base@_WV?$stream_output_adapter@_W@__crt_stdio_output@@@2@@__crt_stdio_output@@AEAA_NXZ 0000000180098910 f i libucrtd:output.obj
 0001:00097a70       ?type_case_Z@?$output_processor@_WV?$stream_output_adapter@_W@__crt_stdio_output@@V?$standard_base@_WV?$stream_output_adapter@_W@__crt_stdio_output@@@2@@__crt_stdio_output@@AEAA_NXZ 0000000180098a70 f i libucrtd:output.obj
 0001:00097bd0       ?type_case_Z@?$output_processor@_WV?$string_output_adapter@_W@__crt_stdio_output@@V?$format_validation_base@_WV?$string_output_adapter@_W@__crt_stdio_output@@@2@@__crt_stdio_output@@AEAA_NXZ 0000000180098bd0 f i libucrtd:output.obj
 0001:00097d30       ?type_case_Z@?$output_processor@_WV?$string_output_adapter@_W@__crt_stdio_output@@V?$positional_parameter_base@_WV?$string_output_adapter@_W@__crt_stdio_output@@@2@@__crt_stdio_output@@AEAA_NXZ 0000000180098d30 f i libucrtd:output.obj
 0001:00097e90       ?type_case_Z@?$output_processor@_WV?$string_output_adapter@_W@__crt_stdio_output@@V?$standard_base@_WV?$string_output_adapter@_W@__crt_stdio_output@@@2@@__crt_stdio_output@@AEAA_NXZ 0000000180098e90 f i libucrtd:output.obj
 0001:00097ff0       ?type_case_a@?$output_processor@DV?$stream_output_adapter@D@__crt_stdio_output@@V?$format_validation_base@DV?$stream_output_adapter@D@__crt_stdio_output@@@2@@__crt_stdio_output@@AEAA_NXZ 0000000180098ff0 f i libucrtd:output.obj
 0001:00098570       ?type_case_a@?$output_processor@DV?$stream_output_adapter@D@__crt_stdio_output@@V?$positional_parameter_base@DV?$stream_output_adapter@D@__crt_stdio_output@@@2@@__crt_stdio_output@@AEAA_NXZ 0000000180099570 f i libucrtd:output.obj
 0001:00098af0       ?type_case_a@?$output_processor@DV?$stream_output_adapter@D@__crt_stdio_output@@V?$standard_base@DV?$stream_output_adapter@D@__crt_stdio_output@@@2@@__crt_stdio_output@@AEAA_NXZ 0000000180099af0 f i libucrtd:output.obj
 0001:00099070       ?type_case_a@?$output_processor@DV?$string_output_adapter@D@__crt_stdio_output@@V?$format_validation_base@DV?$string_output_adapter@D@__crt_stdio_output@@@2@@__crt_stdio_output@@AEAA_NXZ 000000018009a070 f i libucrtd:output.obj
 0001:000995f0       ?type_case_a@?$output_processor@DV?$string_output_adapter@D@__crt_stdio_output@@V?$positional_parameter_base@DV?$string_output_adapter@D@__crt_stdio_output@@@2@@__crt_stdio_output@@AEAA_NXZ 000000018009a5f0 f i libucrtd:output.obj
 0001:00099b70       ?type_case_a@?$output_processor@DV?$string_output_adapter@D@__crt_stdio_output@@V?$standard_base@DV?$string_output_adapter@D@__crt_stdio_output@@@2@@__crt_stdio_output@@AEAA_NXZ 000000018009ab70 f i libucrtd:output.obj
 0001:0009a0f0       ?type_case_a@?$output_processor@_WV?$stream_output_adapter@_W@__crt_stdio_output@@V?$format_validation_base@_WV?$stream_output_adapter@_W@__crt_stdio_output@@@2@@__crt_stdio_output@@AEAA_NXZ 000000018009b0f0 f i libucrtd:output.obj
 0001:0009a670       ?type_case_a@?$output_processor@_WV?$stream_output_adapter@_W@__crt_stdio_output@@V?$positional_parameter_base@_WV?$stream_output_adapter@_W@__crt_stdio_output@@@2@@__crt_stdio_output@@AEAA_NXZ 000000018009b670 f i libucrtd:output.obj
 0001:0009abf0       ?type_case_a@?$output_processor@_WV?$stream_output_adapter@_W@__crt_stdio_output@@V?$standard_base@_WV?$stream_output_adapter@_W@__crt_stdio_output@@@2@@__crt_stdio_output@@AEAA_NXZ 000000018009bbf0 f i libucrtd:output.obj
 0001:0009b170       ?type_case_a@?$output_processor@_WV?$string_output_adapter@_W@__crt_stdio_output@@V?$format_validation_base@_WV?$string_output_adapter@_W@__crt_stdio_output@@@2@@__crt_stdio_output@@AEAA_NXZ 000000018009c170 f i libucrtd:output.obj
 0001:0009b6f0       ?type_case_a@?$output_processor@_WV?$string_output_adapter@_W@__crt_stdio_output@@V?$positional_parameter_base@_WV?$string_output_adapter@_W@__crt_stdio_output@@@2@@__crt_stdio_output@@AEAA_NXZ 000000018009c6f0 f i libucrtd:output.obj
 0001:0009bc70       ?type_case_a@?$output_processor@_WV?$string_output_adapter@_W@__crt_stdio_output@@V?$standard_base@_WV?$string_output_adapter@_W@__crt_stdio_output@@@2@@__crt_stdio_output@@AEAA_NXZ 000000018009cc70 f i libucrtd:output.obj
 0001:0009c1f0       ?type_case_c@?$output_processor@DV?$stream_output_adapter@D@__crt_stdio_output@@V?$format_validation_base@DV?$stream_output_adapter@D@__crt_stdio_output@@@2@@__crt_stdio_output@@AEAA_NXZ 000000018009d1f0 f i libucrtd:output.obj
 0001:0009c210       ?type_case_c@?$output_processor@DV?$stream_output_adapter@D@__crt_stdio_output@@V?$positional_parameter_base@DV?$stream_output_adapter@D@__crt_stdio_output@@@2@@__crt_stdio_output@@AEAA_NXZ 000000018009d210 f i libucrtd:output.obj
 0001:0009c230       ?type_case_c@?$output_processor@DV?$stream_output_adapter@D@__crt_stdio_output@@V?$standard_base@DV?$stream_output_adapter@D@__crt_stdio_output@@@2@@__crt_stdio_output@@AEAA_NXZ 000000018009d230 f i libucrtd:output.obj
 0001:0009c250       ?type_case_c@?$output_processor@DV?$string_output_adapter@D@__crt_stdio_output@@V?$format_validation_base@DV?$string_output_adapter@D@__crt_stdio_output@@@2@@__crt_stdio_output@@AEAA_NXZ 000000018009d250 f i libucrtd:output.obj
 0001:0009c270       ?type_case_c@?$output_processor@DV?$string_output_adapter@D@__crt_stdio_output@@V?$positional_parameter_base@DV?$string_output_adapter@D@__crt_stdio_output@@@2@@__crt_stdio_output@@AEAA_NXZ 000000018009d270 f i libucrtd:output.obj
 0001:0009c290       ?type_case_c@?$output_processor@DV?$string_output_adapter@D@__crt_stdio_output@@V?$standard_base@DV?$string_output_adapter@D@__crt_stdio_output@@@2@@__crt_stdio_output@@AEAA_NXZ 000000018009d290 f i libucrtd:output.obj
 0001:0009c2b0       ?type_case_c@?$output_processor@_WV?$stream_output_adapter@_W@__crt_stdio_output@@V?$format_validation_base@_WV?$stream_output_adapter@_W@__crt_stdio_output@@@2@@__crt_stdio_output@@AEAA_NXZ 000000018009d2b0 f i libucrtd:output.obj
 0001:0009c2d0       ?type_case_c@?$output_processor@_WV?$stream_output_adapter@_W@__crt_stdio_output@@V?$positional_parameter_base@_WV?$stream_output_adapter@_W@__crt_stdio_output@@@2@@__crt_stdio_output@@AEAA_NXZ 000000018009d2d0 f i libucrtd:output.obj
 0001:0009c2f0       ?type_case_c@?$output_processor@_WV?$stream_output_adapter@_W@__crt_stdio_output@@V?$standard_base@_WV?$stream_output_adapter@_W@__crt_stdio_output@@@2@@__crt_stdio_output@@AEAA_NXZ 000000018009d2f0 f i libucrtd:output.obj
 0001:0009c310       ?type_case_c@?$output_processor@_WV?$string_output_adapter@_W@__crt_stdio_output@@V?$format_validation_base@_WV?$string_output_adapter@_W@__crt_stdio_output@@@2@@__crt_stdio_output@@AEAA_NXZ 000000018009d310 f i libucrtd:output.obj
 0001:0009c330       ?type_case_c@?$output_processor@_WV?$string_output_adapter@_W@__crt_stdio_output@@V?$positional_parameter_base@_WV?$string_output_adapter@_W@__crt_stdio_output@@@2@@__crt_stdio_output@@AEAA_NXZ 000000018009d330 f i libucrtd:output.obj
 0001:0009c350       ?type_case_c@?$output_processor@_WV?$string_output_adapter@_W@__crt_stdio_output@@V?$standard_base@_WV?$string_output_adapter@_W@__crt_stdio_output@@@2@@__crt_stdio_output@@AEAA_NXZ 000000018009d350 f i libucrtd:output.obj
 0001:0009c370       ?type_case_c_tchar@?$output_processor@DV?$stream_output_adapter@D@__crt_stdio_output@@V?$format_validation_base@DV?$stream_output_adapter@D@__crt_stdio_output@@@2@@__crt_stdio_output@@AEAA_ND@Z 000000018009d370 f i libucrtd:output.obj
 0001:0009c540       ?type_case_c_tchar@?$output_processor@DV?$stream_output_adapter@D@__crt_stdio_output@@V?$positional_parameter_base@DV?$stream_output_adapter@D@__crt_stdio_output@@@2@@__crt_stdio_output@@AEAA_ND@Z 000000018009d540 f i libucrtd:output.obj
 0001:0009c710       ?type_case_c_tchar@?$output_processor@DV?$stream_output_adapter@D@__crt_stdio_output@@V?$standard_base@DV?$stream_output_adapter@D@__crt_stdio_output@@@2@@__crt_stdio_output@@AEAA_ND@Z 000000018009d710 f i libucrtd:output.obj
 0001:0009c8e0       ?type_case_c_tchar@?$output_processor@DV?$string_output_adapter@D@__crt_stdio_output@@V?$format_validation_base@DV?$string_output_adapter@D@__crt_stdio_output@@@2@@__crt_stdio_output@@AEAA_ND@Z 000000018009d8e0 f i libucrtd:output.obj
 0001:0009cab0       ?type_case_c_tchar@?$output_processor@DV?$string_output_adapter@D@__crt_stdio_output@@V?$positional_parameter_base@DV?$string_output_adapter@D@__crt_stdio_output@@@2@@__crt_stdio_output@@AEAA_ND@Z 000000018009dab0 f i libucrtd:output.obj
 0001:0009cc80       ?type_case_c_tchar@?$output_processor@DV?$string_output_adapter@D@__crt_stdio_output@@V?$standard_base@DV?$string_output_adapter@D@__crt_stdio_output@@@2@@__crt_stdio_output@@AEAA_ND@Z 000000018009dc80 f i libucrtd:output.obj
 0001:0009ce50       ?type_case_c_tchar@?$output_processor@_WV?$stream_output_adapter@_W@__crt_stdio_output@@V?$format_validation_base@_WV?$stream_output_adapter@_W@__crt_stdio_output@@@2@@__crt_stdio_output@@AEAA_N_W@Z 000000018009de50 f i libucrtd:output.obj
 0001:0009d000       ?type_case_c_tchar@?$output_processor@_WV?$stream_output_adapter@_W@__crt_stdio_output@@V?$positional_parameter_base@_WV?$stream_output_adapter@_W@__crt_stdio_output@@@2@@__crt_stdio_output@@AEAA_N_W@Z 000000018009e000 f i libucrtd:output.obj
 0001:0009d1b0       ?type_case_c_tchar@?$output_processor@_WV?$stream_output_adapter@_W@__crt_stdio_output@@V?$standard_base@_WV?$stream_output_adapter@_W@__crt_stdio_output@@@2@@__crt_stdio_output@@AEAA_N_W@Z 000000018009e1b0 f i libucrtd:output.obj
 0001:0009d360       ?type_case_c_tchar@?$output_processor@_WV?$string_output_adapter@_W@__crt_stdio_output@@V?$format_validation_base@_WV?$string_output_adapter@_W@__crt_stdio_output@@@2@@__crt_stdio_output@@AEAA_N_W@Z 000000018009e360 f i libucrtd:output.obj
 0001:0009d510       ?type_case_c_tchar@?$output_processor@_WV?$string_output_adapter@_W@__crt_stdio_output@@V?$positional_parameter_base@_WV?$string_output_adapter@_W@__crt_stdio_output@@@2@@__crt_stdio_output@@AEAA_N_W@Z 000000018009e510 f i libucrtd:output.obj
 0001:0009d6c0       ?type_case_c_tchar@?$output_processor@_WV?$string_output_adapter@_W@__crt_stdio_output@@V?$standard_base@_WV?$string_output_adapter@_W@__crt_stdio_output@@@2@@__crt_stdio_output@@AEAA_N_W@Z 000000018009e6c0 f i libucrtd:output.obj
 0001:0009d870       ?type_case_d@?$output_processor@DV?$stream_output_adapter@D@__crt_stdio_output@@V?$format_validation_base@DV?$stream_output_adapter@D@__crt_stdio_output@@@2@@__crt_stdio_output@@AEAA_NXZ 000000018009e870 f i libucrtd:output.obj
 0001:0009d8b0       ?type_case_d@?$output_processor@DV?$stream_output_adapter@D@__crt_stdio_output@@V?$positional_parameter_base@DV?$stream_output_adapter@D@__crt_stdio_output@@@2@@__crt_stdio_output@@AEAA_NXZ 000000018009e8b0 f i libucrtd:output.obj
 0001:0009d8f0       ?type_case_d@?$output_processor@DV?$stream_output_adapter@D@__crt_stdio_output@@V?$standard_base@DV?$stream_output_adapter@D@__crt_stdio_output@@@2@@__crt_stdio_output@@AEAA_NXZ 000000018009e8f0 f i libucrtd:output.obj
 0001:0009d930       ?type_case_d@?$output_processor@DV?$string_output_adapter@D@__crt_stdio_output@@V?$format_validation_base@DV?$string_output_adapter@D@__crt_stdio_output@@@2@@__crt_stdio_output@@AEAA_NXZ 000000018009e930 f i libucrtd:output.obj
 0001:0009d970       ?type_case_d@?$output_processor@DV?$string_output_adapter@D@__crt_stdio_output@@V?$positional_parameter_base@DV?$string_output_adapter@D@__crt_stdio_output@@@2@@__crt_stdio_output@@AEAA_NXZ 000000018009e970 f i libucrtd:output.obj
 0001:0009d9b0       ?type_case_d@?$output_processor@DV?$string_output_adapter@D@__crt_stdio_output@@V?$standard_base@DV?$string_output_adapter@D@__crt_stdio_output@@@2@@__crt_stdio_output@@AEAA_NXZ 000000018009e9b0 f i libucrtd:output.obj
 0001:0009d9f0       ?type_case_d@?$output_processor@_WV?$stream_output_adapter@_W@__crt_stdio_output@@V?$format_validation_base@_WV?$stream_output_adapter@_W@__crt_stdio_output@@@2@@__crt_stdio_output@@AEAA_NXZ 000000018009e9f0 f i libucrtd:output.obj
 0001:0009da30       ?type_case_d@?$output_processor@_WV?$stream_output_adapter@_W@__crt_stdio_output@@V?$positional_parameter_base@_WV?$stream_output_adapter@_W@__crt_stdio_output@@@2@@__crt_stdio_output@@AEAA_NXZ 000000018009ea30 f i libucrtd:output.obj
 0001:0009da70       ?type_case_d@?$output_processor@_WV?$stream_output_adapter@_W@__crt_stdio_output@@V?$standard_base@_WV?$stream_output_adapter@_W@__crt_stdio_output@@@2@@__crt_stdio_output@@AEAA_NXZ 000000018009ea70 f i libucrtd:output.obj
 0001:0009dab0       ?type_case_d@?$output_processor@_WV?$string_output_adapter@_W@__crt_stdio_output@@V?$format_validation_base@_WV?$string_output_adapter@_W@__crt_stdio_output@@@2@@__crt_stdio_output@@AEAA_NXZ 000000018009eab0 f i libucrtd:output.obj
 0001:0009daf0       ?type_case_d@?$output_processor@_WV?$string_output_adapter@_W@__crt_stdio_output@@V?$positional_parameter_base@_WV?$string_output_adapter@_W@__crt_stdio_output@@@2@@__crt_stdio_output@@AEAA_NXZ 000000018009eaf0 f i libucrtd:output.obj
 0001:0009db30       ?type_case_d@?$output_processor@_WV?$string_output_adapter@_W@__crt_stdio_output@@V?$standard_base@_WV?$string_output_adapter@_W@__crt_stdio_output@@@2@@__crt_stdio_output@@AEAA_NXZ 000000018009eb30 f i libucrtd:output.obj
 0001:0009db70       ?type_case_n@?$output_processor@DV?$stream_output_adapter@D@__crt_stdio_output@@V?$format_validation_base@DV?$stream_output_adapter@D@__crt_stdio_output@@@2@@__crt_stdio_output@@AEAA_NXZ 000000018009eb70 f i libucrtd:output.obj
 0001:0009dea0       ?type_case_n@?$output_processor@DV?$stream_output_adapter@D@__crt_stdio_output@@V?$positional_parameter_base@DV?$stream_output_adapter@D@__crt_stdio_output@@@2@@__crt_stdio_output@@AEAA_NXZ 000000018009eea0 f i libucrtd:output.obj
 0001:0009e1d0       ?type_case_n@?$output_processor@DV?$stream_output_adapter@D@__crt_stdio_output@@V?$standard_base@DV?$stream_output_adapter@D@__crt_stdio_output@@@2@@__crt_stdio_output@@AEAA_NXZ 000000018009f1d0 f i libucrtd:output.obj
 0001:0009e500       ?type_case_n@?$output_processor@DV?$string_output_adapter@D@__crt_stdio_output@@V?$format_validation_base@DV?$string_output_adapter@D@__crt_stdio_output@@@2@@__crt_stdio_output@@AEAA_NXZ 000000018009f500 f i libucrtd:output.obj
 0001:0009e830       ?type_case_n@?$output_processor@DV?$string_output_adapter@D@__crt_stdio_output@@V?$positional_parameter_base@DV?$string_output_adapter@D@__crt_stdio_output@@@2@@__crt_stdio_output@@AEAA_NXZ 000000018009f830 f i libucrtd:output.obj
 0001:0009eb60       ?type_case_n@?$output_processor@DV?$string_output_adapter@D@__crt_stdio_output@@V?$standard_base@DV?$string_output_adapter@D@__crt_stdio_output@@@2@@__crt_stdio_output@@AEAA_NXZ 000000018009fb60 f i libucrtd:output.obj
 0001:0009ee90       ?type_case_n@?$output_processor@_WV?$stream_output_adapter@_W@__crt_stdio_output@@V?$format_validation_base@_WV?$stream_output_adapter@_W@__crt_stdio_output@@@2@@__crt_stdio_output@@AEAA_NXZ 000000018009fe90 f i libucrtd:output.obj
 0001:0009f1c0       ?type_case_n@?$output_processor@_WV?$stream_output_adapter@_W@__crt_stdio_output@@V?$positional_parameter_base@_WV?$stream_output_adapter@_W@__crt_stdio_output@@@2@@__crt_stdio_output@@AEAA_NXZ 00000001800a01c0 f i libucrtd:output.obj
 0001:0009f4f0       ?type_case_n@?$output_processor@_WV?$stream_output_adapter@_W@__crt_stdio_output@@V?$standard_base@_WV?$stream_output_adapter@_W@__crt_stdio_output@@@2@@__crt_stdio_output@@AEAA_NXZ 00000001800a04f0 f i libucrtd:output.obj
 0001:0009f820       ?type_case_n@?$output_processor@_WV?$string_output_adapter@_W@__crt_stdio_output@@V?$format_validation_base@_WV?$string_output_adapter@_W@__crt_stdio_output@@@2@@__crt_stdio_output@@AEAA_NXZ 00000001800a0820 f i libucrtd:output.obj
 0001:0009fb50       ?type_case_n@?$output_processor@_WV?$string_output_adapter@_W@__crt_stdio_output@@V?$positional_parameter_base@_WV?$string_output_adapter@_W@__crt_stdio_output@@@2@@__crt_stdio_output@@AEAA_NXZ 00000001800a0b50 f i libucrtd:output.obj
 0001:0009fe80       ?type_case_n@?$output_processor@_WV?$string_output_adapter@_W@__crt_stdio_output@@V?$standard_base@_WV?$string_output_adapter@_W@__crt_stdio_output@@@2@@__crt_stdio_output@@AEAA_NXZ 00000001800a0e80 f i libucrtd:output.obj
 0001:000a01b0       ?type_case_o@?$output_processor@DV?$stream_output_adapter@D@__crt_stdio_output@@V?$format_validation_base@DV?$stream_output_adapter@D@__crt_stdio_output@@@2@@__crt_stdio_output@@AEAA_NXZ 00000001800a11b0 f i libucrtd:output.obj
 0001:000a0200       ?type_case_o@?$output_processor@DV?$stream_output_adapter@D@__crt_stdio_output@@V?$positional_parameter_base@DV?$stream_output_adapter@D@__crt_stdio_output@@@2@@__crt_stdio_output@@AEAA_NXZ 00000001800a1200 f i libucrtd:output.obj
 0001:000a0250       ?type_case_o@?$output_processor@DV?$stream_output_adapter@D@__crt_stdio_output@@V?$standard_base@DV?$stream_output_adapter@D@__crt_stdio_output@@@2@@__crt_stdio_output@@AEAA_NXZ 00000001800a1250 f i libucrtd:output.obj
 0001:000a02a0       ?type_case_o@?$output_processor@DV?$string_output_adapter@D@__crt_stdio_output@@V?$format_validation_base@DV?$string_output_adapter@D@__crt_stdio_output@@@2@@__crt_stdio_output@@AEAA_NXZ 00000001800a12a0 f i libucrtd:output.obj
 0001:000a02f0       ?type_case_o@?$output_processor@DV?$string_output_adapter@D@__crt_stdio_output@@V?$positional_parameter_base@DV?$string_output_adapter@D@__crt_stdio_output@@@2@@__crt_stdio_output@@AEAA_NXZ 00000001800a12f0 f i libucrtd:output.obj
 0001:000a0340       ?type_case_o@?$output_processor@DV?$string_output_adapter@D@__crt_stdio_output@@V?$standard_base@DV?$string_output_adapter@D@__crt_stdio_output@@@2@@__crt_stdio_output@@AEAA_NXZ 00000001800a1340 f i libucrtd:output.obj
 0001:000a0390       ?type_case_o@?$output_processor@_WV?$stream_output_adapter@_W@__crt_stdio_output@@V?$format_validation_base@_WV?$stream_output_adapter@_W@__crt_stdio_output@@@2@@__crt_stdio_output@@AEAA_NXZ 00000001800a1390 f i libucrtd:output.obj
 0001:000a03e0       ?type_case_o@?$output_processor@_WV?$stream_output_adapter@_W@__crt_stdio_output@@V?$positional_parameter_base@_WV?$stream_output_adapter@_W@__crt_stdio_output@@@2@@__crt_stdio_output@@AEAA_NXZ 00000001800a13e0 f i libucrtd:output.obj
 0001:000a0430       ?type_case_o@?$output_processor@_WV?$stream_output_adapter@_W@__crt_stdio_output@@V?$standard_base@_WV?$stream_output_adapter@_W@__crt_stdio_output@@@2@@__crt_stdio_output@@AEAA_NXZ 00000001800a1430 f i libucrtd:output.obj
 0001:000a0480       ?type_case_o@?$output_processor@_WV?$string_output_adapter@_W@__crt_stdio_output@@V?$format_validation_base@_WV?$string_output_adapter@_W@__crt_stdio_output@@@2@@__crt_stdio_output@@AEAA_NXZ 00000001800a1480 f i libucrtd:output.obj
 0001:000a04d0       ?type_case_o@?$output_processor@_WV?$string_output_adapter@_W@__crt_stdio_output@@V?$positional_parameter_base@_WV?$string_output_adapter@_W@__crt_stdio_output@@@2@@__crt_stdio_output@@AEAA_NXZ 00000001800a14d0 f i libucrtd:output.obj
 0001:000a0520       ?type_case_o@?$output_processor@_WV?$string_output_adapter@_W@__crt_stdio_output@@V?$standard_base@_WV?$string_output_adapter@_W@__crt_stdio_output@@@2@@__crt_stdio_output@@AEAA_NXZ 00000001800a1520 f i libucrtd:output.obj
 0001:000a0570       ?type_case_p@?$output_processor@DV?$stream_output_adapter@D@__crt_stdio_output@@V?$format_validation_base@DV?$stream_output_adapter@D@__crt_stdio_output@@@2@@__crt_stdio_output@@AEAA_NXZ 00000001800a1570 f i libucrtd:output.obj
 0001:000a05b0       ?type_case_p@?$output_processor@DV?$stream_output_adapter@D@__crt_stdio_output@@V?$positional_parameter_base@DV?$stream_output_adapter@D@__crt_stdio_output@@@2@@__crt_stdio_output@@AEAA_NXZ 00000001800a15b0 f i libucrtd:output.obj
 0001:000a05f0       ?type_case_p@?$output_processor@DV?$stream_output_adapter@D@__crt_stdio_output@@V?$standard_base@DV?$stream_output_adapter@D@__crt_stdio_output@@@2@@__crt_stdio_output@@AEAA_NXZ 00000001800a15f0 f i libucrtd:output.obj
 0001:000a0630       ?type_case_p@?$output_processor@DV?$string_output_adapter@D@__crt_stdio_output@@V?$format_validation_base@DV?$string_output_adapter@D@__crt_stdio_output@@@2@@__crt_stdio_output@@AEAA_NXZ 00000001800a1630 f i libucrtd:output.obj
 0001:000a0670       ?type_case_p@?$output_processor@DV?$string_output_adapter@D@__crt_stdio_output@@V?$positional_parameter_base@DV?$string_output_adapter@D@__crt_stdio_output@@@2@@__crt_stdio_output@@AEAA_NXZ 00000001800a1670 f i libucrtd:output.obj
 0001:000a06b0       ?type_case_p@?$output_processor@DV?$string_output_adapter@D@__crt_stdio_output@@V?$standard_base@DV?$string_output_adapter@D@__crt_stdio_output@@@2@@__crt_stdio_output@@AEAA_NXZ 00000001800a16b0 f i libucrtd:output.obj
 0001:000a06f0       ?type_case_p@?$output_processor@_WV?$stream_output_adapter@_W@__crt_stdio_output@@V?$format_validation_base@_WV?$stream_output_adapter@_W@__crt_stdio_output@@@2@@__crt_stdio_output@@AEAA_NXZ 00000001800a16f0 f i libucrtd:output.obj
 0001:000a0730       ?type_case_p@?$output_processor@_WV?$stream_output_adapter@_W@__crt_stdio_output@@V?$positional_parameter_base@_WV?$stream_output_adapter@_W@__crt_stdio_output@@@2@@__crt_stdio_output@@AEAA_NXZ 00000001800a1730 f i libucrtd:output.obj
 0001:000a0770       ?type_case_p@?$output_processor@_WV?$stream_output_adapter@_W@__crt_stdio_output@@V?$standard_base@_WV?$stream_output_adapter@_W@__crt_stdio_output@@@2@@__crt_stdio_output@@AEAA_NXZ 00000001800a1770 f i libucrtd:output.obj
 0001:000a07b0       ?type_case_p@?$output_processor@_WV?$string_output_adapter@_W@__crt_stdio_output@@V?$format_validation_base@_WV?$string_output_adapter@_W@__crt_stdio_output@@@2@@__crt_stdio_output@@AEAA_NXZ 00000001800a17b0 f i libucrtd:output.obj
 0001:000a07f0       ?type_case_p@?$output_processor@_WV?$string_output_adapter@_W@__crt_stdio_output@@V?$positional_parameter_base@_WV?$string_output_adapter@_W@__crt_stdio_output@@@2@@__crt_stdio_output@@AEAA_NXZ 00000001800a17f0 f i libucrtd:output.obj
 0001:000a0830       ?type_case_p@?$output_processor@_WV?$string_output_adapter@_W@__crt_stdio_output@@V?$standard_base@_WV?$string_output_adapter@_W@__crt_stdio_output@@@2@@__crt_stdio_output@@AEAA_NXZ 00000001800a1830 f i libucrtd:output.obj
 0001:000a0870       ?type_case_s@?$output_processor@DV?$stream_output_adapter@D@__crt_stdio_output@@V?$format_validation_base@DV?$stream_output_adapter@D@__crt_stdio_output@@@2@@__crt_stdio_output@@AEAA_NXZ 00000001800a1870 f i libucrtd:output.obj
 0001:000a09d0       ?type_case_s@?$output_processor@DV?$stream_output_adapter@D@__crt_stdio_output@@V?$positional_parameter_base@DV?$stream_output_adapter@D@__crt_stdio_output@@@2@@__crt_stdio_output@@AEAA_NXZ 00000001800a19d0 f i libucrtd:output.obj
 0001:000a0b30       ?type_case_s@?$output_processor@DV?$stream_output_adapter@D@__crt_stdio_output@@V?$standard_base@DV?$stream_output_adapter@D@__crt_stdio_output@@@2@@__crt_stdio_output@@AEAA_NXZ 00000001800a1b30 f i libucrtd:output.obj
 0001:000a0c90       ?type_case_s@?$output_processor@DV?$string_output_adapter@D@__crt_stdio_output@@V?$format_validation_base@DV?$string_output_adapter@D@__crt_stdio_output@@@2@@__crt_stdio_output@@AEAA_NXZ 00000001800a1c90 f i libucrtd:output.obj
 0001:000a0df0       ?type_case_s@?$output_processor@DV?$string_output_adapter@D@__crt_stdio_output@@V?$positional_parameter_base@DV?$string_output_adapter@D@__crt_stdio_output@@@2@@__crt_stdio_output@@AEAA_NXZ 00000001800a1df0 f i libucrtd:output.obj
 0001:000a0f50       ?type_case_s@?$output_processor@DV?$string_output_adapter@D@__crt_stdio_output@@V?$standard_base@DV?$string_output_adapter@D@__crt_stdio_output@@@2@@__crt_stdio_output@@AEAA_NXZ 00000001800a1f50 f i libucrtd:output.obj
 0001:000a10b0       ?type_case_s@?$output_processor@_WV?$stream_output_adapter@_W@__crt_stdio_output@@V?$format_validation_base@_WV?$stream_output_adapter@_W@__crt_stdio_output@@@2@@__crt_stdio_output@@AEAA_NXZ 00000001800a20b0 f i libucrtd:output.obj
 0001:000a1210       ?type_case_s@?$output_processor@_WV?$stream_output_adapter@_W@__crt_stdio_output@@V?$positional_parameter_base@_WV?$stream_output_adapter@_W@__crt_stdio_output@@@2@@__crt_stdio_output@@AEAA_NXZ 00000001800a2210 f i libucrtd:output.obj
 0001:000a1370       ?type_case_s@?$output_processor@_WV?$stream_output_adapter@_W@__crt_stdio_output@@V?$standard_base@_WV?$stream_output_adapter@_W@__crt_stdio_output@@@2@@__crt_stdio_output@@AEAA_NXZ 00000001800a2370 f i libucrtd:output.obj
 0001:000a14d0       ?type_case_s@?$output_processor@_WV?$string_output_adapter@_W@__crt_stdio_output@@V?$format_validation_base@_WV?$string_output_adapter@_W@__crt_stdio_output@@@2@@__crt_stdio_output@@AEAA_NXZ 00000001800a24d0 f i libucrtd:output.obj
 0001:000a1630       ?type_case_s@?$output_processor@_WV?$string_output_adapter@_W@__crt_stdio_output@@V?$positional_parameter_base@_WV?$string_output_adapter@_W@__crt_stdio_output@@@2@@__crt_stdio_output@@AEAA_NXZ 00000001800a2630 f i libucrtd:output.obj
 0001:000a1790       ?type_case_s@?$output_processor@_WV?$string_output_adapter@_W@__crt_stdio_output@@V?$standard_base@_WV?$string_output_adapter@_W@__crt_stdio_output@@@2@@__crt_stdio_output@@AEAA_NXZ 00000001800a2790 f i libucrtd:output.obj
 0001:000a18f0       ?type_case_s_compute_narrow_string_length@?$output_processor@DV?$stream_output_adapter@D@__crt_stdio_output@@V?$format_validation_base@DV?$stream_output_adapter@D@__crt_stdio_output@@@2@@__crt_stdio_output@@AEAAHHD@Z 00000001800a28f0 f i libucrtd:output.obj
 0001:000a1930       ?type_case_s_compute_narrow_string_length@?$output_processor@DV?$stream_output_adapter@D@__crt_stdio_output@@V?$positional_parameter_base@DV?$stream_output_adapter@D@__crt_stdio_output@@@2@@__crt_stdio_output@@AEAAHHD@Z 00000001800a2930 f i libucrtd:output.obj
 0001:000a1970       ?type_case_s_compute_narrow_string_length@?$output_processor@DV?$stream_output_adapter@D@__crt_stdio_output@@V?$standard_base@DV?$stream_output_adapter@D@__crt_stdio_output@@@2@@__crt_stdio_output@@AEAAHHD@Z 00000001800a2970 f i libucrtd:output.obj
 0001:000a19b0       ?type_case_s_compute_narrow_string_length@?$output_processor@DV?$string_output_adapter@D@__crt_stdio_output@@V?$format_validation_base@DV?$string_output_adapter@D@__crt_stdio_output@@@2@@__crt_stdio_output@@AEAAHHD@Z 00000001800a29b0 f i libucrtd:output.obj
 0001:000a19f0       ?type_case_s_compute_narrow_string_length@?$output_processor@DV?$string_output_adapter@D@__crt_stdio_output@@V?$positional_parameter_base@DV?$string_output_adapter@D@__crt_stdio_output@@@2@@__crt_stdio_output@@AEAAHHD@Z 00000001800a29f0 f i libucrtd:output.obj
 0001:000a1a30       ?type_case_s_compute_narrow_string_length@?$output_processor@DV?$string_output_adapter@D@__crt_stdio_output@@V?$standard_base@DV?$string_output_adapter@D@__crt_stdio_output@@@2@@__crt_stdio_output@@AEAAHHD@Z 00000001800a2a30 f i libucrtd:output.obj
 0001:000a1a70       ?type_case_s_compute_narrow_string_length@?$output_processor@_WV?$stream_output_adapter@_W@__crt_stdio_output@@V?$format_validation_base@_WV?$stream_output_adapter@_W@__crt_stdio_output@@@2@@__crt_stdio_output@@AEAAHH_W@Z 00000001800a2a70 f i libucrtd:output.obj
 0001:000a1b40       ?type_case_s_compute_narrow_string_length@?$output_processor@_WV?$stream_output_adapter@_W@__crt_stdio_output@@V?$positional_parameter_base@_WV?$stream_output_adapter@_W@__crt_stdio_output@@@2@@__crt_stdio_output@@AEAAHH_W@Z 00000001800a2b40 f i libucrtd:output.obj
 0001:000a1c10       ?type_case_s_compute_narrow_string_length@?$output_processor@_WV?$stream_output_adapter@_W@__crt_stdio_output@@V?$standard_base@_WV?$stream_output_adapter@_W@__crt_stdio_output@@@2@@__crt_stdio_output@@AEAAHH_W@Z 00000001800a2c10 f i libucrtd:output.obj
 0001:000a1ce0       ?type_case_s_compute_narrow_string_length@?$output_processor@_WV?$string_output_adapter@_W@__crt_stdio_output@@V?$format_validation_base@_WV?$string_output_adapter@_W@__crt_stdio_output@@@2@@__crt_stdio_output@@AEAAHH_W@Z 00000001800a2ce0 f i libucrtd:output.obj
 0001:000a1db0       ?type_case_s_compute_narrow_string_length@?$output_processor@_WV?$string_output_adapter@_W@__crt_stdio_output@@V?$positional_parameter_base@_WV?$string_output_adapter@_W@__crt_stdio_output@@@2@@__crt_stdio_output@@AEAAHH_W@Z 00000001800a2db0 f i libucrtd:output.obj
 0001:000a1e80       ?type_case_s_compute_narrow_string_length@?$output_processor@_WV?$string_output_adapter@_W@__crt_stdio_output@@V?$standard_base@_WV?$string_output_adapter@_W@__crt_stdio_output@@@2@@__crt_stdio_output@@AEAAHH_W@Z 00000001800a2e80 f i libucrtd:output.obj
 0001:000a1f50       ?type_case_u@?$output_processor@DV?$stream_output_adapter@D@__crt_stdio_output@@V?$format_validation_base@DV?$stream_output_adapter@D@__crt_stdio_output@@@2@@__crt_stdio_output@@AEAA_NXZ 00000001800a2f50 f i libucrtd:output.obj
 0001:000a1f70       ?type_case_u@?$output_processor@DV?$stream_output_adapter@D@__crt_stdio_output@@V?$positional_parameter_base@DV?$stream_output_adapter@D@__crt_stdio_output@@@2@@__crt_stdio_output@@AEAA_NXZ 00000001800a2f70 f i libucrtd:output.obj
 0001:000a1f90       ?type_case_u@?$output_processor@DV?$stream_output_adapter@D@__crt_stdio_output@@V?$standard_base@DV?$stream_output_adapter@D@__crt_stdio_output@@@2@@__crt_stdio_output@@AEAA_NXZ 00000001800a2f90 f i libucrtd:output.obj
 0001:000a1fb0       ?type_case_u@?$output_processor@DV?$string_output_adapter@D@__crt_stdio_output@@V?$format_validation_base@DV?$string_output_adapter@D@__crt_stdio_output@@@2@@__crt_stdio_output@@AEAA_NXZ 00000001800a2fb0 f i libucrtd:output.obj
 0001:000a1fd0       ?type_case_u@?$output_processor@DV?$string_output_adapter@D@__crt_stdio_output@@V?$positional_parameter_base@DV?$string_output_adapter@D@__crt_stdio_output@@@2@@__crt_stdio_output@@AEAA_NXZ 00000001800a2fd0 f i libucrtd:output.obj
 0001:000a1ff0       ?type_case_u@?$output_processor@DV?$string_output_adapter@D@__crt_stdio_output@@V?$standard_base@DV?$string_output_adapter@D@__crt_stdio_output@@@2@@__crt_stdio_output@@AEAA_NXZ 00000001800a2ff0 f i libucrtd:output.obj
 0001:000a2010       ?type_case_u@?$output_processor@_WV?$stream_output_adapter@_W@__crt_stdio_output@@V?$format_validation_base@_WV?$stream_output_adapter@_W@__crt_stdio_output@@@2@@__crt_stdio_output@@AEAA_NXZ 00000001800a3010 f i libucrtd:output.obj
 0001:000a2030       ?type_case_u@?$output_processor@_WV?$stream_output_adapter@_W@__crt_stdio_output@@V?$positional_parameter_base@_WV?$stream_output_adapter@_W@__crt_stdio_output@@@2@@__crt_stdio_output@@AEAA_NXZ 00000001800a3030 f i libucrtd:output.obj
 0001:000a2050       ?type_case_u@?$output_processor@_WV?$stream_output_adapter@_W@__crt_stdio_output@@V?$standard_base@_WV?$stream_output_adapter@_W@__crt_stdio_output@@@2@@__crt_stdio_output@@AEAA_NXZ 00000001800a3050 f i libucrtd:output.obj
 0001:000a2070       ?type_case_u@?$output_processor@_WV?$string_output_adapter@_W@__crt_stdio_output@@V?$format_validation_base@_WV?$string_output_adapter@_W@__crt_stdio_output@@@2@@__crt_stdio_output@@AEAA_NXZ 00000001800a3070 f i libucrtd:output.obj
 0001:000a2090       ?type_case_u@?$output_processor@_WV?$string_output_adapter@_W@__crt_stdio_output@@V?$positional_parameter_base@_WV?$string_output_adapter@_W@__crt_stdio_output@@@2@@__crt_stdio_output@@AEAA_NXZ 00000001800a3090 f i libucrtd:output.obj
 0001:000a20b0       ?type_case_u@?$output_processor@_WV?$string_output_adapter@_W@__crt_stdio_output@@V?$standard_base@_WV?$string_output_adapter@_W@__crt_stdio_output@@@2@@__crt_stdio_output@@AEAA_NXZ 00000001800a30b0 f i libucrtd:output.obj
 0001:000a20d0       ?type_case_x@?$output_processor@DV?$stream_output_adapter@D@__crt_stdio_output@@V?$format_validation_base@DV?$stream_output_adapter@D@__crt_stdio_output@@@2@@__crt_stdio_output@@AEAA_NXZ 00000001800a30d0 f i libucrtd:output.obj
 0001:000a20f0       ?type_case_x@?$output_processor@DV?$stream_output_adapter@D@__crt_stdio_output@@V?$positional_parameter_base@DV?$stream_output_adapter@D@__crt_stdio_output@@@2@@__crt_stdio_output@@AEAA_NXZ 00000001800a30f0 f i libucrtd:output.obj
 0001:000a2110       ?type_case_x@?$output_processor@DV?$stream_output_adapter@D@__crt_stdio_output@@V?$standard_base@DV?$stream_output_adapter@D@__crt_stdio_output@@@2@@__crt_stdio_output@@AEAA_NXZ 00000001800a3110 f i libucrtd:output.obj
 0001:000a2130       ?type_case_x@?$output_processor@DV?$string_output_adapter@D@__crt_stdio_output@@V?$format_validation_base@DV?$string_output_adapter@D@__crt_stdio_output@@@2@@__crt_stdio_output@@AEAA_NXZ 00000001800a3130 f i libucrtd:output.obj
 0001:000a2150       ?type_case_x@?$output_processor@DV?$string_output_adapter@D@__crt_stdio_output@@V?$positional_parameter_base@DV?$string_output_adapter@D@__crt_stdio_output@@@2@@__crt_stdio_output@@AEAA_NXZ 00000001800a3150 f i libucrtd:output.obj
 0001:000a2170       ?type_case_x@?$output_processor@DV?$string_output_adapter@D@__crt_stdio_output@@V?$standard_base@DV?$string_output_adapter@D@__crt_stdio_output@@@2@@__crt_stdio_output@@AEAA_NXZ 00000001800a3170 f i libucrtd:output.obj
 0001:000a2190       ?type_case_x@?$output_processor@_WV?$stream_output_adapter@_W@__crt_stdio_output@@V?$format_validation_base@_WV?$stream_output_adapter@_W@__crt_stdio_output@@@2@@__crt_stdio_output@@AEAA_NXZ 00000001800a3190 f i libucrtd:output.obj
 0001:000a21b0       ?type_case_x@?$output_processor@_WV?$stream_output_adapter@_W@__crt_stdio_output@@V?$positional_parameter_base@_WV?$stream_output_adapter@_W@__crt_stdio_output@@@2@@__crt_stdio_output@@AEAA_NXZ 00000001800a31b0 f i libucrtd:output.obj
 0001:000a21d0       ?type_case_x@?$output_processor@_WV?$stream_output_adapter@_W@__crt_stdio_output@@V?$standard_base@_WV?$stream_output_adapter@_W@__crt_stdio_output@@@2@@__crt_stdio_output@@AEAA_NXZ 00000001800a31d0 f i libucrtd:output.obj
 0001:000a21f0       ?type_case_x@?$output_processor@_WV?$string_output_adapter@_W@__crt_stdio_output@@V?$format_validation_base@_WV?$string_output_adapter@_W@__crt_stdio_output@@@2@@__crt_stdio_output@@AEAA_NXZ 00000001800a31f0 f i libucrtd:output.obj
 0001:000a2210       ?type_case_x@?$output_processor@_WV?$string_output_adapter@_W@__crt_stdio_output@@V?$positional_parameter_base@_WV?$string_output_adapter@_W@__crt_stdio_output@@@2@@__crt_stdio_output@@AEAA_NXZ 00000001800a3210 f i libucrtd:output.obj
 0001:000a2230       ?type_case_x@?$output_processor@_WV?$string_output_adapter@_W@__crt_stdio_output@@V?$standard_base@_WV?$string_output_adapter@_W@__crt_stdio_output@@@2@@__crt_stdio_output@@AEAA_NXZ 00000001800a3230 f i libucrtd:output.obj
 0001:000a2250       ?unget@?$c_string_character_source@D@__crt_strtox@@QEAAXD@Z 00000001800a3250 f i libucrtd:output.obj
 0001:000a2360       ?unget@?$c_string_character_source@_W@__crt_strtox@@QEAAX_W@Z 00000001800a3360 f i libucrtd:output.obj
 0001:000a2470       ?unset_flag@?$output_processor@DV?$stream_output_adapter@D@__crt_stdio_output@@V?$format_validation_base@DV?$stream_output_adapter@D@__crt_stdio_output@@@2@@__crt_stdio_output@@AEAAXI@Z 00000001800a3470 f i libucrtd:output.obj
 0001:000a24a0       ?unset_flag@?$output_processor@DV?$stream_output_adapter@D@__crt_stdio_output@@V?$positional_parameter_base@DV?$stream_output_adapter@D@__crt_stdio_output@@@2@@__crt_stdio_output@@AEAAXI@Z 00000001800a34a0 f i libucrtd:output.obj
 0001:000a24d0       ?unset_flag@?$output_processor@DV?$stream_output_adapter@D@__crt_stdio_output@@V?$standard_base@DV?$stream_output_adapter@D@__crt_stdio_output@@@2@@__crt_stdio_output@@AEAAXI@Z 00000001800a34d0 f i libucrtd:output.obj
 0001:000a2500       ?unset_flag@?$output_processor@DV?$string_output_adapter@D@__crt_stdio_output@@V?$format_validation_base@DV?$string_output_adapter@D@__crt_stdio_output@@@2@@__crt_stdio_output@@AEAAXI@Z 00000001800a3500 f i libucrtd:output.obj
 0001:000a2530       ?unset_flag@?$output_processor@DV?$string_output_adapter@D@__crt_stdio_output@@V?$positional_parameter_base@DV?$string_output_adapter@D@__crt_stdio_output@@@2@@__crt_stdio_output@@AEAAXI@Z 00000001800a3530 f i libucrtd:output.obj
 0001:000a2560       ?unset_flag@?$output_processor@DV?$string_output_adapter@D@__crt_stdio_output@@V?$standard_base@DV?$string_output_adapter@D@__crt_stdio_output@@@2@@__crt_stdio_output@@AEAAXI@Z 00000001800a3560 f i libucrtd:output.obj
 0001:000a2590       ?unset_flag@?$output_processor@_WV?$stream_output_adapter@_W@__crt_stdio_output@@V?$format_validation_base@_WV?$stream_output_adapter@_W@__crt_stdio_output@@@2@@__crt_stdio_output@@AEAAXI@Z 00000001800a3590 f i libucrtd:output.obj
 0001:000a25c0       ?unset_flag@?$output_processor@_WV?$stream_output_adapter@_W@__crt_stdio_output@@V?$positional_parameter_base@_WV?$stream_output_adapter@_W@__crt_stdio_output@@@2@@__crt_stdio_output@@AEAAXI@Z 00000001800a35c0 f i libucrtd:output.obj
 0001:000a25f0       ?unset_flag@?$output_processor@_WV?$stream_output_adapter@_W@__crt_stdio_output@@V?$standard_base@_WV?$stream_output_adapter@_W@__crt_stdio_output@@@2@@__crt_stdio_output@@AEAAXI@Z 00000001800a35f0 f i libucrtd:output.obj
 0001:000a2620       ?unset_flag@?$output_processor@_WV?$string_output_adapter@_W@__crt_stdio_output@@V?$format_validation_base@_WV?$string_output_adapter@_W@__crt_stdio_output@@@2@@__crt_stdio_output@@AEAAXI@Z 00000001800a3620 f i libucrtd:output.obj
 0001:000a2650       ?unset_flag@?$output_processor@_WV?$string_output_adapter@_W@__crt_stdio_output@@V?$positional_parameter_base@_WV?$string_output_adapter@_W@__crt_stdio_output@@@2@@__crt_stdio_output@@AEAAXI@Z 00000001800a3650 f i libucrtd:output.obj
 0001:000a2680       ?unset_flag@?$output_processor@_WV?$string_output_adapter@_W@__crt_stdio_output@@V?$standard_base@_WV?$string_output_adapter@_W@__crt_stdio_output@@@2@@__crt_stdio_output@@AEAAXI@Z 00000001800a3680 f i libucrtd:output.obj
 0001:000a26b0       ?update_field_width@?$positional_parameter_base@DV?$stream_output_adapter@D@__crt_stdio_output@@@__crt_stdio_output@@IEAA_NXZ 00000001800a36b0 f i libucrtd:output.obj
 0001:000a2930       ?update_field_width@?$positional_parameter_base@DV?$string_output_adapter@D@__crt_stdio_output@@@__crt_stdio_output@@IEAA_NXZ 00000001800a3930 f i libucrtd:output.obj
 0001:000a2bb0       ?update_field_width@?$positional_parameter_base@_WV?$stream_output_adapter@_W@__crt_stdio_output@@@__crt_stdio_output@@IEAA_NXZ 00000001800a3bb0 f i libucrtd:output.obj
 0001:000a2e30       ?update_field_width@?$positional_parameter_base@_WV?$string_output_adapter@_W@__crt_stdio_output@@@__crt_stdio_output@@IEAA_NXZ 00000001800a3e30 f i libucrtd:output.obj
 0001:000a30b0       ?update_field_width@?$standard_base@DV?$stream_output_adapter@D@__crt_stdio_output@@@__crt_stdio_output@@IEAA_NXZ 00000001800a40b0 f i libucrtd:output.obj
 0001:000a30f0       ?update_field_width@?$standard_base@DV?$string_output_adapter@D@__crt_stdio_output@@@__crt_stdio_output@@IEAA_NXZ 00000001800a40f0 f i libucrtd:output.obj
 0001:000a3130       ?update_field_width@?$standard_base@_WV?$stream_output_adapter@_W@__crt_stdio_output@@@__crt_stdio_output@@IEAA_NXZ 00000001800a4130 f i libucrtd:output.obj
 0001:000a3170       ?update_field_width@?$standard_base@_WV?$string_output_adapter@_W@__crt_stdio_output@@@__crt_stdio_output@@IEAA_NXZ 00000001800a4170 f i libucrtd:output.obj
 0001:000a31b0       ?update_locale@__crt_cached_ptd_host@@AEAAXXZ 00000001800a41b0 f i libucrtd:output.obj
 0001:000a31e0       ?update_locale_slow@__crt_cached_ptd_host@@AEAAXXZ 00000001800a41e0 f i libucrtd:output.obj
 0001:000a32c0       ?update_precision@?$positional_parameter_base@DV?$stream_output_adapter@D@__crt_stdio_output@@@__crt_stdio_output@@IEAA_NXZ 00000001800a42c0 f i libucrtd:output.obj
 0001:000a3540       ?update_precision@?$positional_parameter_base@DV?$string_output_adapter@D@__crt_stdio_output@@@__crt_stdio_output@@IEAA_NXZ 00000001800a4540 f i libucrtd:output.obj
 0001:000a37c0       ?update_precision@?$positional_parameter_base@_WV?$stream_output_adapter@_W@__crt_stdio_output@@@__crt_stdio_output@@IEAA_NXZ 00000001800a47c0 f i libucrtd:output.obj
 0001:000a3a40       ?update_precision@?$positional_parameter_base@_WV?$string_output_adapter@_W@__crt_stdio_output@@@__crt_stdio_output@@IEAA_NXZ 00000001800a4a40 f i libucrtd:output.obj
 0001:000a3cc0       ?update_precision@?$standard_base@DV?$stream_output_adapter@D@__crt_stdio_output@@@__crt_stdio_output@@IEAA_NXZ 00000001800a4cc0 f i libucrtd:output.obj
 0001:000a3d00       ?update_precision@?$standard_base@DV?$string_output_adapter@D@__crt_stdio_output@@@__crt_stdio_output@@IEAA_NXZ 00000001800a4d00 f i libucrtd:output.obj
 0001:000a3d40       ?update_precision@?$standard_base@_WV?$stream_output_adapter@_W@__crt_stdio_output@@@__crt_stdio_output@@IEAA_NXZ 00000001800a4d40 f i libucrtd:output.obj
 0001:000a3d80       ?update_precision@?$standard_base@_WV?$string_output_adapter@_W@__crt_stdio_output@@@__crt_stdio_output@@IEAA_NXZ 00000001800a4d80 f i libucrtd:output.obj
 0001:000a3dc0       ?valid@__crt_stdio_stream@@QEBA_NXZ 00000001800a4dc0 f i libucrtd:output.obj
 0001:000a3e00       ?validate@?$c_string_character_source@D@__crt_strtox@@QEBA_NXZ 00000001800a4e00 f i libucrtd:output.obj
 0001:000a3ef0       ?validate@?$c_string_character_source@_W@__crt_strtox@@QEBA_NXZ 00000001800a4ef0 f i libucrtd:output.obj
 0001:000a3fe0       ?validate@?$stream_output_adapter@D@__crt_stdio_output@@QEBA_NAEAV__crt_cached_ptd_host@@@Z 00000001800a4fe0 f i libucrtd:output.obj
 0001:000a4110       ?validate@?$stream_output_adapter@_W@__crt_stdio_output@@QEBA_NAEAV__crt_cached_ptd_host@@@Z 00000001800a5110 f i libucrtd:output.obj
 0001:000a4240       ?validate@?$string_output_adapter@D@__crt_stdio_output@@QEBA_NAEAV__crt_cached_ptd_host@@@Z 00000001800a5240 f i libucrtd:output.obj
 0001:000a4350       ?validate@?$string_output_adapter@_W@__crt_stdio_output@@QEBA_NAEAV__crt_cached_ptd_host@@@Z 00000001800a5350 f i libucrtd:output.obj
 0001:000a4460       ?validate_and_store_parameter_data@?$positional_parameter_base@DV?$stream_output_adapter@D@__crt_stdio_output@@@__crt_stdio_output@@AEAA_NAEAUparameter_data@12@W4parameter_type@12@DW4length_modifier@2@@Z 00000001800a5460 f i libucrtd:output.obj
 0001:000a45f0       ?validate_and_store_parameter_data@?$positional_parameter_base@DV?$string_output_adapter@D@__crt_stdio_output@@@__crt_stdio_output@@AEAA_NAEAUparameter_data@12@W4parameter_type@12@DW4length_modifier@2@@Z 00000001800a55f0 f i libucrtd:output.obj
 0001:000a4780       ?validate_and_store_parameter_data@?$positional_parameter_base@_WV?$stream_output_adapter@_W@__crt_stdio_output@@@__crt_stdio_output@@AEAA_NAEAUparameter_data@12@W4parameter_type@12@_WW4length_modifier@2@@Z 00000001800a5780 f i libucrtd:output.obj
 0001:000a4910       ?validate_and_store_parameter_data@?$positional_parameter_base@_WV?$string_output_adapter@_W@__crt_stdio_output@@@__crt_stdio_output@@AEAA_NAEAUparameter_data@12@W4parameter_type@12@_WW4length_modifier@2@@Z 00000001800a5910 f i libucrtd:output.obj
 0001:000a4aa0       ?validate_and_update_state_at_beginning_of_format_character@?$positional_parameter_base@DV?$stream_output_adapter@D@__crt_stdio_output@@@__crt_stdio_output@@IEAA_NXZ 00000001800a5aa0 f i libucrtd:output.obj
 0001:000a4df0       ?validate_and_update_state_at_beginning_of_format_character@?$positional_parameter_base@DV?$string_output_adapter@D@__crt_stdio_output@@@__crt_stdio_output@@IEAA_NXZ 00000001800a5df0 f i libucrtd:output.obj
 0001:000a5140       ?validate_and_update_state_at_beginning_of_format_character@?$positional_parameter_base@_WV?$stream_output_adapter@_W@__crt_stdio_output@@@__crt_stdio_output@@IEAA_NXZ 00000001800a6140 f i libucrtd:output.obj
 0001:000a5490       ?validate_and_update_state_at_beginning_of_format_character@?$positional_parameter_base@_WV?$string_output_adapter@_W@__crt_stdio_output@@@__crt_stdio_output@@IEAA_NXZ 00000001800a6490 f i libucrtd:output.obj
 0001:000a57e0       ?validate_and_update_state_at_beginning_of_format_character@?$standard_base@DV?$stream_output_adapter@D@__crt_stdio_output@@@__crt_stdio_output@@IEAA_NXZ 00000001800a67e0 f i libucrtd:output.obj
 0001:000a57f0       ?validate_and_update_state_at_beginning_of_format_character@?$standard_base@DV?$string_output_adapter@D@__crt_stdio_output@@@__crt_stdio_output@@IEAA_NXZ 00000001800a67f0 f i libucrtd:output.obj
 0001:000a5800       ?validate_and_update_state_at_beginning_of_format_character@?$standard_base@_WV?$stream_output_adapter@_W@__crt_stdio_output@@@__crt_stdio_output@@IEAA_NXZ 00000001800a6800 f i libucrtd:output.obj
 0001:000a5810       ?validate_and_update_state_at_beginning_of_format_character@?$standard_base@_WV?$string_output_adapter@_W@__crt_stdio_output@@@__crt_stdio_output@@IEAA_NXZ 00000001800a6810 f i libucrtd:output.obj
 0001:000a5820       ?validate_and_update_state_at_end_of_format_string@?$format_validation_base@DV?$stream_output_adapter@D@__crt_stdio_output@@@__crt_stdio_output@@IEAA_NXZ 00000001800a6820 f i libucrtd:output.obj
 0001:000a5940       ?validate_and_update_state_at_end_of_format_string@?$format_validation_base@DV?$string_output_adapter@D@__crt_stdio_output@@@__crt_stdio_output@@IEAA_NXZ 00000001800a6940 f i libucrtd:output.obj
 0001:000a5a60       ?validate_and_update_state_at_end_of_format_string@?$format_validation_base@_WV?$stream_output_adapter@_W@__crt_stdio_output@@@__crt_stdio_output@@IEAA_NXZ 00000001800a6a60 f i libucrtd:output.obj
 0001:000a5b80       ?validate_and_update_state_at_end_of_format_string@?$format_validation_base@_WV?$string_output_adapter@_W@__crt_stdio_output@@@__crt_stdio_output@@IEAA_NXZ 00000001800a6b80 f i libucrtd:output.obj
 0001:000a5ca0       ?validate_and_update_state_at_end_of_format_string@?$positional_parameter_base@DV?$stream_output_adapter@D@__crt_stdio_output@@@__crt_stdio_output@@IEAA_NXZ 00000001800a6ca0 f i libucrtd:output.obj
 0001:000a5f60       ?validate_and_update_state_at_end_of_format_string@?$positional_parameter_base@DV?$string_output_adapter@D@__crt_stdio_output@@@__crt_stdio_output@@IEAA_NXZ 00000001800a6f60 f i libucrtd:output.obj
 0001:000a6220       ?validate_and_update_state_at_end_of_format_string@?$positional_parameter_base@_WV?$stream_output_adapter@_W@__crt_stdio_output@@@__crt_stdio_output@@IEAA_NXZ 00000001800a7220 f i libucrtd:output.obj
 0001:000a64e0       ?validate_and_update_state_at_end_of_format_string@?$positional_parameter_base@_WV?$string_output_adapter@_W@__crt_stdio_output@@@__crt_stdio_output@@IEAA_NXZ 00000001800a74e0 f i libucrtd:output.obj
 0001:000a67a0       ?validate_and_update_state_at_end_of_format_string@?$standard_base@DV?$stream_output_adapter@D@__crt_stdio_output@@@__crt_stdio_output@@IEBA_NXZ 00000001800a77a0 f i libucrtd:output.obj
 0001:000a67b0       ?validate_and_update_state_at_end_of_format_string@?$standard_base@DV?$string_output_adapter@D@__crt_stdio_output@@@__crt_stdio_output@@IEBA_NXZ 00000001800a77b0 f i libucrtd:output.obj
 0001:000a67c0       ?validate_and_update_state_at_end_of_format_string@?$standard_base@_WV?$stream_output_adapter@_W@__crt_stdio_output@@@__crt_stdio_output@@IEBA_NXZ 00000001800a77c0 f i libucrtd:output.obj
 0001:000a67d0       ?validate_and_update_state_at_end_of_format_string@?$standard_base@_WV?$string_output_adapter@_W@__crt_stdio_output@@@__crt_stdio_output@@IEBA_NXZ 00000001800a77d0 f i libucrtd:output.obj
 0001:000a67e0       ?validate_state_for_type_case_a@?$positional_parameter_base@DV?$stream_output_adapter@D@__crt_stdio_output@@@__crt_stdio_output@@IEAA_NXZ 00000001800a77e0 f i libucrtd:output.obj
 0001:000a6990       ?validate_state_for_type_case_a@?$positional_parameter_base@DV?$string_output_adapter@D@__crt_stdio_output@@@__crt_stdio_output@@IEAA_NXZ 00000001800a7990 f i libucrtd:output.obj
 0001:000a6b40       ?validate_state_for_type_case_a@?$positional_parameter_base@_WV?$stream_output_adapter@_W@__crt_stdio_output@@@__crt_stdio_output@@IEAA_NXZ 00000001800a7b40 f i libucrtd:output.obj
 0001:000a6cf0       ?validate_state_for_type_case_a@?$positional_parameter_base@_WV?$string_output_adapter@_W@__crt_stdio_output@@@__crt_stdio_output@@IEAA_NXZ 00000001800a7cf0 f i libucrtd:output.obj
 0001:000a6ea0       ?validate_state_for_type_case_a@?$standard_base@DV?$stream_output_adapter@D@__crt_stdio_output@@@__crt_stdio_output@@IEBA_NXZ 00000001800a7ea0 f i libucrtd:output.obj
 0001:000a6eb0       ?validate_state_for_type_case_a@?$standard_base@DV?$string_output_adapter@D@__crt_stdio_output@@@__crt_stdio_output@@IEBA_NXZ 00000001800a7eb0 f i libucrtd:output.obj
 0001:000a6ec0       ?validate_state_for_type_case_a@?$standard_base@_WV?$stream_output_adapter@_W@__crt_stdio_output@@@__crt_stdio_output@@IEBA_NXZ 00000001800a7ec0 f i libucrtd:output.obj
 0001:000a6ed0       ?validate_state_for_type_case_a@?$standard_base@_WV?$string_output_adapter@_W@__crt_stdio_output@@@__crt_stdio_output@@IEBA_NXZ 00000001800a7ed0 f i libucrtd:output.obj
 0001:000a6ee0       ?validate_stream_is_ansi_if_required@?$__acrt_stdio_char_traits@D@@SA_NQEAU_iobuf@@@Z 00000001800a7ee0 f i libucrtd:output.obj
 0001:000a70d0       ?validate_stream_is_ansi_if_required@?$__acrt_stdio_char_traits@_W@@SA_NQEAU_iobuf@@@Z 00000001800a80d0 f i libucrtd:output.obj
 0001:000a70e0       ?wide_character_to_digit@__crt_strtox@@YAH_W@Z 00000001800a80e0 f i libucrtd:output.obj
 0001:000a7520       ?wide_null_string@?$output_processor@DV?$stream_output_adapter@D@__crt_stdio_output@@V?$format_validation_base@DV?$stream_output_adapter@D@__crt_stdio_output@@@2@@__crt_stdio_output@@CAPEA_WXZ 00000001800a8520 f i libucrtd:output.obj
 0001:000a7530       ?wide_null_string@?$output_processor@DV?$stream_output_adapter@D@__crt_stdio_output@@V?$positional_parameter_base@DV?$stream_output_adapter@D@__crt_stdio_output@@@2@@__crt_stdio_output@@CAPEA_WXZ 00000001800a8530 f i libucrtd:output.obj
 0001:000a7540       ?wide_null_string@?$output_processor@DV?$stream_output_adapter@D@__crt_stdio_output@@V?$standard_base@DV?$stream_output_adapter@D@__crt_stdio_output@@@2@@__crt_stdio_output@@CAPEA_WXZ 00000001800a8540 f i libucrtd:output.obj
 0001:000a7550       ?wide_null_string@?$output_processor@DV?$string_output_adapter@D@__crt_stdio_output@@V?$format_validation_base@DV?$string_output_adapter@D@__crt_stdio_output@@@2@@__crt_stdio_output@@CAPEA_WXZ 00000001800a8550 f i libucrtd:output.obj
 0001:000a7560       ?wide_null_string@?$output_processor@DV?$string_output_adapter@D@__crt_stdio_output@@V?$positional_parameter_base@DV?$string_output_adapter@D@__crt_stdio_output@@@2@@__crt_stdio_output@@CAPEA_WXZ 00000001800a8560 f i libucrtd:output.obj
 0001:000a7570       ?wide_null_string@?$output_processor@DV?$string_output_adapter@D@__crt_stdio_output@@V?$standard_base@DV?$string_output_adapter@D@__crt_stdio_output@@@2@@__crt_stdio_output@@CAPEA_WXZ 00000001800a8570 f i libucrtd:output.obj
 0001:000a7580       ?wide_null_string@?$output_processor@_WV?$stream_output_adapter@_W@__crt_stdio_output@@V?$format_validation_base@_WV?$stream_output_adapter@_W@__crt_stdio_output@@@2@@__crt_stdio_output@@CAPEA_WXZ 00000001800a8580 f i libucrtd:output.obj
 0001:000a7590       ?wide_null_string@?$output_processor@_WV?$stream_output_adapter@_W@__crt_stdio_output@@V?$positional_parameter_base@_WV?$stream_output_adapter@_W@__crt_stdio_output@@@2@@__crt_stdio_output@@CAPEA_WXZ 00000001800a8590 f i libucrtd:output.obj
 0001:000a75a0       ?wide_null_string@?$output_processor@_WV?$stream_output_adapter@_W@__crt_stdio_output@@V?$standard_base@_WV?$stream_output_adapter@_W@__crt_stdio_output@@@2@@__crt_stdio_output@@CAPEA_WXZ 00000001800a85a0 f i libucrtd:output.obj
 0001:000a75b0       ?wide_null_string@?$output_processor@_WV?$string_output_adapter@_W@__crt_stdio_output@@V?$format_validation_base@_WV?$string_output_adapter@_W@__crt_stdio_output@@@2@@__crt_stdio_output@@CAPEA_WXZ 00000001800a85b0 f i libucrtd:output.obj
 0001:000a75c0       ?wide_null_string@?$output_processor@_WV?$string_output_adapter@_W@__crt_stdio_output@@V?$positional_parameter_base@_WV?$string_output_adapter@_W@__crt_stdio_output@@@2@@__crt_stdio_output@@CAPEA_WXZ 00000001800a85c0 f i libucrtd:output.obj
 0001:000a75d0       ?wide_null_string@?$output_processor@_WV?$string_output_adapter@_W@__crt_stdio_output@@V?$standard_base@_WV?$string_output_adapter@_W@__crt_stdio_output@@@2@@__crt_stdio_output@@CAPEA_WXZ 00000001800a85d0 f i libucrtd:output.obj
 0001:000a75e0       ?write_character@?$output_adapter_common@DV?$stream_output_adapter@D@__crt_stdio_output@@@__crt_stdio_output@@QEBAXDQEAHAEAV__crt_cached_ptd_host@@@Z 00000001800a85e0 f i libucrtd:output.obj
 0001:000a7650       ?write_character@?$output_adapter_common@_WV?$stream_output_adapter@_W@__crt_stdio_output@@@__crt_stdio_output@@QEBAX_WQEAHAEAV__crt_cached_ptd_host@@@Z 00000001800a8650 f i libucrtd:output.obj
 0001:000a76c0       ?write_character@?$string_output_adapter@D@__crt_stdio_output@@QEBA_NDQEAHAEAV__crt_cached_ptd_host@@@Z 00000001800a86c0 f i libucrtd:output.obj
 0001:000a77c0       ?write_character@?$string_output_adapter@_W@__crt_stdio_output@@QEBA_N_WQEAHAEAV__crt_cached_ptd_host@@@Z 00000001800a87c0 f i libucrtd:output.obj
 0001:000a78c0       ?write_character_without_count_update@?$stream_output_adapter@D@__crt_stdio_output@@QEBA_NDAEAV__crt_cached_ptd_host@@@Z 00000001800a88c0 f i libucrtd:output.obj
 0001:000a7970       ?write_character_without_count_update@?$stream_output_adapter@_W@__crt_stdio_output@@QEBA_N_WAEAV__crt_cached_ptd_host@@@Z 00000001800a8970 f i libucrtd:output.obj
 0001:000a7a20       ?write_stored_string_tchar@?$output_processor@DV?$stream_output_adapter@D@__crt_stdio_output@@V?$format_validation_base@DV?$stream_output_adapter@D@__crt_stdio_output@@@2@@__crt_stdio_output@@AEAA_ND@Z 00000001800a8a20 f i libucrtd:output.obj
 0001:000a7c30       ?write_stored_string_tchar@?$output_processor@DV?$stream_output_adapter@D@__crt_stdio_output@@V?$positional_parameter_base@DV?$stream_output_adapter@D@__crt_stdio_output@@@2@@__crt_stdio_output@@AEAA_ND@Z 00000001800a8c30 f i libucrtd:output.obj
 0001:000a7e40       ?write_stored_string_tchar@?$output_processor@DV?$stream_output_adapter@D@__crt_stdio_output@@V?$standard_base@DV?$stream_output_adapter@D@__crt_stdio_output@@@2@@__crt_stdio_output@@AEAA_ND@Z 00000001800a8e40 f i libucrtd:output.obj
 0001:000a8050       ?write_stored_string_tchar@?$output_processor@DV?$string_output_adapter@D@__crt_stdio_output@@V?$format_validation_base@DV?$string_output_adapter@D@__crt_stdio_output@@@2@@__crt_stdio_output@@AEAA_ND@Z 00000001800a9050 f i libucrtd:output.obj
 0001:000a8260       ?write_stored_string_tchar@?$output_processor@DV?$string_output_adapter@D@__crt_stdio_output@@V?$positional_parameter_base@DV?$string_output_adapter@D@__crt_stdio_output@@@2@@__crt_stdio_output@@AEAA_ND@Z 00000001800a9260 f i libucrtd:output.obj
 0001:000a8470       ?write_stored_string_tchar@?$output_processor@DV?$string_output_adapter@D@__crt_stdio_output@@V?$standard_base@DV?$string_output_adapter@D@__crt_stdio_output@@@2@@__crt_stdio_output@@AEAA_ND@Z 00000001800a9470 f i libucrtd:output.obj
 0001:000a8680       ?write_stored_string_tchar@?$output_processor@_WV?$stream_output_adapter@_W@__crt_stdio_output@@V?$format_validation_base@_WV?$stream_output_adapter@_W@__crt_stdio_output@@@2@@__crt_stdio_output@@AEAA_N_W@Z 00000001800a9680 f i libucrtd:output.obj
 0001:000a8830       ?write_stored_string_tchar@?$output_processor@_WV?$stream_output_adapter@_W@__crt_stdio_output@@V?$positional_parameter_base@_WV?$stream_output_adapter@_W@__crt_stdio_output@@@2@@__crt_stdio_output@@AEAA_N_W@Z 00000001800a9830 f i libucrtd:output.obj
 0001:000a89e0       ?write_stored_string_tchar@?$output_processor@_WV?$stream_output_adapter@_W@__crt_stdio_output@@V?$standard_base@_WV?$stream_output_adapter@_W@__crt_stdio_output@@@2@@__crt_stdio_output@@AEAA_N_W@Z 00000001800a99e0 f i libucrtd:output.obj
 0001:000a8b90       ?write_stored_string_tchar@?$output_processor@_WV?$string_output_adapter@_W@__crt_stdio_output@@V?$format_validation_base@_WV?$string_output_adapter@_W@__crt_stdio_output@@@2@@__crt_stdio_output@@AEAA_N_W@Z 00000001800a9b90 f i libucrtd:output.obj
 0001:000a8d40       ?write_stored_string_tchar@?$output_processor@_WV?$string_output_adapter@_W@__crt_stdio_output@@V?$positional_parameter_base@_WV?$string_output_adapter@_W@__crt_stdio_output@@@2@@__crt_stdio_output@@AEAA_N_W@Z 00000001800a9d40 f i libucrtd:output.obj
 0001:000a8ef0       ?write_stored_string_tchar@?$output_processor@_WV?$string_output_adapter@_W@__crt_stdio_output@@V?$standard_base@_WV?$string_output_adapter@_W@__crt_stdio_output@@@2@@__crt_stdio_output@@AEAA_N_W@Z 00000001800a9ef0 f i libucrtd:output.obj
 0001:000a90a0       ?write_string@?$stream_output_adapter@D@__crt_stdio_output@@QEBAXQEBDHQEAHAEAV__crt_cached_ptd_host@@@Z 00000001800aa0a0 f i libucrtd:output.obj
 0001:000a9140       ?write_string@?$stream_output_adapter@_W@__crt_stdio_output@@QEBAXQEB_WHQEAHAEAV__crt_cached_ptd_host@@@Z 00000001800aa140 f i libucrtd:output.obj
 0001:000a91e0       ?write_string@?$string_output_adapter@D@__crt_stdio_output@@QEBAXQEBDHQEAHAEAV__crt_cached_ptd_host@@@Z 00000001800aa1e0 f i libucrtd:output.obj
 0001:000a93a0       ?write_string@?$string_output_adapter@_W@__crt_stdio_output@@QEBAXQEB_WHQEAHAEAV__crt_cached_ptd_host@@@Z 00000001800aa3a0 f i libucrtd:output.obj
 0001:000a9570       ?write_string_impl@?$output_adapter_common@DV?$stream_output_adapter@D@__crt_stdio_output@@@__crt_stdio_output@@IEBAXQEBDHQEAHAEAV__crt_cached_ptd_host@@@Z 00000001800aa570 f i libucrtd:output.obj
 0001:000a96e0       ?write_string_impl@?$output_adapter_common@_WV?$stream_output_adapter@_W@__crt_stdio_output@@@__crt_stdio_output@@IEBAXQEB_WHQEAHAEAV__crt_cached_ptd_host@@@Z 00000001800aa6e0 f i libucrtd:output.obj
 0001:000a9850       __acrt_disable_global_locale_sync 00000001800aa850 f i libucrtd:output.obj
 0001:000a9880       __acrt_isleadbyte_l_noupdate 00000001800aa880 f i libucrtd:output.obj
 0001:000a98c0       __acrt_locale_get_ctype_array_value 00000001800aa8c0 f i libucrtd:output.obj
 0001:000a9910       __ascii_iswalpha           00000001800aa910 f i libucrtd:output.obj
 0001:000a9960       __ascii_toupper            00000001800aa960 f i libucrtd:output.obj
 0001:000a9990       __ascii_towupper           00000001800aa990 f i libucrtd:output.obj
 0001:000a99b0       __stdio_common_vfprintf    00000001800aa9b0 f   libucrtd:output.obj
 0001:000a9a50       __stdio_common_vfprintf_p  00000001800aaa50 f   libucrtd:output.obj
 0001:000a9af0       __stdio_common_vfprintf_s  00000001800aaaf0 f   libucrtd:output.obj
 0001:000a9b90       __stdio_common_vfwprintf   00000001800aab90 f   libucrtd:output.obj
 0001:000a9c30       __stdio_common_vfwprintf_p 00000001800aac30 f   libucrtd:output.obj
 0001:000a9cd0       __stdio_common_vfwprintf_s 00000001800aacd0 f   libucrtd:output.obj
 0001:000a9d70       __stdio_common_vsnprintf_s 00000001800aad70 f   libucrtd:output.obj
 0001:000a9e30       __stdio_common_vsnwprintf_s 00000001800aae30 f   libucrtd:output.obj
 0001:000a9ef0       __stdio_common_vsprintf    00000001800aaef0 f   libucrtd:output.obj
 0001:000a9fa0       __stdio_common_vsprintf_p  00000001800aafa0 f   libucrtd:output.obj
 0001:000aa050       __stdio_common_vsprintf_s  00000001800ab050 f   libucrtd:output.obj
 0001:000aa100       __stdio_common_vswprintf   00000001800ab100 f   libucrtd:output.obj
 0001:000aa1b0       __stdio_common_vswprintf_p 00000001800ab1b0 f   libucrtd:output.obj
 0001:000aa260       __stdio_common_vswprintf_s 00000001800ab260 f   libucrtd:output.obj
 0001:000aa310       _ctype_fast_check_internal 00000001800ab310 f i libucrtd:output.obj
 0001:000aa340       _isdigit_fast_internal     00000001800ab340 f i libucrtd:output.obj
 0001:000aa370       _tolower_fast_internal     00000001800ab370 f i libucrtd:output.obj
 0001:000aa3a0       ??$?RU?$__crt_report_hook_node@D@@@__crt_internal_free_policy@@QEBAXQEBU?$__crt_report_hook_node@D@@@Z 00000001800ab3a0 f i libucrtd:dbgrpt.obj
 0001:000aa3d0       ??$?RU?$__crt_report_hook_node@_W@@@__crt_internal_free_policy@@QEBAXQEBU?$__crt_report_hook_node@_W@@@Z 00000001800ab3d0 f i libucrtd:dbgrpt.obj
 0001:000abae0       ??$get_module_file_name@AEAPEAUHINSTANCE__@@AEAY0BAF@DK@?$__crt_char_traits@D@@SAKAEAPEAUHINSTANCE__@@AEAY0BAF@D$$QEAK@Z 00000001800acae0 f i libucrtd:dbgrpt.obj
 0001:000abb20       ??$get_module_file_name@AEAPEAUHINSTANCE__@@AEAY0BAF@_WK@?$__crt_char_traits@_W@@SAKAEAPEAUHINSTANCE__@@AEAY0BAF@_W$$QEAK@Z 00000001800acb20 f i libucrtd:dbgrpt.obj
 0001:000abb60       ??$tcscpy_s@AEAY0BAF@D_KPEBD@?$__crt_char_traits@D@@SAHAEAY0BAF@D$$QEA_K$$QEAPEBD@Z 00000001800acb60 f i libucrtd:dbgrpt.obj
 0001:000abba0       ??$tcscpy_s@AEAY0BAF@_W_KPEB_W@?$__crt_char_traits@_W@@SAHAEAY0BAF@_W$$QEA_K$$QEAPEB_W@Z 00000001800acba0 f i libucrtd:dbgrpt.obj
 0001:000abbe0       ??$tcslen@AEAY0BAF@D@?$__crt_char_traits@D@@SA_KAEAY0BAF@D@Z 00000001800acbe0 f i libucrtd:dbgrpt.obj
 0001:000abc00       ??$tcslen@AEAY0BAF@_W@?$__crt_char_traits@_W@@SA_KAEAY0BAF@_W@Z 00000001800acc00 f i libucrtd:dbgrpt.obj
 0001:000abc20       ??$tcslen@AEBQEBD@?$__crt_char_traits@D@@SA_KAEBQEBD@Z 00000001800acc20 f i libucrtd:dbgrpt.obj
 0001:000abc50       ??$tcslen@AEBQEB_W@?$__crt_char_traits@_W@@SA_KAEBQEB_W@Z 00000001800acc50 f i libucrtd:dbgrpt.obj
 0001:000abdc0       ??0?$__crt_unique_heap_ptr@U?$__crt_report_hook_node@D@@U__crt_internal_free_policy@@@@QEAA@QEAU?$__crt_report_hook_node@D@@@Z 00000001800acdc0 f i libucrtd:dbgrpt.obj
 0001:000abdf0       ??0?$__crt_unique_heap_ptr@U?$__crt_report_hook_node@_W@@U__crt_internal_free_policy@@@@QEAA@QEAU?$__crt_report_hook_node@_W@@@Z 00000001800acdf0 f i libucrtd:dbgrpt.obj
 0001:000abe20       ??1?$__crt_unique_heap_ptr@U?$__crt_report_hook_node@D@@U__crt_internal_free_policy@@@@QEAA@XZ 00000001800ace20 f i libucrtd:dbgrpt.obj
 0001:000abe40       ??1?$__crt_unique_heap_ptr@U?$__crt_report_hook_node@_W@@U__crt_internal_free_policy@@@@QEAA@XZ 00000001800ace40 f i libucrtd:dbgrpt.obj
 0001:000abe60       ??B?$__crt_unique_heap_ptr@U?$__crt_report_hook_node@D@@U__crt_internal_free_policy@@@@QEBA_NXZ 00000001800ace60 f i libucrtd:dbgrpt.obj
 0001:000abe80       ??B?$__crt_unique_heap_ptr@U?$__crt_report_hook_node@_W@@U__crt_internal_free_policy@@@@QEBA_NXZ 00000001800ace80 f i libucrtd:dbgrpt.obj
 0001:000ac720       ?detach@?$__crt_unique_heap_ptr@U?$__crt_report_hook_node@D@@U__crt_internal_free_policy@@@@QEAAPEAU?$__crt_report_hook_node@D@@XZ 00000001800ad720 f i libucrtd:dbgrpt.obj
 0001:000ac760       ?detach@?$__crt_unique_heap_ptr@U?$__crt_report_hook_node@_W@@U__crt_internal_free_policy@@@@QEAAPEAU?$__crt_report_hook_node@_W@@XZ 00000001800ad760 f i libucrtd:dbgrpt.obj
 0001:000ac7a0       ?get@?$__crt_unique_heap_ptr@U?$__crt_report_hook_node@D@@U__crt_internal_free_policy@@@@QEBAPEAU?$__crt_report_hook_node@D@@XZ 00000001800ad7a0 f i libucrtd:dbgrpt.obj
 0001:000ac7c0       ?get@?$__crt_unique_heap_ptr@U?$__crt_report_hook_node@_W@@U__crt_internal_free_policy@@@@QEBAPEAU?$__crt_report_hook_node@_W@@XZ 00000001800ad7c0 f i libucrtd:dbgrpt.obj
 0001:000ac840       ?is_valid@?$__crt_unique_heap_ptr@U?$__crt_report_hook_node@D@@U__crt_internal_free_policy@@@@QEBA_NXZ 00000001800ad840 f i libucrtd:dbgrpt.obj
 0001:000ac880       ?is_valid@?$__crt_unique_heap_ptr@U?$__crt_report_hook_node@_W@@U__crt_internal_free_policy@@@@QEBA_NXZ 00000001800ad880 f i libucrtd:dbgrpt.obj
 0001:000ac8c0       ?release@?$__crt_unique_heap_ptr@U?$__crt_report_hook_node@D@@U__crt_internal_free_policy@@@@QEAAXXZ 00000001800ad8c0 f i libucrtd:dbgrpt.obj
 0001:000ac900       ?release@?$__crt_unique_heap_ptr@U?$__crt_report_hook_node@_W@@U__crt_internal_free_policy@@@@QEAAXXZ 00000001800ad900 f i libucrtd:dbgrpt.obj
 0001:000ac940       _CrtDbgReport              00000001800ad940 f   libucrtd:dbgrpt.obj
 0001:000ac9e0       _CrtDbgReportW             00000001800ad9e0 f   libucrtd:dbgrpt.obj
 0001:000aca80       _CrtSetReportHook2         00000001800ada80 f   libucrtd:dbgrpt.obj
 0001:000acab0       _CrtSetReportHookW2        00000001800adab0 f   libucrtd:dbgrpt.obj
 0001:000acae0       __acrt_MessageWindowA      00000001800adae0 f   libucrtd:dbgrpt.obj
 0001:000acb40       __acrt_MessageWindowW      00000001800adb40 f   libucrtd:dbgrpt.obj
 0001:000acba0       _invoke_watson_if_error    00000001800adba0 f i libucrtd:dbgrpt.obj
 0001:000acc00       _invoke_watson_if_oneof    00000001800adc00 f i libucrtd:dbgrpt.obj
 0001:000acc80       _snwprintf_s               00000001800adc80 f i libucrtd:dbgrpt.obj
 0001:000acd00       _vsnwprintf_s_l            00000001800add00 f i libucrtd:dbgrpt.obj
 0001:000acda0       _lrotl                     00000001800adda0 f   libucrtd:rotl.obj
 0001:000acdf0       _rotl                      00000001800addf0 f   libucrtd:rotl.obj
 0001:000ace40       _rotl64                    00000001800ade40 f   libucrtd:rotl.obj
 0001:000acea0       _lrotr                     00000001800adea0 f   libucrtd:rotr.obj
 0001:000acef0       _rotr                      00000001800adef0 f   libucrtd:rotr.obj
 0001:000acf40       _rotr64                    00000001800adf40 f   libucrtd:rotr.obj
 0001:000acfa0       ?get_doserrno@__crt_cached_ptd_host@@QEAAAEAU?$cached@K@1@XZ 00000001800adfa0 f i libucrtd:errno.obj
 0001:000acfc0       ?set@?$cached@K@__crt_cached_ptd_host@@QEAAKK@Z 00000001800adfc0 f i libucrtd:errno.obj
 0001:000acff0       __acrt_errno_from_os_error 00000001800adff0 f   libucrtd:errno.obj
 0001:000ad0a0       __acrt_errno_map_os_error  00000001800ae0a0 f   libucrtd:errno.obj
 0001:000ad0e0       __acrt_errno_map_os_error_ptd 00000001800ae0e0 f   libucrtd:errno.obj
 0001:000ad150       __doserrno                 00000001800ae150 f   libucrtd:errno.obj
 0001:000ad190       _errno                     00000001800ae190 f   libucrtd:errno.obj
 0001:000ad1d0       _get_doserrno              00000001800ae1d0 f   libucrtd:errno.obj
 0001:000ad2c0       _get_errno                 00000001800ae2c0 f   libucrtd:errno.obj
 0001:000ad3b0       _set_doserrno              00000001800ae3b0 f   libucrtd:errno.obj
 0001:000ad3f0       _set_errno                 00000001800ae3f0 f   libucrtd:errno.obj
 0001:000ad430       free                       00000001800ae430 f   libucrtd:free.obj
 0001:000ad470       malloc                     00000001800ae470 f   libucrtd:malloc.obj
 0001:000ad4a0       _recalloc                  00000001800ae4a0 f   libucrtd:recalloc.obj
 0001:000ad500       _recalloc_base             00000001800ae500 f   libucrtd:recalloc.obj
 0001:000adc40       wcscpy_s                   00000001800aec40 f   libucrtd:wcscpy_s.obj
 0001:000ae4e0       wcsncpy_s                  00000001800af4e0 f   libucrtd:wcsncpy_s.obj
 0001:000afd50       ??1?$__crt_simd_cleanup_guard@$00@@QEAA@XZ 00000001800b0d50 f i libucrtd:strnlen.obj
 0001:000afd60       ??1?$__crt_simd_cleanup_guard@$0A@@@QEAA@XZ 00000001800b0d60 f i libucrtd:strnlen.obj
 0001:000afd70       ?compare_equals@?$__crt_simd_traits@$00E@@SA?AT__m256i@@T2@0@Z 00000001800b0d70 f i libucrtd:strnlen.obj
 0001:000afdc0       ?compare_equals@?$__crt_simd_traits@$00G@@SA?AT__m256i@@T2@0@Z 00000001800b0dc0 f i libucrtd:strnlen.obj
 0001:000afe10       ?compare_equals@?$__crt_simd_traits@$0A@E@@SA?AT__m128i@@T2@0@Z 00000001800b0e10 f i libucrtd:strnlen.obj
 0001:000afe50       ?compare_equals@?$__crt_simd_traits@$0A@G@@SA?AT__m128i@@T2@0@Z 00000001800b0e50 f i libucrtd:strnlen.obj
 0001:000afe90       ?compute_byte_mask@?$__crt_simd_pack_traits@$00@@SAHT__m256i@@@Z 00000001800b0e90 f i libucrtd:strnlen.obj
 0001:000afeb0       ?compute_byte_mask@?$__crt_simd_pack_traits@$0A@@@SAHT__m128i@@@Z 00000001800b0eb0 f i libucrtd:strnlen.obj
 0001:000afed0       ?get_zero_pack@?$__crt_simd_pack_traits@$00@@SA?AT__m256i@@XZ 00000001800b0ed0 f i libucrtd:strnlen.obj
 0001:000aff00       ?get_zero_pack@?$__crt_simd_pack_traits@$0A@@@SA?AT__m128i@@XZ 00000001800b0f00 f i libucrtd:strnlen.obj
 0001:000aff20       strnlen                    00000001800b0f20 f   libucrtd:strnlen.obj
 0001:000aff50       wcslen                     00000001800b0f50 f   libucrtd:strnlen.obj
 0001:000aff80       wcsnlen                    00000001800b0f80 f   libucrtd:strnlen.obj
 0001:000b07e0       wcscat_s                   00000001800b17e0 f   libucrtd:wcscat_s.obj
 0001:000b0820       ??$?B$$A6AH_K@Z@__crt_fast_encoded_nullptr_t@@QEBAP6AH_K@ZXZ 00000001800b1820 f i libucrtd:new_handler.obj
 0001:000b0840       ??$__crt_fast_decode_pointer@P6AH_K@Z@@YAP6AH_K@ZQ6AH0@Z@Z 00000001800b1840 f i libucrtd:new_handler.obj
 0001:000b0890       ??$__crt_fast_encode_pointer@P6AH_K@Z@@YAP6AH_K@ZQ6AH0@Z@Z 00000001800b1890 f i libucrtd:new_handler.obj
 0001:000b08e0       ?__crt_fast_encode_pointer@@YA?AU__crt_fast_encoded_nullptr_t@@$$T@Z 00000001800b18e0 f i libucrtd:new_handler.obj
 0001:000b0900       ?_set_new_handler@@YAP6AH_K@ZH@Z 00000001800b1900 f   libucrtd:new_handler.obj
 0001:000b0990       ?initialize@?$dual_state_global@P6AH_K@Z@__crt_state_management@@QEAAXQ6AH_K@Z@Z 00000001800b1990 f i libucrtd:new_handler.obj
 0001:000b09f0       ?value@?$dual_state_global@P6AH_K@Z@__crt_state_management@@QEAAAEAP6AH_K@ZXZ 00000001800b19f0 f i libucrtd:new_handler.obj
 0001:000b0a20       __acrt_initialize_new_handler 00000001800b1a20 f   libucrtd:new_handler.obj
 0001:000b0a50       _callnewh                  00000001800b1a50 f   libucrtd:new_handler.obj
 0001:000b0ad0       _query_new_handler         00000001800b1ad0 f   libucrtd:new_handler.obj
 0001:000b0b20       _set_new_handler           00000001800b1b20 f   libucrtd:new_handler.obj
 0001:000b0bf0       _get_terminate             00000001800b1bf0 f   libucrtd:terminate.obj
 0001:000b0c10       set_terminate              00000001800b1c10 f   libucrtd:terminate.obj
 0001:000b0c60       terminate                  00000001800b1c60 f   libucrtd:terminate.obj
 0001:000b0d40       _seh_filter_dll            00000001800b1d40 f   libucrtd:exception_filter.obj
 0001:000b0d80       _seh_filter_exe            00000001800b1d80 f   libucrtd:exception_filter.obj
 0001:000b1100       ??$?B$$A6AXPEAXK0@Z@__crt_fast_encoded_nullptr_t@@QEBAP6AXPEAXK0@ZXZ 00000001800b2100 f i libucrtd:exit.obj
 0001:000b11f0       ??$__crt_fast_decode_pointer@P6AXPEAXK0@Z@@YAP6AXPEAXK0@ZQ6AX0K0@Z@Z 00000001800b21f0 f i libucrtd:exit.obj
 0001:000b1240       ??$__crt_fast_encode_pointer@P6AXPEAXK0@Z@@YAP6AXPEAXK0@ZQ6AX0K0@Z@Z 00000001800b2240 f i libucrtd:exit.obj
 0001:000b1290       ??$__crt_get_proc_address@P6AXI@Z@@YAP6AXI@ZQEAUHINSTANCE__@@QEBD@Z 00000001800b2290 f i libucrtd:exit.obj
 0001:000b1380       ??0?$__crt_unique_handle_t@U__crt_hmodule_traits@@@@QEAA@QEAUHINSTANCE__@@@Z 00000001800b2380 f i libucrtd:exit.obj
 0001:000b13b0       ??1?$__crt_unique_handle_t@U__crt_hmodule_traits@@@@QEAA@XZ 00000001800b23b0 f i libucrtd:exit.obj
 0001:000b1570       ?__acrt_select_exit_lock@@YA?AW4__acrt_lock_id@@XZ 00000001800b2570 f i libucrtd:exit.obj
 0001:000b15a0       ?close@?$__crt_unique_handle_t@U__crt_hmodule_traits@@@@QEAAXXZ 00000001800b25a0 f i libucrtd:exit.obj
 0001:000b15f0       ?close@__crt_hmodule_traits@@SA_NPEAUHINSTANCE__@@@Z 00000001800b25f0 f i libucrtd:exit.obj
 0001:000b1750       ?get@?$__crt_unique_handle_t@U__crt_hmodule_traits@@@@QEBAPEAUHINSTANCE__@@XZ 00000001800b2750 f i libucrtd:exit.obj
 0001:000b1770       ?get_address_of@?$__crt_unique_handle_t@U__crt_hmodule_traits@@@@QEAAPEAPEAUHINSTANCE__@@XZ 00000001800b2770 f i libucrtd:exit.obj
 0001:000b1780       ?get_invalid_value@__crt_hmodule_traits@@SAPEAUHINSTANCE__@@XZ 00000001800b2780 f i libucrtd:exit.obj
 0001:000b19c0       _Exit                      00000001800b29c0 f   libucrtd:exit.obj
 0001:000b19f0       __acrt_initialize_thread_local_exit_callback 00000001800b29f0 f   libucrtd:exit.obj
 0001:000b1a10       _c_exit                    00000001800b2a10 f   libucrtd:exit.obj
 0001:000b1a40       _cexit                     00000001800b2a40 f   libucrtd:exit.obj
 0001:000b1a60       _exit                      00000001800b2a60 f   libucrtd:exit.obj
 0001:000b1a90       _is_c_termination_complete 00000001800b2a90 f   libucrtd:exit.obj
 0001:000b1ab0       _register_thread_local_exe_atexit_callback 00000001800b2ab0 f   libucrtd:exit.obj
 0001:000b1b10       exit                       00000001800b2b10 f   libucrtd:exit.obj
 0001:000b1b40       quick_exit                 00000001800b2b40 f   libucrtd:exit.obj
 0001:000b1b70       ??$?RE@__crt_internal_free_policy@@QEBAXQEBE@Z 00000001800b2b70 f i libucrtd:argv_parsing.obj
 0001:000b1ba0       ??$?RPEAD@__crt_internal_free_policy@@QEBAXQEBQEAD@Z 00000001800b2ba0 f i libucrtd:argv_parsing.obj
 0001:000b1bd0       ??$?RPEA_W@__crt_internal_free_policy@@QEBAXQEBQEA_W@Z 00000001800b2bd0 f i libucrtd:argv_parsing.obj
 0001:000b2500       ??$get_module_file_name@$$TAEAY0BAF@DH@?$__crt_char_traits@D@@SAK$$QEA$$TAEAY0BAF@D$$QEAH@Z 00000001800b3500 f i libucrtd:argv_parsing.obj
 0001:000b2540       ??$get_module_file_name@$$TAEAY0BAF@_WH@?$__crt_char_traits@_W@@SAK$$QEA$$TAEAY0BAF@_W$$QEAH@Z 00000001800b3540 f i libucrtd:argv_parsing.obj
 0001:000b31a0       ??$set_program_name@PEAD@?$__crt_char_traits@D@@SAX$$QEAPEAD@Z 00000001800b41a0 f i libucrtd:argv_parsing.obj
 0001:000b31d0       ??$set_program_name@PEA_W@?$__crt_char_traits@_W@@SAX$$QEAPEA_W@Z 00000001800b41d0 f i libucrtd:argv_parsing.obj
 0001:000b3260       ??0?$__crt_unique_heap_ptr@EU__crt_internal_free_policy@@@@QEAA@QEAE@Z 00000001800b4260 f i libucrtd:argv_parsing.obj
 0001:000b3290       ??0?$__crt_unique_heap_ptr@PEADU__crt_internal_free_policy@@@@QEAA@QEAPEAD@Z 00000001800b4290 f i libucrtd:argv_parsing.obj
 0001:000b32c0       ??0?$__crt_unique_heap_ptr@PEA_WU__crt_internal_free_policy@@@@QEAA@QEAPEA_W@Z 00000001800b42c0 f i libucrtd:argv_parsing.obj
 0001:000b32f0       ??1?$__crt_unique_heap_ptr@EU__crt_internal_free_policy@@@@QEAA@XZ 00000001800b42f0 f i libucrtd:argv_parsing.obj
 0001:000b3310       ??1?$__crt_unique_heap_ptr@PEADU__crt_internal_free_policy@@@@QEAA@XZ 00000001800b4310 f i libucrtd:argv_parsing.obj
 0001:000b3330       ??1?$__crt_unique_heap_ptr@PEA_WU__crt_internal_free_policy@@@@QEAA@XZ 00000001800b4330 f i libucrtd:argv_parsing.obj
 0001:000b3350       ??B?$__crt_unique_heap_ptr@EU__crt_internal_free_policy@@@@QEBA_NXZ 00000001800b4350 f i libucrtd:argv_parsing.obj
 0001:000b3450       ?detach@?$__crt_unique_heap_ptr@EU__crt_internal_free_policy@@@@QEAAPEAEXZ 00000001800b4450 f i libucrtd:argv_parsing.obj
 0001:000b3490       ?detach@?$__crt_unique_heap_ptr@PEADU__crt_internal_free_policy@@@@QEAAPEAPEADXZ 00000001800b4490 f i libucrtd:argv_parsing.obj
 0001:000b34d0       ?detach@?$__crt_unique_heap_ptr@PEA_WU__crt_internal_free_policy@@@@QEAAPEAPEA_WXZ 00000001800b44d0 f i libucrtd:argv_parsing.obj
 0001:000b35a0       ?get@?$__crt_unique_heap_ptr@EU__crt_internal_free_policy@@@@QEBAPEAEXZ 00000001800b45a0 f i libucrtd:argv_parsing.obj
 0001:000b35c0       ?get@?$__crt_unique_heap_ptr@PEADU__crt_internal_free_policy@@@@QEBAPEAPEADXZ 00000001800b45c0 f i libucrtd:argv_parsing.obj
 0001:000b35e0       ?get@?$__crt_unique_heap_ptr@PEA_WU__crt_internal_free_policy@@@@QEBAPEAPEA_WXZ 00000001800b45e0 f i libucrtd:argv_parsing.obj
 0001:000b3600       ?get_address_of@?$__crt_unique_heap_ptr@PEADU__crt_internal_free_policy@@@@QEAAPEAPEAPEADXZ 00000001800b4600 f i libucrtd:argv_parsing.obj
 0001:000b3610       ?get_address_of@?$__crt_unique_heap_ptr@PEA_WU__crt_internal_free_policy@@@@QEAAPEAPEAPEA_WXZ 00000001800b4610 f i libucrtd:argv_parsing.obj
 0001:000b3660       ?is_valid@?$__crt_unique_heap_ptr@EU__crt_internal_free_policy@@@@QEBA_NXZ 00000001800b4660 f i libucrtd:argv_parsing.obj
 0001:000b36a0       ?release@?$__crt_unique_heap_ptr@EU__crt_internal_free_policy@@@@QEAAXXZ 00000001800b46a0 f i libucrtd:argv_parsing.obj
 0001:000b36e0       ?release@?$__crt_unique_heap_ptr@PEADU__crt_internal_free_policy@@@@QEAAXXZ 00000001800b46e0 f i libucrtd:argv_parsing.obj
 0001:000b3720       ?release@?$__crt_unique_heap_ptr@PEA_WU__crt_internal_free_policy@@@@QEAAXXZ 00000001800b4720 f i libucrtd:argv_parsing.obj
 0001:000b37c0       __acrt_allocate_buffer_for_argv 00000001800b47c0 f   libucrtd:argv_parsing.obj
 0001:000b3920       _configure_narrow_argv     00000001800b4920 f   libucrtd:argv_parsing.obj
 0001:000b3940       _configure_wide_argv       00000001800b4940 f   libucrtd:argv_parsing.obj
 0001:000b3960       _set_pgmptr                00000001800b4960 f i libucrtd:argv_parsing.obj
 0001:000b3980       _set_wpgmptr               00000001800b4980 f i libucrtd:argv_parsing.obj
 0001:000b39a0       ??$?R_W@__crt_internal_free_policy@@QEBAXQEB_W@Z 00000001800b49a0 f i libucrtd:environment_initialization.obj
 0001:000b45c0       ??$get_environment_from_os@$$V@?$__crt_char_traits@D@@SAPEADXZ 00000001800b55c0 f i libucrtd:environment_initialization.obj
 0001:000b45e0       ??$get_environment_from_os@$$V@?$__crt_char_traits@_W@@SAPEA_WXZ 00000001800b55e0 f i libucrtd:environment_initialization.obj
 0001:000b49c0       ??$set_variable_in_environment_nolock@PEADH@?$__crt_char_traits@D@@SAH$$QEAPEAD$$QEAH@Z 00000001800b59c0 f i libucrtd:environment_initialization.obj
 0001:000b49f0       ??$set_variable_in_environment_nolock@PEA_WH@?$__crt_char_traits@_W@@SAH$$QEAPEA_W$$QEAH@Z 00000001800b59f0 f i libucrtd:environment_initialization.obj
 0001:000b4a20       ??$tcscpy_s@PEADAEB_KAEAPEAD@?$__crt_char_traits@D@@SAH$$QEAPEADAEB_KAEAPEAD@Z 00000001800b5a20 f i libucrtd:environment_initialization.obj
 0001:000b4a70       ??$tcscpy_s@PEA_WAEB_KAEAPEA_W@?$__crt_char_traits@_W@@SAH$$QEAPEA_WAEB_KAEAPEA_W@Z 00000001800b5a70 f i libucrtd:environment_initialization.obj
 0001:000b4ac0       ??$tcslen@AEAPEAD@?$__crt_char_traits@D@@SA_KAEAPEAD@Z 00000001800b5ac0 f i libucrtd:environment_initialization.obj
 0001:000b4af0       ??$tcslen@AEAPEA_W@?$__crt_char_traits@_W@@SA_KAEAPEA_W@Z 00000001800b5af0 f i libucrtd:environment_initialization.obj
 0001:000b4b20       ??$uninitialize@A6AXAEAPEAPEAD@_E@?$dual_state_global@PEAPEAD@__crt_state_management@@QEAAXA6AXAEAPEAPEAD@_E@Z 00000001800b5b20 f i libucrtd:environment_initialization.obj
 0001:000b4bc0       ??$uninitialize@A6AXAEAPEAPEA_W@_E@?$dual_state_global@PEAPEA_W@__crt_state_management@@QEAAXA6AXAEAPEAPEA_W@_E@Z 00000001800b5bc0 f i libucrtd:environment_initialization.obj
 0001:000b4ce0       ??0?$__crt_unique_heap_ptr@_WU__crt_internal_free_policy@@@@QEAA@QEA_W@Z 00000001800b5ce0 f i libucrtd:environment_initialization.obj
 0001:000b4d10       ??1?$__crt_unique_heap_ptr@_WU__crt_internal_free_policy@@@@QEAA@XZ 00000001800b5d10 f i libucrtd:environment_initialization.obj
 0001:000b4d30       ??B?$__crt_unique_heap_ptr@PEADU__crt_internal_free_policy@@@@QEBA_NXZ 00000001800b5d30 f i libucrtd:environment_initialization.obj
 0001:000b4d50       ??B?$__crt_unique_heap_ptr@PEA_WU__crt_internal_free_policy@@@@QEBA_NXZ 00000001800b5d50 f i libucrtd:environment_initialization.obj
 0001:000b4d70       ??B?$__crt_unique_heap_ptr@_WU__crt_internal_free_policy@@@@QEBA_NXZ 00000001800b5d70 f i libucrtd:environment_initialization.obj
 0001:000b4d90       ?__crt_compute_required_transform_buffer_count@@YA_KIQEBD@Z 00000001800b5d90 f i libucrtd:environment_initialization.obj
 0001:000b4de0       ?__crt_compute_required_transform_buffer_count@@YA_KIQEB_W@Z 00000001800b5de0 f i libucrtd:environment_initialization.obj
 0001:000b4e40       ?__crt_transform_string@@YA_KIQEBDQEA_W_K@Z 00000001800b5e40 f i libucrtd:environment_initialization.obj
 0001:000b4eb0       ?__crt_transform_string@@YA_KIQEB_WQEAD_K@Z 00000001800b5eb0 f i libucrtd:environment_initialization.obj
 0001:000b4f30       ?detach@?$__crt_unique_heap_ptr@DU__crt_internal_free_policy@@@@QEAAPEADXZ 00000001800b5f30 f i libucrtd:environment_initialization.obj
 0001:000b4f70       ?detach@?$__crt_unique_heap_ptr@_WU__crt_internal_free_policy@@@@QEAAPEA_WXZ 00000001800b5f70 f i libucrtd:environment_initialization.obj
 0001:000b4fb0       ?get@?$__crt_unique_heap_ptr@_WU__crt_internal_free_policy@@@@QEBAPEA_WXZ 00000001800b5fb0 f i libucrtd:environment_initialization.obj
 0001:000b5050       ?initialize@?$dual_state_global@PEAPEAD@__crt_state_management@@QEAAXQEAPEAD@Z 00000001800b6050 f i libucrtd:environment_initialization.obj
 0001:000b50b0       ?initialize@?$dual_state_global@PEAPEA_W@__crt_state_management@@QEAAXQEAPEA_W@Z 00000001800b60b0 f i libucrtd:environment_initialization.obj
 0001:000b5110       ?is_valid@?$__crt_unique_heap_ptr@PEADU__crt_internal_free_policy@@@@QEBA_NXZ 00000001800b6110 f i libucrtd:environment_initialization.obj
 0001:000b5150       ?is_valid@?$__crt_unique_heap_ptr@PEA_WU__crt_internal_free_policy@@@@QEBA_NXZ 00000001800b6150 f i libucrtd:environment_initialization.obj
 0001:000b5190       ?is_valid@?$__crt_unique_heap_ptr@_WU__crt_internal_free_policy@@@@QEBA_NXZ 00000001800b6190 f i libucrtd:environment_initialization.obj
 0001:000b5200       ?release@?$__crt_unique_heap_ptr@_WU__crt_internal_free_policy@@@@QEAAXXZ 00000001800b6200 f i libucrtd:environment_initialization.obj
 0001:000b5240       ?value@?$dual_state_global@PEAPEAD@__crt_state_management@@QEAAAEAPEAPEADXZ 00000001800b6240 f i libucrtd:environment_initialization.obj
 0001:000b5270       ?value@?$dual_state_global@PEAPEA_W@__crt_state_management@@QEAAAEAPEAPEA_WXZ 00000001800b6270 f i libucrtd:environment_initialization.obj
 0001:000b52a0       __dcrt_get_or_create_narrow_environment_nolock 00000001800b62a0 f   libucrtd:environment_initialization.obj
 0001:000b52c0       __dcrt_get_or_create_wide_environment_nolock 00000001800b62c0 f   libucrtd:environment_initialization.obj
 0001:000b52e0       __dcrt_uninitialize_environments_nolock 00000001800b62e0 f   libucrtd:environment_initialization.obj
 0001:000b5340       __p__environ               00000001800b6340 f   libucrtd:environment_initialization.obj
 0001:000b5360       __p__wenviron              00000001800b6360 f   libucrtd:environment_initialization.obj
 0001:000b5380       _get_initial_narrow_environment 00000001800b6380 f   libucrtd:environment_initialization.obj
 0001:000b53a0       _get_initial_wide_environment 00000001800b63a0 f   libucrtd:environment_initialization.obj
 0001:000b53c0       _initialize_narrow_environment 00000001800b63c0 f   libucrtd:environment_initialization.obj
 0001:000b53e0       _initialize_wide_environment 00000001800b63e0 f   libucrtd:environment_initialization.obj
 0001:000b5400       ??$?B$$A6AXXZ@__crt_fast_encoded_nullptr_t@@QEBAP6AXXZXZ 00000001800b6400 f i libucrtd:onexit.obj
 0001:000b5420       ??$?BP6AXXZ@__crt_fast_encoded_nullptr_t@@QEBAPEAP6AXXZXZ 00000001800b6420 f i libucrtd:onexit.obj
 0001:000b5440       ??$?RP6AXXZ@__crt_internal_free_policy@@QEBAXQEBQ6AXXZ@Z 00000001800b6440 f i libucrtd:onexit.obj
 0001:000b5630       ??$__crt_fast_decode_pointer@P6AXXZ@@YAP6AXXZQ6AXXZ@Z 00000001800b6630 f i libucrtd:onexit.obj
 0001:000b5680       ??$__crt_fast_decode_pointer@PEAP6AXXZ@@YAPEAP6AXXZQEAP6AXXZ@Z 00000001800b6680 f i libucrtd:onexit.obj
 0001:000b56d0       ??$__crt_fast_encode_pointer@P6AHXZ@@YAP6AHXZQ6AHXZ@Z 00000001800b66d0 f i libucrtd:onexit.obj
 0001:000b5720       ??$__crt_fast_encode_pointer@P6AXXZ@@YAP6AXXZQ6AXXZ@Z 00000001800b6720 f i libucrtd:onexit.obj
 0001:000b5770       ??$__crt_fast_encode_pointer@PEAP6AXXZ@@YAPEAP6AXXZQEAP6AXXZ@Z 00000001800b6770 f i libucrtd:onexit.obj
 0001:000b58f0       ??0?$__crt_unique_heap_ptr@P6AXXZU__crt_internal_free_policy@@@@QEAA@QEAP6AXXZ@Z 00000001800b68f0 f i libucrtd:onexit.obj
 0001:000b5920       ??1?$__crt_unique_heap_ptr@P6AXXZU__crt_internal_free_policy@@@@QEAA@XZ 00000001800b6920 f i libucrtd:onexit.obj
 0001:000b5940       ??1scoped_global_state_reset@__crt_state_management@@QEAA@XZ 00000001800b6940 f i libucrtd:onexit.obj
 0001:000b60a0       ?detach@?$__crt_unique_heap_ptr@P6AXXZU__crt_internal_free_policy@@@@QEAAPEAP6AXXZXZ 00000001800b70a0 f i libucrtd:onexit.obj
 0001:000b60e0       ?release@?$__crt_unique_heap_ptr@P6AXXZU__crt_internal_free_policy@@@@QEAAXXZ 00000001800b70e0 f i libucrtd:onexit.obj
 0001:000b6120       _crt_at_quick_exit         00000001800b7120 f   libucrtd:onexit.obj
 0001:000b6150       _crt_atexit                00000001800b7150 f   libucrtd:onexit.obj
 0001:000b6180       _execute_onexit_table      00000001800b7180 f   libucrtd:onexit.obj
 0001:000b61d0       _initialize_onexit_table   00000001800b71d0 f   libucrtd:onexit.obj
 0001:000b6270       _register_onexit_function  00000001800b7270 f   libucrtd:onexit.obj
 0001:000b6550       ??$?BX@__crt_fast_encoded_nullptr_t@@QEBAPEAXXZ 00000001800b7550 f i libucrtd:initialization.obj
 0001:000b6570       ??$__crt_fast_encode_pointer@PEAX@@YAPEAXQEAX@Z 00000001800b7570 f i libucrtd:initialization.obj
 0001:000b66b0       ?initialize@?$dual_state_global@PEAU__crt_locale_data@@@__crt_state_management@@QEAAXQEAU__crt_locale_data@@@Z 00000001800b76b0 f i libucrtd:initialization.obj
 0001:000b6710       __acrt_initialize          00000001800b7710 f   libucrtd:initialization.obj
 0001:000b6740       __acrt_thread_attach       00000001800b7740 f   libucrtd:initialization.obj
 0001:000b6760       __acrt_thread_detach       00000001800b7760 f   libucrtd:initialization.obj
 0001:000b6780       __acrt_uninitialize        00000001800b7780 f   libucrtd:initialization.obj
 0001:000b67c0       __acrt_uninitialize_critical 00000001800b77c0 f   libucrtd:initialization.obj
 0001:000b67e0       ??0_LocaleUpdate@@QEAA@QEAU__crt_locale_pointers@@@Z 00000001800b77e0 f i libucrtd:debug_heap.obj
 0001:000b6940       ??1_LocaleUpdate@@QEAA@XZ  00000001800b7940 f i libucrtd:debug_heap.obj
 0001:000b6980       ?GetLocaleT@_LocaleUpdate@@QEAAPEAU__crt_locale_pointers@@XZ 00000001800b7980 f i libucrtd:debug_heap.obj
 0001:000b9620       _CrtCheckMemory            00000001800ba620 f   libucrtd:debug_heap.obj
 0001:000b9820       _CrtDoForAllClientObjects  00000001800ba820 f   libucrtd:debug_heap.obj
 0001:000b99c0       _CrtDumpMemoryLeaks        00000001800ba9c0 f   libucrtd:debug_heap.obj
 0001:000b9ab0       _CrtGetAllocHook           00000001800baab0 f   libucrtd:debug_heap.obj
 0001:000b9ac0       _CrtGetDumpClient          00000001800baac0 f   libucrtd:debug_heap.obj
 0001:000b9ad0       _CrtIsMemoryBlock          00000001800baad0 f   libucrtd:debug_heap.obj
 0001:000b9c60       _CrtIsValidHeapPointer     00000001800bac60 f   libucrtd:debug_heap.obj
 0001:000b9cc0       _CrtIsValidPointer         00000001800bacc0 f   libucrtd:debug_heap.obj
 0001:000b9d00       _CrtMemCheckpoint          00000001800bad00 f   libucrtd:debug_heap.obj
 0001:000ba020       _CrtMemDifference          00000001800bb020 f   libucrtd:debug_heap.obj
 0001:000ba450       _CrtMemDumpAllObjectsSince 00000001800bb450 f   libucrtd:debug_heap.obj
 0001:000ba4c0       _CrtMemDumpStatistics      00000001800bb4c0 f   libucrtd:debug_heap.obj
 0001:000ba6c0       _CrtReportBlockType        00000001800bb6c0 f   libucrtd:debug_heap.obj
 0001:000ba700       _CrtSetAllocHook           00000001800bb700 f   libucrtd:debug_heap.obj
 0001:000ba740       _CrtSetBreakAlloc          00000001800bb740 f   libucrtd:debug_heap.obj
 0001:000ba770       _CrtSetDbgBlockType        00000001800bb770 f   libucrtd:debug_heap.obj
 0001:000ba830       _CrtSetDbgFlag             00000001800bb830 f   libucrtd:debug_heap.obj
 0001:000ba9e0       _CrtSetDumpClient          00000001800bb9e0 f   libucrtd:debug_heap.obj
 0001:000baa20       __acrt_get_locale_data_prefix 00000001800bba20 f i libucrtd:debug_heap.obj
 0001:000baa50       __p__crtBreakAlloc         00000001800bba50 f   libucrtd:debug_heap.obj
 0001:000baa60       __p__crtDbgFlag            00000001800bba60 f   libucrtd:debug_heap.obj
 0001:000baa70       _aligned_free_dbg          00000001800bba70 f   libucrtd:debug_heap.obj
 0001:000bab90       _aligned_malloc_dbg        00000001800bbb90 f   libucrtd:debug_heap.obj
 0001:000babe0       _aligned_msize_dbg         00000001800bbbe0 f   libucrtd:debug_heap.obj
 0001:000bae20       _aligned_offset_malloc_dbg 00000001800bbe20 f   libucrtd:debug_heap.obj
 0001:000bb1c0       _aligned_offset_realloc_dbg 00000001800bc1c0 f   libucrtd:debug_heap.obj
 0001:000bb7a0       _aligned_offset_recalloc_dbg 00000001800bc7a0 f   libucrtd:debug_heap.obj
 0001:000bb900       _aligned_realloc_dbg       00000001800bc900 f   libucrtd:debug_heap.obj
 0001:000bb960       _aligned_recalloc_dbg      00000001800bc960 f   libucrtd:debug_heap.obj
 0001:000bb9d0       _calloc_dbg                00000001800bc9d0 f   libucrtd:debug_heap.obj
 0001:000bba90       _chvalidchk_l              00000001800bca90 f i libucrtd:debug_heap.obj
 0001:000bbad0       _expand_dbg                00000001800bcad0 f   libucrtd:debug_heap.obj
 0001:000bbc50       _free_dbg                  00000001800bcc50 f   libucrtd:debug_heap.obj
 0001:000bbcd0       _ischartype_l              00000001800bccd0 f i libucrtd:debug_heap.obj
 0001:000bbd80       _malloc_dbg                00000001800bcd80 f   libucrtd:debug_heap.obj
 0001:000bbdd0       _msize_dbg                 00000001800bcdd0 f   libucrtd:debug_heap.obj
 0001:000bbfd0       _realloc_dbg               00000001800bcfd0 f   libucrtd:debug_heap.obj
 0001:000bc060       _recalloc_dbg              00000001800bd060 f   libucrtd:debug_heap.obj
 0001:000bc1a0       _initterm                  00000001800bd1a0 f   libucrtd:initterm.obj
 0001:000bc230       _initterm_e                00000001800bd230 f   libucrtd:initterm.obj
 0001:000bc8f0       strcpy_s                   00000001800bd8f0 f   libucrtd:strcpy_s.obj
 0001:000bd140       strcat_s                   00000001800be140 f   libucrtd:strcat_s.obj
 0001:000be2e0       _makepath                  00000001800bf2e0 f   libucrtd:makepath.obj
 0001:000be340       _makepath_s                00000001800bf340 f   libucrtd:makepath.obj
 0001:000be3a0       _wmakepath                 00000001800bf3a0 f   libucrtd:makepath.obj
 0001:000be400       _wmakepath_s               00000001800bf400 f   libucrtd:makepath.obj
 0001:000c1400       ??$tcsncpy_s@AEAPEAD_KAEAPEBDAEB_K@?$__crt_char_traits@D@@SAHAEAPEAD$$QEA_KAEAPEBDAEB_K@Z 00000001800c2400 f i libucrtd:splitpath.obj
 0001:000c1460       ??$tcsncpy_s@AEAPEAD_KAEAPEBDH@?$__crt_char_traits@D@@SAHAEAPEAD$$QEA_KAEAPEBD$$QEAH@Z 00000001800c2460 f i libucrtd:splitpath.obj
 0001:000c14c0       ??$tcsncpy_s@AEAPEA_W_KAEAPEB_WAEB_K@?$__crt_char_traits@_W@@SAHAEAPEA_W$$QEA_KAEAPEB_WAEB_K@Z 00000001800c24c0 f i libucrtd:splitpath.obj
 0001:000c1520       ??$tcsncpy_s@AEAPEA_W_KAEAPEB_WH@?$__crt_char_traits@_W@@SAHAEAPEA_W$$QEA_KAEAPEB_W$$QEAH@Z 00000001800c2520 f i libucrtd:splitpath.obj
 0001:000c1870       _splitpath                 00000001800c2870 f   libucrtd:splitpath.obj
 0001:000c18c0       _splitpath_s               00000001800c28c0 f   libucrtd:splitpath.obj
 0001:000c1980       _wsplitpath                00000001800c2980 f   libucrtd:splitpath.obj
 0001:000c19d0       _wsplitpath_s              00000001800c29d0 f   libucrtd:splitpath.obj
 0001:000c1a90       __acrt_initialize_locks    00000001800c2a90 f   libucrtd:locks.obj
 0001:000c1b20       __acrt_lock                00000001800c2b20 f   libucrtd:locks.obj
 0001:000c1b60       __acrt_uninitialize_locks  00000001800c2b60 f   libucrtd:locks.obj
 0001:000c1be0       __acrt_unlock              00000001800c2be0 f   libucrtd:locks.obj
 0001:000c1c20       _lock_locales              00000001800c2c20 f   libucrtd:locks.obj
 0001:000c1c40       _unlock_locales            00000001800c2c40 f   libucrtd:locks.obj
 0001:000c1c60       _set_abort_behavior        00000001800c2c60 f   libucrtd:abort.obj
 0001:000c1cb0       abort                      00000001800c2cb0 f   libucrtd:abort.obj
 0001:000c1d60       strlen                     00000001800c2d60 f   libucrtd:strlen.obj
 0001:000c1e50       strcmp                     00000001800c2e50 f   libucrtd:strcmp.obj
 0001:000c1ee0       ??$is_overflow_condition@_K@__crt_strtox@@YA_NI_K@Z 00000001800c2ee0 f i libucrtd:atox.obj
 0001:000c1f70       ??$make_c_string_character_source@D$$T@__crt_strtox@@YA?AV?$c_string_character_source@D@0@QEBD$$T@Z 00000001800c2f70 f i libucrtd:atox.obj
 0001:000c1fb0       ??$make_c_string_character_source@_W$$T@__crt_strtox@@YA?AV?$c_string_character_source@_W@0@QEB_W$$T@Z 00000001800c2fb0 f i libucrtd:atox.obj
 0001:000c1ff0       ??$parse_integer@KV?$c_string_character_source@D@__crt_strtox@@$00@__crt_strtox@@YAKAEAV__crt_cached_ptd_host@@V?$c_string_character_source@D@0@H_N@Z 00000001800c2ff0 f i libucrtd:atox.obj
 0001:000c25e0       ??$parse_integer@KV?$c_string_character_source@_W@__crt_strtox@@$00@__crt_strtox@@YAKAEAV__crt_cached_ptd_host@@V?$c_string_character_source@_W@0@H_N@Z 00000001800c35e0 f i libucrtd:atox.obj
 0001:000c2be0       ??$parse_integer@_KV?$c_string_character_source@D@__crt_strtox@@$00@__crt_strtox@@YA_KAEAV__crt_cached_ptd_host@@V?$c_string_character_source@D@0@H_N@Z 00000001800c3be0 f i libucrtd:atox.obj
 0001:000c3240       ??$parse_integer@_KV?$c_string_character_source@_W@__crt_strtox@@$00@__crt_strtox@@YA_KAEAV__crt_cached_ptd_host@@V?$c_string_character_source@_W@0@H_N@Z 00000001800c4240 f i libucrtd:atox.obj
 0001:000c38b0       ??$parse_integer_from_string@JD$$T@__crt_strtox@@YAJQEBD$$THQEAU__crt_locale_pointers@@@Z 00000001800c48b0 f i libucrtd:atox.obj
 0001:000c3960       ??$parse_integer_from_string@J_W$$T@__crt_strtox@@YAJQEB_W$$THQEAU__crt_locale_pointers@@@Z 00000001800c4960 f i libucrtd:atox.obj
 0001:000c3a10       ??$parse_integer_from_string@_JD$$T@__crt_strtox@@YA_JQEBD$$THQEAU__crt_locale_pointers@@@Z 00000001800c4a10 f i libucrtd:atox.obj
 0001:000c3ac0       ??$parse_integer_from_string@_J_W$$T@__crt_strtox@@YA_JQEB_W$$THQEAU__crt_locale_pointers@@@Z 00000001800c4ac0 f i libucrtd:atox.obj
 0001:000c3b70       ?is_space@__crt_strtox@@YA_NDQEAU__crt_locale_pointers@@@Z 00000001800c4b70 f i libucrtd:atox.obj
 0001:000c3bd0       ?is_space@__crt_strtox@@YA_N_WPEAU__crt_locale_pointers@@@Z 00000001800c4bd0 f i libucrtd:atox.obj
 0001:000c3c20       ?maximum_signed_value@__crt_strtox@@YA_J_K@Z 00000001800c4c20 f i libucrtd:atox.obj
 0001:000c3c40       ?minimum_signed_value@__crt_strtox@@YA_J_K@Z 00000001800c4c40 f i libucrtd:atox.obj
 0001:000c3c60       _atoi64                    00000001800c4c60 f   libucrtd:atox.obj
 0001:000c3c90       _atoi64_l                  00000001800c4c90 f   libucrtd:atox.obj
 0001:000c3cd0       _atoi_l                    00000001800c4cd0 f   libucrtd:atox.obj
 0001:000c3d10       _atol_l                    00000001800c4d10 f   libucrtd:atox.obj
 0001:000c3d50       _atoll_l                   00000001800c4d50 f   libucrtd:atox.obj
 0001:000c3d90       _wtoi                      00000001800c4d90 f   libucrtd:atox.obj
 0001:000c3dc0       _wtoi64                    00000001800c4dc0 f   libucrtd:atox.obj
 0001:000c3df0       _wtoi64_l                  00000001800c4df0 f   libucrtd:atox.obj
 0001:000c3e30       _wtoi_l                    00000001800c4e30 f   libucrtd:atox.obj
 0001:000c3e70       _wtol                      00000001800c4e70 f   libucrtd:atox.obj
 0001:000c3ea0       _wtol_l                    00000001800c4ea0 f   libucrtd:atox.obj
 0001:000c3ee0       _wtoll                     00000001800c4ee0 f   libucrtd:atox.obj
 0001:000c3f10       _wtoll_l                   00000001800c4f10 f   libucrtd:atox.obj
 0001:000c3f50       atoi                       00000001800c4f50 f   libucrtd:atox.obj
 0001:000c3f80       atol                       00000001800c4f80 f   libucrtd:atox.obj
 0001:000c3fb0       atoll                      00000001800c4fb0 f   libucrtd:atox.obj
 0001:000c3ff0       strncmp                    00000001800c4ff0 f   libucrtd:strncmp.obj
 0001:000c4090       wcsncmp                    00000001800c5090 f   libucrtd:wcsncmp.obj
 0001:000c4140       ??$?RU__acrt_ptd@@@__crt_internal_free_policy@@QEBAXQEBU__acrt_ptd@@@Z 00000001800c5140 f i libucrtd:per_thread_data.obj
 0001:000c4700       ??0?$__crt_unique_heap_ptr@U__acrt_ptd@@U__crt_internal_free_policy@@@@QEAA@QEAU__acrt_ptd@@@Z 00000001800c5700 f i libucrtd:per_thread_data.obj
 0001:000c4730       ??1?$__crt_unique_heap_ptr@U__acrt_ptd@@U__crt_internal_free_policy@@@@QEAA@XZ 00000001800c5730 f i libucrtd:per_thread_data.obj
 0001:000c4750       ??B?$__crt_unique_heap_ptr@U__acrt_ptd@@U__crt_internal_free_policy@@@@QEBA_NXZ 00000001800c5750 f i libucrtd:per_thread_data.obj
 0001:000c4b30       ?dangerous_get_state_array@?$dual_state_global@PEAU__crt_locale_data@@@__crt_state_management@@QEAAPEAPEAU__crt_locale_data@@XZ 00000001800c5b30 f i libucrtd:per_thread_data.obj
 0001:000c4d50       ?detach@?$__crt_unique_heap_ptr@U__acrt_ptd@@U__crt_internal_free_policy@@@@QEAAPEAU__acrt_ptd@@XZ 00000001800c5d50 f i libucrtd:per_thread_data.obj
 0001:000c4d90       ?get@?$__crt_unique_heap_ptr@U__acrt_ptd@@U__crt_internal_free_policy@@@@QEBAPEAU__acrt_ptd@@XZ 00000001800c5d90 f i libucrtd:per_thread_data.obj
 0001:000c4ff0       ?is_valid@?$__crt_unique_heap_ptr@U__acrt_ptd@@U__crt_internal_free_policy@@@@QEBA_NXZ 00000001800c5ff0 f i libucrtd:per_thread_data.obj
 0001:000c5030       ?release@?$__crt_unique_heap_ptr@U__acrt_ptd@@U__crt_internal_free_policy@@@@QEAAXXZ 00000001800c6030 f i libucrtd:per_thread_data.obj
 0001:000c51b0       ?value@?$dual_state_global@PEAU__crt_locale_data@@@__crt_state_management@@QEAAAEAPEAU__crt_locale_data@@XZ 00000001800c61b0 f i libucrtd:per_thread_data.obj
 0001:000c51e0       __acrt_freeptd             00000001800c61e0 f   libucrtd:per_thread_data.obj
 0001:000c5230       __acrt_getptd              00000001800c6230 f   libucrtd:per_thread_data.obj
 0001:000c5260       __acrt_getptd_head         00000001800c6260 f   libucrtd:per_thread_data.obj
 0001:000c5290       __acrt_getptd_noexit       00000001800c6290 f   libucrtd:per_thread_data.obj
 0001:000c52b0       __acrt_getptd_noexit_explicit 00000001800c62b0 f   libucrtd:per_thread_data.obj
 0001:000c52e0       __acrt_initialize_ptd      00000001800c62e0 f   libucrtd:per_thread_data.obj
 0001:000c5330       __acrt_uninitialize_ptd    00000001800c6330 f   libucrtd:per_thread_data.obj
 0001:000c5370       __threadhandle             00000001800c6370 f   libucrtd:per_thread_data.obj
 0001:000c5390       __threadid                 00000001800c6390 f   libucrtd:per_thread_data.obj
 0001:000c53d0       ??$?B$$A6AHPEA_WK_J@Z@__crt_fast_encoded_nullptr_t@@QEBAP6AHPEA_WK_J@ZXZ 00000001800c63d0 f i libucrtd:winapi_thunks.obj
 0001:000c54d0       ??$__crt_fast_decode_pointer@P6AHPEA_WK_J@Z@@YAP6AHPEA_WK_J@ZQ6AH0K1@Z@Z 00000001800c64d0 f i libucrtd:winapi_thunks.obj
 0001:000c5520       ??$__crt_fast_decode_pointer@PEAX@@YAPEAXQEAX@Z 00000001800c6520 f i libucrtd:winapi_thunks.obj
 0001:000c5570       ??$__crt_fast_encode_pointer@P6AHPEA_WK_J@Z@@YAP6AHPEA_WK_J@ZQ6AH0K1@Z@Z 00000001800c6570 f i libucrtd:winapi_thunks.obj
 0001:000c64a0       GetCurrentThreadEffectiveToken 00000001800c74a0 f i libucrtd:winapi_thunks.obj
 0001:000c64b0       __acrt_AppPolicyGetProcessTerminationMethodInternal 00000001800c74b0 f   libucrtd:winapi_thunks.obj
 0001:000c6530       __acrt_AppPolicyGetShowDeveloperDiagnosticInternal 00000001800c7530 f   libucrtd:winapi_thunks.obj
 0001:000c65b0       __acrt_AppPolicyGetThreadInitializationTypeInternal 00000001800c75b0 f   libucrtd:winapi_thunks.obj
 0001:000c6630       __acrt_AppPolicyGetWindowingModelInternal 00000001800c7630 f   libucrtd:winapi_thunks.obj
 0001:000c66b0       __acrt_AreFileApisANSI     00000001800c76b0 f   libucrtd:winapi_thunks.obj
 0001:000c6710       __acrt_CompareStringEx     00000001800c7710 f   libucrtd:winapi_thunks.obj
 0001:000c6870       __acrt_EnumSystemLocalesEx 00000001800c7870 f   libucrtd:winapi_thunks.obj
 0001:000c6920       __acrt_FlsAlloc            00000001800c7920 f   libucrtd:winapi_thunks.obj
 0001:000c6940       __acrt_FlsFree             00000001800c7940 f   libucrtd:winapi_thunks.obj
 0001:000c6960       __acrt_FlsGetValue         00000001800c7960 f   libucrtd:winapi_thunks.obj
 0001:000c6980       __acrt_FlsSetValue         00000001800c7980 f   libucrtd:winapi_thunks.obj
 0001:000c69b0       __acrt_GetDateFormatEx     00000001800c79b0 f   libucrtd:winapi_thunks.obj
 0001:000c6ac0       __acrt_GetEnabledXStateFeatures 00000001800c7ac0 f   libucrtd:winapi_thunks.obj
 0001:000c6b20       __acrt_GetLocaleInfoEx     00000001800c7b20 f   libucrtd:winapi_thunks.obj
 0001:000c6be0       __acrt_GetSystemTimePreciseAsFileTime 00000001800c7be0 f   libucrtd:winapi_thunks.obj
 0001:000c6c60       __acrt_GetTimeFormatEx     00000001800c7c60 f   libucrtd:winapi_thunks.obj
 0001:000c6d60       __acrt_GetUserDefaultLocaleName 00000001800c7d60 f   libucrtd:winapi_thunks.obj
 0001:000c6df0       __acrt_GetXStateFeaturesMask 00000001800c7df0 f   libucrtd:winapi_thunks.obj
 0001:000c6e70       __acrt_InitializeCriticalSectionEx 00000001800c7e70 f   libucrtd:winapi_thunks.obj
 0001:000c6f00       __acrt_IsValidLocaleName   00000001800c7f00 f   libucrtd:winapi_thunks.obj
 0001:000c6f90       __acrt_LCIDToLocaleName    00000001800c7f90 f   libucrtd:winapi_thunks.obj
 0001:000c7030       __acrt_LCMapStringEx       00000001800c8030 f   libucrtd:winapi_thunks.obj
 0001:000c7180       __acrt_LocaleNameToLCID    00000001800c8180 f   libucrtd:winapi_thunks.obj
 0001:000c7200       __acrt_LocateXStateFeature 00000001800c8200 f   libucrtd:winapi_thunks.obj
 0001:000c7280       __acrt_MessageBoxA         00000001800c8280 f   libucrtd:winapi_thunks.obj
 0001:000c7310       __acrt_MessageBoxW         00000001800c8310 f   libucrtd:winapi_thunks.obj
 0001:000c73a0       __acrt_RoInitialize        00000001800c83a0 f   libucrtd:winapi_thunks.obj
 0001:000c7410       __acrt_RoUninitialize      00000001800c8410 f   libucrtd:winapi_thunks.obj
 0001:000c7460       __acrt_RtlGenRandom        00000001800c8460 f   libucrtd:winapi_thunks.obj
 0001:000c74e0       __acrt_SetThreadStackGuarantee 00000001800c84e0 f   libucrtd:winapi_thunks.obj
 0001:000c7550       __acrt_can_show_message_box 00000001800c8550 f   libucrtd:winapi_thunks.obj
 0001:000c75a0       __acrt_can_use_vista_locale_apis 00000001800c85a0 f   libucrtd:winapi_thunks.obj
 0001:000c75e0       __acrt_can_use_xstate_apis 00000001800c85e0 f   libucrtd:winapi_thunks.obj
 0001:000c7620       __acrt_eagerly_load_locale_apis 00000001800c8620 f   libucrtd:winapi_thunks.obj
 0001:000c7670       __acrt_get_parent_window   00000001800c8670 f   libucrtd:winapi_thunks.obj
 0001:000c7730       __acrt_initialize_winapi_thunks 00000001800c8730 f   libucrtd:winapi_thunks.obj
 0001:000c77d0       __acrt_is_interactive      00000001800c87d0 f   libucrtd:winapi_thunks.obj
 0001:000c7920       __acrt_uninitialize_winapi_thunks 00000001800c8920 f   libucrtd:winapi_thunks.obj
 0001:000c7a00       ??$?RU__crt_locale_data@@@__crt_internal_free_policy@@QEBAXQEBU__crt_locale_data@@@Z 00000001800c8a00 f i libucrtd:wsetlocale.obj
 0001:000c7a30       ??$?RU__crt_locale_pointers@@@__crt_internal_free_policy@@QEBAXQEBU__crt_locale_pointers@@@Z 00000001800c8a30 f i libucrtd:wsetlocale.obj
 0001:000c7a60       ??$?RU__crt_multibyte_data@@@__crt_internal_free_policy@@QEBAXQEBU__crt_multibyte_data@@@Z 00000001800c8a60 f i libucrtd:wsetlocale.obj
 0001:000c81f0       ??0?$__crt_unique_heap_ptr@U__crt_locale_data@@U__crt_internal_free_policy@@@@QEAA@QEAU__crt_locale_data@@@Z 00000001800c91f0 f i libucrtd:wsetlocale.obj
 0001:000c8220       ??0?$__crt_unique_heap_ptr@U__crt_locale_pointers@@U__crt_internal_free_policy@@@@QEAA@QEAU__crt_locale_pointers@@@Z 00000001800c9220 f i libucrtd:wsetlocale.obj
 0001:000c8250       ??0?$__crt_unique_heap_ptr@U__crt_multibyte_data@@U__crt_internal_free_policy@@@@QEAA@QEAU__crt_multibyte_data@@@Z 00000001800c9250 f i libucrtd:wsetlocale.obj
 0001:000c8280       ??0_expandlocale_locale_name_cache@@QEAA@QEA_W_KQEAU__crt_qualified_locale_data@@@Z 00000001800c9280 f i libucrtd:wsetlocale.obj
 0001:000c8350       ??1?$__crt_unique_heap_ptr@U__crt_locale_data@@U__crt_internal_free_policy@@@@QEAA@XZ 00000001800c9350 f i libucrtd:wsetlocale.obj
 0001:000c8370       ??1?$__crt_unique_heap_ptr@U__crt_locale_pointers@@U__crt_internal_free_policy@@@@QEAA@XZ 00000001800c9370 f i libucrtd:wsetlocale.obj
 0001:000c8390       ??1?$__crt_unique_heap_ptr@U__crt_multibyte_data@@U__crt_internal_free_policy@@@@QEAA@XZ 00000001800c9390 f i libucrtd:wsetlocale.obj
 0001:000c83b0       ??1_expandlocale_locale_name_cache@@QEAA@XZ 00000001800c93b0 f i libucrtd:wsetlocale.obj
 0001:000c8450       ??B?$__crt_unique_heap_ptr@U__crt_locale_data@@U__crt_internal_free_policy@@@@QEBA_NXZ 00000001800c9450 f i libucrtd:wsetlocale.obj
 0001:000c8470       ??B?$__crt_unique_heap_ptr@U__crt_locale_pointers@@U__crt_internal_free_policy@@@@QEBA_NXZ 00000001800c9470 f i libucrtd:wsetlocale.obj
 0001:000c8490       ??B?$__crt_unique_heap_ptr@U__crt_multibyte_data@@U__crt_internal_free_policy@@@@QEBA_NXZ 00000001800c9490 f i libucrtd:wsetlocale.obj
 0001:000c89f0       ?commit_locale_name@_expandlocale_locale_name_cache@@QEAAXQEB_W_K@Z 00000001800c99f0 f i libucrtd:wsetlocale.obj
 0001:000c8a90       ?commit_locale_name_cache_already_updated@_expandlocale_locale_name_cache@@QEAAXQEB_W_K@Z 00000001800c9a90 f i libucrtd:wsetlocale.obj
 0001:000c8b20       ?detach@?$__crt_unique_heap_ptr@U__crt_locale_data@@U__crt_internal_free_policy@@@@QEAAPEAU__crt_locale_data@@XZ 00000001800c9b20 f i libucrtd:wsetlocale.obj
 0001:000c8b60       ?detach@?$__crt_unique_heap_ptr@U__crt_locale_pointers@@U__crt_internal_free_policy@@@@QEAAPEAU__crt_locale_pointers@@XZ 00000001800c9b60 f i libucrtd:wsetlocale.obj
 0001:000c8ba0       ?detach@?$__crt_unique_heap_ptr@U__crt_multibyte_data@@U__crt_internal_free_policy@@@@QEAAPEAU__crt_multibyte_data@@XZ 00000001800c9ba0 f i libucrtd:wsetlocale.obj
 0001:000c8be0       ?get@?$__crt_unique_heap_ptr@U__crt_locale_data@@U__crt_internal_free_policy@@@@QEBAPEAU__crt_locale_data@@XZ 00000001800c9be0 f i libucrtd:wsetlocale.obj
 0001:000c8c00       ?get@?$__crt_unique_heap_ptr@U__crt_locale_pointers@@U__crt_internal_free_policy@@@@QEBAPEAU__crt_locale_pointers@@XZ 00000001800c9c00 f i libucrtd:wsetlocale.obj
 0001:000c8c20       ?get@?$__crt_unique_heap_ptr@U__crt_multibyte_data@@U__crt_internal_free_policy@@@@QEBAPEAU__crt_multibyte_data@@XZ 00000001800c9c20 f i libucrtd:wsetlocale.obj
 0001:000c8c40       ?is_valid@?$__crt_unique_heap_ptr@U__crt_locale_data@@U__crt_internal_free_policy@@@@QEBA_NXZ 00000001800c9c40 f i libucrtd:wsetlocale.obj
 0001:000c8c80       ?is_valid@?$__crt_unique_heap_ptr@U__crt_locale_pointers@@U__crt_internal_free_policy@@@@QEBA_NXZ 00000001800c9c80 f i libucrtd:wsetlocale.obj
 0001:000c8cc0       ?is_valid@?$__crt_unique_heap_ptr@U__crt_multibyte_data@@U__crt_internal_free_policy@@@@QEBA_NXZ 00000001800c9cc0 f i libucrtd:wsetlocale.obj
 0001:000c8d00       ?release@?$__crt_unique_heap_ptr@U__crt_locale_data@@U__crt_internal_free_policy@@@@QEAAXXZ 00000001800c9d00 f i libucrtd:wsetlocale.obj
 0001:000c8d40       ?release@?$__crt_unique_heap_ptr@U__crt_locale_pointers@@U__crt_internal_free_policy@@@@QEAAXXZ 00000001800c9d40 f i libucrtd:wsetlocale.obj
 0001:000c8d80       ?release@?$__crt_unique_heap_ptr@U__crt_multibyte_data@@U__crt_internal_free_policy@@@@QEAAXXZ 00000001800c9d80 f i libucrtd:wsetlocale.obj
 0001:000c8dc0       __acrt_copy_locale_name    00000001800c9dc0 f   libucrtd:wsetlocale.obj
 0001:000c8ec0       __acrt_set_locale_changed  00000001800c9ec0 f   libucrtd:wsetlocale.obj
 0001:000c8ee0       __acrt_uninitialize_locale 00000001800c9ee0 f   libucrtd:wsetlocale.obj
 0001:000c8f20       __ascii_tolower            00000001800c9f20 f i libucrtd:wsetlocale.obj
 0001:000c8f50       __ascii_towlower           00000001800c9f50 f i libucrtd:wsetlocale.obj
 0001:000c8f70       __lc_lctowcs               00000001800c9f70 f   libucrtd:wsetlocale.obj
 0001:000c90a0       __lc_wcstolc               00000001800ca0a0 f   libucrtd:wsetlocale.obj
 0001:000c9410       _configthreadlocale        00000001800ca410 f   libucrtd:wsetlocale.obj
 0001:000c9640       _create_locale             00000001800ca640 f   libucrtd:wsetlocale.obj
 0001:000c9f00       _free_locale               00000001800caf00 f   libucrtd:wsetlocale.obj
 0001:000ca030       _get_current_locale        00000001800cb030 f   libucrtd:wsetlocale.obj
 0001:000ca190       _wcreate_locale            00000001800cb190 f   libucrtd:wsetlocale.obj
 0001:000ca540       _wcscats                   00000001800cb540 f   libucrtd:wsetlocale.obj
 0001:000ca660       _wsetlocale                00000001800cb660 f   libucrtd:wsetlocale.obj
 0001:000cc9a0       __p___mb_cur_max           00000001800cd9a0 f   libucrtd:nlsdata.obj
 0001:000cc9f0       _CrtGetDebugFillThreshold  00000001800cd9f0 f   libucrtd:debug_fill_threshold.obj
 0001:000cca00       _CrtSetDebugFillThreshold  00000001800cda00 f   libucrtd:debug_fill_threshold.obj
 0001:000cca40       ?value@?$dual_state_global@PEAU__crt_multibyte_data@@@__crt_state_management@@QEAAAEAPEAU__crt_multibyte_data@@XZ 00000001800cda40 f i libucrtd:locale_update.obj
 0001:000cca70       ?value_explicit@?$dual_state_global@PEAU__crt_locale_data@@@__crt_state_management@@QEAAAEAPEAU__crt_locale_data@@_K@Z 00000001800cda70 f i libucrtd:locale_update.obj
 0001:000cca90       ?value_explicit@?$dual_state_global@PEAU__crt_multibyte_data@@@__crt_state_management@@QEAAAEAPEAU__crt_multibyte_data@@_K@Z 00000001800cda90 f i libucrtd:locale_update.obj
 0001:000ccab0       __acrt_should_sync_with_global_locale 00000001800cdab0 f i libucrtd:locale_update.obj
 0001:000ccb00       __acrt_update_locale_info  00000001800cdb00 f   libucrtd:locale_update.obj
 0001:000ccb60       __acrt_update_locale_info_explicit 00000001800cdb60 f   libucrtd:locale_update.obj
 0001:000ccbd0       __acrt_update_multibyte_info 00000001800cdbd0 f   libucrtd:locale_update.obj
 0001:000ccc30       __acrt_update_multibyte_info_explicit 00000001800cdc30 f   libucrtd:locale_update.obj
 0001:000ccca0       ?__acrt_fp_classify@@YA?AW4__acrt_fp_class@@AEBN@Z 00000001800cdca0 f i libucrtd:cvt.obj
 0001:000ccde0       ?__acrt_fp_is_negative@@YA_NAEBN@Z 00000001800cdde0 f i libucrtd:cvt.obj
 0001:000ced40       ?strrchr@@YAPEADQEADH@Z    00000001800cfd40 f i libucrtd:cvt.obj
 0001:000ced70       __acrt_fp_format           00000001800cfd70 f   libucrtd:cvt.obj
 0001:000cf5d0       ?value_or@?$cached@H@__crt_cached_ptd_host@@QEBAHH@Z 00000001800d05d0 f i libucrtd:wctomb.obj
 0001:000cf600       _wctomb_internal           00000001800d0600 f   libucrtd:wctomb.obj
 0001:000cfcb0       _wctomb_l                  00000001800d0cb0 f   libucrtd:wctomb.obj
 0001:000cfd90       _wctomb_s_l                00000001800d0d90 f   libucrtd:wctomb.obj
 0001:000cfe30       wctomb                     00000001800d0e30 f   libucrtd:wctomb.obj
 0001:000cfef0       wctomb_s                   00000001800d0ef0 f   libucrtd:wctomb.obj
 0001:000cff80       _isleadbyte_fast_internal  00000001800d0f80 f i libucrtd:mbtowc.obj
 0001:000cffb0       _mbtowc_internal           00000001800d0fb0 f   libucrtd:mbtowc.obj
 0001:000d0420       _mbtowc_l                  00000001800d1420 f   libucrtd:mbtowc.obj
 0001:000d04a0       mbtowc                     00000001800d14a0 f   libucrtd:mbtowc.obj
 0001:000d0510       ?lowio_handle@__crt_stdio_stream@@QEBAHXZ 00000001800d1510 f i libucrtd:fileno.obj
 0001:000d0540       _fileno                    00000001800d1540 f   libucrtd:fileno.obj
 0001:000d0650       ??$?RPEAU__crt_stdio_stream_data@@@__crt_internal_free_policy@@QEBAXQEBQEAU__crt_stdio_stream_data@@@Z 00000001800d1650 f i libucrtd:_file.obj
 0001:000d0680       ??0?$__crt_unique_heap_ptr@PEAU__crt_stdio_stream_data@@U__crt_internal_free_policy@@@@QEAA@QEAPEAU__crt_stdio_stream_data@@@Z 00000001800d1680 f i libucrtd:_file.obj
 0001:000d06b0       ??1?$__crt_unique_heap_ptr@PEAU__crt_stdio_stream_data@@U__crt_internal_free_policy@@@@QEAA@XZ 00000001800d16b0 f i libucrtd:_file.obj
 0001:000d06d0       ?detach@?$__crt_unique_heap_ptr@PEAU__crt_stdio_stream_data@@U__crt_internal_free_policy@@@@QEAAPEAPEAU__crt_stdio_stream_data@@XZ 00000001800d16d0 f i libucrtd:_file.obj
 0001:000d0710       ?release@?$__crt_unique_heap_ptr@PEAU__crt_stdio_stream_data@@U__crt_internal_free_policy@@@@QEAAXXZ 00000001800d1710 f i libucrtd:_file.obj
 0001:000d0750       __acrt_initialize_stdio    00000001800d1750 f   libucrtd:_file.obj
 0001:000d09b0       __acrt_iob_func            00000001800d19b0 f   libucrtd:_file.obj
 0001:000d09d0       __acrt_uninitialize_stdio  00000001800d19d0 f   libucrtd:_file.obj
 0001:000d0a80       _get_stream_buffer_pointers 00000001800d1a80 f   libucrtd:_file.obj
 0001:000d0c00       _lock_file                 00000001800d1c00 f   libucrtd:_file.obj
 0001:000d0c40       _unlock_file               00000001800d1c40 f   libucrtd:_file.obj
 0001:000d0c80       _get_printf_count_output   00000001800d1c80 f   libucrtd:printf_count_output.obj
 0001:000d0cc0       _set_printf_count_output   00000001800d1cc0 f   libucrtd:printf_count_output.obj
 0001:000d0f80       _fputwc_nolock             00000001800d1f80 f   libucrtd:fputwc.obj
 0001:000d0fe0       _fputwc_nolock_internal    00000001800d1fe0 f   libucrtd:fputwc.obj
 0001:000d1350       _fputwchar                 00000001800d2350 f   libucrtd:fputwc.obj
 0001:000d1380       _putwc_nolock              00000001800d2380 f   libucrtd:fputwc.obj
 0001:000d13b0       fputwc                     00000001800d23b0 f   libucrtd:fputwc.obj
 0001:000d1410       putwc                      00000001800d2410 f   libucrtd:fputwc.obj
 0001:000d1440       putwchar                   00000001800d2440 f   libucrtd:fputwc.obj
 0001:000d1820       _fputc_nolock              00000001800d2820 f   libucrtd:fputc.obj
 0001:000d1880       _fputc_nolock_internal     00000001800d2880 f   libucrtd:fputc.obj
 0001:000d1970       _fputchar                  00000001800d2970 f   libucrtd:fputc.obj
 0001:000d19a0       _putc_nolock               00000001800d29a0 f   libucrtd:fputc.obj
 0001:000d19d0       fputc                      00000001800d29d0 f   libucrtd:fputc.obj
 0001:000d1a30       putc                       00000001800d2a30 f   libucrtd:fputc.obj
 0001:000d1a60       putchar                    00000001800d2a60 f   libucrtd:fputc.obj
 0001:000d1a80       ?has_any_buffer@__crt_stdio_stream@@QEBA_NXZ 00000001800d2a80 f i libucrtd:_sftbuf.obj
 0001:000d1ab0       ?has_any_of@__crt_stdio_stream@@QEBA_NJ@Z 00000001800d2ab0 f i libucrtd:_sftbuf.obj
 0001:000d1b00       ?has_temporary_buffer@__crt_stdio_stream@@QEBA_NXZ 00000001800d2b00 f i libucrtd:_sftbuf.obj
 0001:000d1b30       ?set_flags@__crt_stdio_stream@@QEBA_NJ@Z 00000001800d2b30 f i libucrtd:_sftbuf.obj
 0001:000d1bb0       ?unset_flags@__crt_stdio_stream@@QEBA_NJ@Z 00000001800d2bb0 f i libucrtd:_sftbuf.obj
 0001:000d1c20       __acrt_should_use_temporary_buffer 00000001800d2c20 f   libucrtd:_sftbuf.obj
 0001:000d1c90       __acrt_stdio_begin_temporary_buffering_nolock 00000001800d2c90 f   libucrtd:_sftbuf.obj
 0001:000d1f80       __acrt_stdio_end_temporary_buffering_nolock 00000001800d2f80 f   libucrtd:_sftbuf.obj
 0001:000d24c0       __acrt_initialize_lowio    00000001800d34c0 f   libucrtd:ioinit.obj
 0001:000d2520       __acrt_uninitialize_lowio  00000001800d3520 f   libucrtd:ioinit.obj
 0001:000d25b0       _CrtGetReportHook          00000001800d35b0 f   libucrtd:dbgrptt.obj
 0001:000d25c0       _CrtSetReportFile          00000001800d35c0 f   libucrtd:dbgrptt.obj
 0001:000d2770       _CrtSetReportHook          00000001800d3770 f   libucrtd:dbgrptt.obj
 0001:000d27b0       _CrtSetReportMode          00000001800d37b0 f   libucrtd:dbgrptt.obj
 0001:000d29d0       _VCrtDbgReportA            00000001800d39d0 f   libucrtd:dbgrptt.obj
 0001:000d36a0       _VCrtDbgReportW            00000001800d46a0 f   libucrtd:dbgrptt.obj
 0001:000d45b0       _snprintf_s                00000001800d55b0 f i libucrtd:dbgrptt.obj
 0001:000d4630       _vsnprintf_s               00000001800d5630 f i libucrtd:dbgrptt.obj
 0001:000d4690       _vsnprintf_s_l             00000001800d5690 f i libucrtd:dbgrptt.obj
 0001:000d4730       ??$__acrt_convert_wcs_mbs_cp@_WDV<lambda_f788ae46380686e8b737efdd8c720d07>@@U__crt_win32_buffer_no_resizing@@@@YAHQEB_WAEAV?$__crt_win32_buffer@DU__crt_win32_buffer_no_resizing@@@@AEBV<lambda_f788ae46380686e8b737efdd8c720d07>@@I@Z 00000001800d5730 f i libucrtd:getmodulefilenamea.obj
 0001:000d4950       ??$__acrt_wcs_to_mbs_cp@U__crt_win32_buffer_no_resizing@@@@YAHQEB_WAEAV?$__crt_win32_buffer@DU__crt_win32_buffer_no_resizing@@@@I@Z 00000001800d5950 f i libucrtd:getmodulefilenamea.obj
 0001:000d49b0       ??0?$__crt_win32_buffer@DU__crt_win32_buffer_no_resizing@@@@QEAA@QEAD_K@Z 00000001800d59b0 f i libucrtd:getmodulefilenamea.obj
 0001:000d4a30       ??1?$__crt_win32_buffer@DU__crt_win32_buffer_no_resizing@@@@QEAA@XZ 00000001800d5a30 f i libucrtd:getmodulefilenamea.obj
 0001:000d4a60       ??R<lambda_f788ae46380686e8b737efdd8c720d07>@@QEBAHIQEB_WQEAD_K@Z 00000001800d5a60 f i libucrtd:getmodulefilenamea.obj
 0001:000d4ad0       ?__acrt_get_utf8_acp_compatibility_codepage@@YAIXZ 00000001800d5ad0 f i libucrtd:getmodulefilenamea.obj
 0001:000d4ba0       ?_deallocate@?$__crt_win32_buffer@DU__crt_win32_buffer_no_resizing@@@@AEAAXXZ 00000001800d5ba0 f i libucrtd:getmodulefilenamea.obj
 0001:000d4c10       ?allocate@?$__crt_win32_buffer@DU__crt_win32_buffer_no_resizing@@@@QEAAH_K@Z 00000001800d5c10 f i libucrtd:getmodulefilenamea.obj
 0001:000d4cb0       ?allocate@__crt_win32_buffer_no_resizing@@SAHQEAPEAX_KAEBV__crt_win32_buffer_empty_debug_info@@@Z 00000001800d5cb0 f i libucrtd:getmodulefilenamea.obj
 0001:000d4cf0       ?capacity@?$__crt_win32_buffer@DU__crt_win32_buffer_no_resizing@@@@QEBA_KXZ 00000001800d5cf0 f i libucrtd:getmodulefilenamea.obj
 0001:000d4d10       ?data@?$__crt_win32_buffer@DU__crt_win32_buffer_no_resizing@@@@QEAAPEADXZ 00000001800d5d10 f i libucrtd:getmodulefilenamea.obj
 0001:000d4d30       ?deallocate@__crt_win32_buffer_no_resizing@@SAXQEAXAEBV__crt_win32_buffer_empty_debug_info@@@Z 00000001800d5d30 f i libucrtd:getmodulefilenamea.obj
 0001:000d4d40       ?debug_info@?$__crt_win32_buffer@DU__crt_win32_buffer_no_resizing@@@@QEBAAEBV__crt_win32_buffer_empty_debug_info@@XZ 00000001800d5d40 f i libucrtd:getmodulefilenamea.obj
 0001:000d4d50       ?set_to_nullptr@?$__crt_win32_buffer@DU__crt_win32_buffer_no_resizing@@@@QEAAXXZ 00000001800d5d50 f i libucrtd:getmodulefilenamea.obj
 0001:000d4da0       ?size@?$__crt_win32_buffer@DU__crt_win32_buffer_no_resizing@@@@QEAAX_K@Z 00000001800d5da0 f i libucrtd:getmodulefilenamea.obj
 0001:000d4dc0       ?size@?$__crt_win32_buffer@DU__crt_win32_buffer_no_resizing@@@@QEBA_KXZ 00000001800d5dc0 f i libucrtd:getmodulefilenamea.obj
 0001:000d4de0       __acrt_GetModuleFileNameA  00000001800d5de0 f   libucrtd:getmodulefilenamea.obj
 0001:000d5210       ??$message_box@$$TAEBQEBDAEBQEBDK@?$__crt_char_traits@D@@SAH$$QEA$$TAEBQEBD1$$QEAK@Z 00000001800d6210 f i libucrtd:crtmbox.obj
 0001:000d5270       ??$message_box@$$TAEBQEB_WAEBQEB_WK@?$__crt_char_traits@_W@@SAH$$QEA$$TAEBQEB_W1$$QEAK@Z 00000001800d6270 f i libucrtd:crtmbox.obj
 0001:000d52d0       ??$message_box@PEAUHWND__@@AEBQEBDAEBQEBDAEBI@?$__crt_char_traits@D@@SAH$$QEAPEAUHWND__@@AEBQEBD1AEBI@Z 00000001800d62d0 f i libucrtd:crtmbox.obj
 0001:000d5330       ??$message_box@PEAUHWND__@@AEBQEB_WAEBQEB_WAEBI@?$__crt_char_traits@_W@@SAH$$QEAPEAUHWND__@@AEBQEB_W1AEBI@Z 00000001800d6330 f i libucrtd:crtmbox.obj
 0001:000d5390       ??$output_debug_string@AEBQEBD@?$__crt_char_traits@D@@SAXAEBQEBD@Z 00000001800d6390 f i libucrtd:crtmbox.obj
 0001:000d53c0       ??$output_debug_string@AEBQEB_W@?$__crt_char_traits@_W@@SAXAEBQEB_W@Z 00000001800d63c0 f i libucrtd:crtmbox.obj
 0001:000d53f0       __acrt_show_narrow_message_box 00000001800d63f0 f   libucrtd:crtmbox.obj
 0001:000d5430       __acrt_show_wide_message_box 00000001800d6430 f   libucrtd:crtmbox.obj
 0001:000d5470       ??$?B$$A6AXH@Z@__crt_fast_encoded_nullptr_t@@QEBAP6AXH@ZXZ 00000001800d6470 f i libucrtd:signal.obj
 0001:000d5580       ??$__crt_fast_decode_pointer@P6AXH@Z@@YAP6AXH@ZQ6AXH@Z@Z 00000001800d6580 f i libucrtd:signal.obj
 0001:000d55d0       ??$__crt_fast_encode_pointer@P6AXH@Z@@YAP6AXH@ZQ6AXH@Z@Z 00000001800d65d0 f i libucrtd:signal.obj
 0001:000d58f0       ?initialize@?$dual_state_global@P6AXH@Z@__crt_state_management@@QEAAXQ6AXH@Z@Z 00000001800d68f0 f i libucrtd:signal.obj
 0001:000d5ac0       ?value@?$dual_state_global@P6AXH@Z@__crt_state_management@@QEAAAEAP6AXH@ZXZ 00000001800d6ac0 f i libucrtd:signal.obj
 0001:000d5af0       __acrt_get_sigabrt_handler 00000001800d6af0 f   libucrtd:signal.obj
 0001:000d5b30       __acrt_initialize_signal_handlers 00000001800d6b30 f   libucrtd:signal.obj
 0001:000d5ba0       __fpecode                  00000001800d6ba0 f   libucrtd:signal.obj
 0001:000d5bc0       __pxcptinfoptrs            00000001800d6bc0 f   libucrtd:signal.obj
 0001:000d5be0       raise                      00000001800d6be0 f   libucrtd:signal.obj
 0001:000d6200       signal                     00000001800d7200 f   libucrtd:signal.obj
 0001:000d6580       _msize                     00000001800d7580 f   libucrtd:msize.obj
 0001:000d65b0       _msize_base                00000001800d75b0 f   libucrtd:msize.obj
 0001:000d66b0       _realloc_base              00000001800d76b0 f   libucrtd:realloc_base.obj
 0001:000d6c30       __acrt_get_begin_thread_init_policy 00000001800d7c30 f   libucrtd:win_policies.obj
 0001:000d6c50       __acrt_get_developer_information_policy 00000001800d7c50 f   libucrtd:win_policies.obj
 0001:000d6c70       __acrt_get_process_end_policy 00000001800d7c70 f   libucrtd:win_policies.obj
 0001:000d6c90       __acrt_get_windowing_model_policy 00000001800d7c90 f   libucrtd:win_policies.obj
 0001:000d6d10       ??$__acrt_convert_wcs_mbs_cp@D_WV<lambda_7c9dea7b4ca7285d2cdb541a38da6275>@@U__crt_win32_buffer_internal_dynamic_resizing@@@@YAHQEBDAEAV?$__crt_win32_buffer@_WU__crt_win32_buffer_internal_dynamic_resizing@@@@AEBV<lambda_7c9dea7b4ca7285d2cdb541a38da6275>@@I@Z 00000001800d7d10 f i libucrtd:argv_wildcards.obj
 0001:000d6f30       ??$__acrt_convert_wcs_mbs_cp@_WDV<lambda_d8593a27d1aa8c02be35c86a17d324c4>@@U__crt_win32_buffer_internal_dynamic_resizing@@@@YAHQEB_WAEAV?$__crt_win32_buffer@DU__crt_win32_buffer_internal_dynamic_resizing@@@@AEBV<lambda_d8593a27d1aa8c02be35c86a17d324c4>@@I@Z 00000001800d7f30 f i libucrtd:argv_wildcards.obj
 0001:000d7150       ??$__acrt_mbs_to_wcs_cp@U__crt_win32_buffer_internal_dynamic_resizing@@@@YAHQEBDAEAV?$__crt_win32_buffer@_WU__crt_win32_buffer_internal_dynamic_resizing@@@@I@Z 00000001800d8150 f i libucrtd:argv_wildcards.obj
 0001:000d71b0       ??$__acrt_wcs_to_mbs_cp@U__crt_win32_buffer_internal_dynamic_resizing@@@@YAHQEB_WAEAV?$__crt_win32_buffer@DU__crt_win32_buffer_internal_dynamic_resizing@@@@I@Z 00000001800d81b0 f i libucrtd:argv_wildcards.obj
 0001:000d8b40       ??$tcsncpy_s@AEAPEAD_KAEAPEADAEB_K@?$__crt_char_traits@D@@SAHAEAPEAD$$QEA_K0AEB_K@Z 00000001800d9b40 f i libucrtd:argv_wildcards.obj
 0001:000d8ba0       ??$tcsncpy_s@AEAPEA_W_KAEAPEA_WAEB_K@?$__crt_char_traits@_W@@SAHAEAPEA_W$$QEA_K0AEB_K@Z 00000001800d9ba0 f i libucrtd:argv_wildcards.obj
 0001:000d8c00       ??$tcsncpy_s@PEADAEB_KAEBQEBDAEB_K@?$__crt_char_traits@D@@SAH$$QEAPEADAEB_KAEBQEBD1@Z 00000001800d9c00 f i libucrtd:argv_wildcards.obj
 0001:000d8c60       ??$tcsncpy_s@PEAD_KAEBQEBDAEB_K@?$__crt_char_traits@D@@SAH$$QEAPEAD$$QEA_KAEBQEBDAEB_K@Z 00000001800d9c60 f i libucrtd:argv_wildcards.obj
 0001:000d8cc0       ??$tcsncpy_s@PEA_WAEB_KAEBQEB_WAEB_K@?$__crt_char_traits@_W@@SAH$$QEAPEA_WAEB_KAEBQEB_W1@Z 00000001800d9cc0 f i libucrtd:argv_wildcards.obj
 0001:000d8d20       ??$tcsncpy_s@PEA_W_KAEBQEB_WAEB_K@?$__crt_char_traits@_W@@SAH$$QEAPEA_W$$QEA_KAEBQEB_WAEB_K@Z 00000001800d9d20 f i libucrtd:argv_wildcards.obj
 0001:000d8d80       ??$tcspbrk@AEAPEADAEAY02$$CBD@?$__crt_char_traits@D@@SAPEADAEAPEADAEAY02$$CBD@Z 00000001800d9d80 f i libucrtd:argv_wildcards.obj
 0001:000d8dc0       ??$tcspbrk@AEAPEA_WAEAY02$$CB_W@?$__crt_char_traits@_W@@SAPEA_WAEAPEA_WAEAY02$$CB_W@Z 00000001800d9dc0 f i libucrtd:argv_wildcards.obj
 0001:000d8e00       ??0?$__crt_unique_handle_t@U__crt_findfile_traits@@@@QEAA@QEAX@Z 00000001800d9e00 f i libucrtd:argv_wildcards.obj
 0001:000d8e30       ??0?$__crt_win32_buffer@DU__crt_win32_buffer_internal_dynamic_resizing@@@@QEAA@XZ 00000001800d9e30 f i libucrtd:argv_wildcards.obj
 0001:000d8ea0       ??0?$__crt_win32_buffer@_WU__crt_win32_buffer_internal_dynamic_resizing@@@@QEAA@XZ 00000001800d9ea0 f i libucrtd:argv_wildcards.obj
 0001:000d8f90       ??1?$__crt_unique_handle_t@U__crt_findfile_traits@@@@QEAA@XZ 00000001800d9f90 f i libucrtd:argv_wildcards.obj
 0001:000d8fb0       ??1?$__crt_win32_buffer@DU__crt_win32_buffer_internal_dynamic_resizing@@@@QEAA@XZ 00000001800d9fb0 f i libucrtd:argv_wildcards.obj
 0001:000d8fe0       ??1?$__crt_win32_buffer@_WU__crt_win32_buffer_internal_dynamic_resizing@@@@QEAA@XZ 00000001800d9fe0 f i libucrtd:argv_wildcards.obj
 0001:000d9130       ??R<lambda_7c9dea7b4ca7285d2cdb541a38da6275>@@QEBAHIQEBDQEA_W_K@Z 00000001800da130 f i libucrtd:argv_wildcards.obj
 0001:000d92f0       ??R<lambda_d8593a27d1aa8c02be35c86a17d324c4>@@QEBAHIQEB_WQEAD_K@Z 00000001800da2f0 f i libucrtd:argv_wildcards.obj
 0001:000d9360       ?_deallocate@?$__crt_win32_buffer@DU__crt_win32_buffer_internal_dynamic_resizing@@@@AEAAXXZ 00000001800da360 f i libucrtd:argv_wildcards.obj
 0001:000d93d0       ?_deallocate@?$__crt_win32_buffer@_WU__crt_win32_buffer_internal_dynamic_resizing@@@@AEAAXXZ 00000001800da3d0 f i libucrtd:argv_wildcards.obj
 0001:000d9440       ?allocate@?$__crt_win32_buffer@DU__crt_win32_buffer_internal_dynamic_resizing@@@@QEAAH_K@Z 00000001800da440 f i libucrtd:argv_wildcards.obj
 0001:000d94e0       ?allocate@?$__crt_win32_buffer@_WU__crt_win32_buffer_internal_dynamic_resizing@@@@QEAAH_K@Z 00000001800da4e0 f i libucrtd:argv_wildcards.obj
 0001:000d95a0       ?allocate@__crt_win32_buffer_internal_dynamic_resizing@@SAHQEAPEAX_KAEBV__crt_win32_buffer_empty_debug_info@@@Z 00000001800da5a0 f i libucrtd:argv_wildcards.obj
 0001:000d9750       ?capacity@?$__crt_win32_buffer@DU__crt_win32_buffer_internal_dynamic_resizing@@@@QEBA_KXZ 00000001800da750 f i libucrtd:argv_wildcards.obj
 0001:000d9770       ?capacity@?$__crt_win32_buffer@_WU__crt_win32_buffer_internal_dynamic_resizing@@@@QEBA_KXZ 00000001800da770 f i libucrtd:argv_wildcards.obj
 0001:000d9790       ?close@?$__crt_unique_handle_t@U__crt_findfile_traits@@@@QEAAXXZ 00000001800da790 f i libucrtd:argv_wildcards.obj
 0001:000d97e0       ?close@__crt_findfile_traits@@SA_NPEAX@Z 00000001800da7e0 f i libucrtd:argv_wildcards.obj
 0001:000d9830       ?data@?$__crt_win32_buffer@DU__crt_win32_buffer_internal_dynamic_resizing@@@@QEAAPEADXZ 00000001800da830 f i libucrtd:argv_wildcards.obj
 0001:000d9850       ?data@?$__crt_win32_buffer@_WU__crt_win32_buffer_internal_dynamic_resizing@@@@QEAAPEA_WXZ 00000001800da850 f i libucrtd:argv_wildcards.obj
 0001:000d9870       ?deallocate@__crt_win32_buffer_internal_dynamic_resizing@@SAXQEAXAEBV__crt_win32_buffer_empty_debug_info@@@Z 00000001800da870 f i libucrtd:argv_wildcards.obj
 0001:000d98a0       ?debug_info@?$__crt_win32_buffer@DU__crt_win32_buffer_internal_dynamic_resizing@@@@QEBAAEBV__crt_win32_buffer_empty_debug_info@@XZ 00000001800da8a0 f i libucrtd:argv_wildcards.obj
 0001:000d98b0       ?debug_info@?$__crt_win32_buffer@_WU__crt_win32_buffer_internal_dynamic_resizing@@@@QEBAAEBV__crt_win32_buffer_empty_debug_info@@XZ 00000001800da8b0 f i libucrtd:argv_wildcards.obj
 0001:000d9dc0       ?get@?$__crt_unique_handle_t@U__crt_findfile_traits@@@@QEBAPEAXXZ 00000001800dadc0 f i libucrtd:argv_wildcards.obj
 0001:000d9e60       ?get_invalid_value@__crt_findfile_traits@@SAPEAXXZ 00000001800dae60 f i libucrtd:argv_wildcards.obj
 0001:000d9f40       ?set_to_nullptr@?$__crt_win32_buffer@DU__crt_win32_buffer_internal_dynamic_resizing@@@@QEAAXXZ 00000001800daf40 f i libucrtd:argv_wildcards.obj
 0001:000d9f90       ?set_to_nullptr@?$__crt_win32_buffer@_WU__crt_win32_buffer_internal_dynamic_resizing@@@@QEAAXXZ 00000001800daf90 f i libucrtd:argv_wildcards.obj
 0001:000d9fe0       ?size@?$__crt_win32_buffer@DU__crt_win32_buffer_internal_dynamic_resizing@@@@QEAAX_K@Z 00000001800dafe0 f i libucrtd:argv_wildcards.obj
 0001:000da000       ?size@?$__crt_win32_buffer@_WU__crt_win32_buffer_internal_dynamic_resizing@@@@QEAAX_K@Z 00000001800db000 f i libucrtd:argv_wildcards.obj
 0001:000da080       ?strpbrk@@YAPEADQEADQEBD@Z 00000001800db080 f i libucrtd:argv_wildcards.obj
 0001:000da0b0       ?wcspbrk@@YAPEA_WPEA_WPEB_W@Z 00000001800db0b0 f i libucrtd:argv_wildcards.obj
 0001:000da0e0       __acrt_expand_narrow_argv_wildcards 00000001800db0e0 f   libucrtd:argv_wildcards.obj
 0001:000da110       __acrt_expand_wide_argv_wildcards 00000001800db110 f   libucrtd:argv_wildcards.obj
 0001:000da210       ??$initialize_from_array@$$BY10BAA@E@?$dual_state_global@PEAE@__crt_state_management@@QEAAXAEAY10BAA@E@Z 00000001800db210 f i libucrtd:mbctype.obj
 0001:000da290       ??$initialize_from_array@$$BY10BAB@E@?$dual_state_global@PEAE@__crt_state_management@@QEAAXAEAY10BAB@E@Z 00000001800db290 f i libucrtd:mbctype.obj
 0001:000da630       ?dangerous_get_state_array@?$dual_state_global@PEAE@__crt_state_management@@QEAAPEAPEAEXZ 00000001800db630 f i libucrtd:mbctype.obj
 0001:000da640       ?dangerous_get_state_array@?$dual_state_global@PEAU__crt_multibyte_data@@@__crt_state_management@@QEAAPEAPEAU__crt_multibyte_data@@XZ 00000001800db640 f i libucrtd:mbctype.obj
 0001:000da760       ?initialize@?$dual_state_global@PEAU__crt_multibyte_data@@@__crt_state_management@@QEAAXQEAU__crt_multibyte_data@@@Z 00000001800db760 f i libucrtd:mbctype.obj
 0001:000db260       ?value@?$dual_state_global@PEAE@__crt_state_management@@QEAAAEAPEAEXZ 00000001800dc260 f i libucrtd:mbctype.obj
 0001:000db290       __acrt_initialize_multibyte 00000001800dc290 f   libucrtd:mbctype.obj
 0001:000db390       __acrt_update_thread_multibyte_data 00000001800dc390 f   libucrtd:mbctype.obj
 0001:000db3d0       __p__mbcasemap             00000001800dc3d0 f   libucrtd:mbctype.obj
 0001:000db3f0       __p__mbctype               00000001800dc3f0 f   libucrtd:mbctype.obj
 0001:000db410       _getmbcp                   00000001800dc410 f   libucrtd:mbctype.obj
 0001:000db4b0       _setmbcp                   00000001800dc4b0 f   libucrtd:mbctype.obj
 0001:000db500       _setmbcp_nolock            00000001800dc500 f   libucrtd:mbctype.obj
 0001:000dbda0       _ismbbalnum                00000001800dcda0 f   libucrtd:ismbbyte.obj
 0001:000dbdd0       _ismbbalnum_l              00000001800dcdd0 f   libucrtd:ismbbyte.obj
 0001:000dbe10       _ismbbalpha                00000001800dce10 f   libucrtd:ismbbyte.obj
 0001:000dbe40       _ismbbalpha_l              00000001800dce40 f   libucrtd:ismbbyte.obj
 0001:000dbe80       _ismbbblank                00000001800dce80 f   libucrtd:ismbbyte.obj
 0001:000dbed0       _ismbbblank_l              00000001800dced0 f   libucrtd:ismbbyte.obj
 0001:000dbf30       _ismbbgraph                00000001800dcf30 f   libucrtd:ismbbyte.obj
 0001:000dbf60       _ismbbgraph_l              00000001800dcf60 f   libucrtd:ismbbyte.obj
 0001:000dbfa0       _ismbbkalnum               00000001800dcfa0 f   libucrtd:ismbbyte.obj
 0001:000dbfd0       _ismbbkalnum_l             00000001800dcfd0 f   libucrtd:ismbbyte.obj
 0001:000dc010       _ismbbkana                 00000001800dd010 f   libucrtd:ismbbyte.obj
 0001:000dc030       _ismbbkana_l               00000001800dd030 f   libucrtd:ismbbyte.obj
 0001:000dc0e0       _ismbbkprint               00000001800dd0e0 f   libucrtd:ismbbyte.obj
 0001:000dc110       _ismbbkprint_l             00000001800dd110 f   libucrtd:ismbbyte.obj
 0001:000dc150       _ismbbkpunct               00000001800dd150 f   libucrtd:ismbbyte.obj
 0001:000dc180       _ismbbkpunct_l             00000001800dd180 f   libucrtd:ismbbyte.obj
 0001:000dc1c0       _ismbblead                 00000001800dd1c0 f   libucrtd:ismbbyte.obj
 0001:000dc1f0       _ismbblead_l               00000001800dd1f0 f   libucrtd:ismbbyte.obj
 0001:000dc230       _ismbbprint                00000001800dd230 f   libucrtd:ismbbyte.obj
 0001:000dc260       _ismbbprint_l              00000001800dd260 f   libucrtd:ismbbyte.obj
 0001:000dc2a0       _ismbbpunct                00000001800dd2a0 f   libucrtd:ismbbyte.obj
 0001:000dc2d0       _ismbbpunct_l              00000001800dd2d0 f   libucrtd:ismbbyte.obj
 0001:000dc310       _ismbbtrail                00000001800dd310 f   libucrtd:ismbbyte.obj
 0001:000dc340       _ismbbtrail_l              00000001800dd340 f   libucrtd:ismbbyte.obj
 0001:000dc380       __acrt_initialize_command_line 00000001800dd380 f   libucrtd:argv_data.obj
 0001:000dc3b0       __acrt_uninitialize_command_line 00000001800dd3b0 f   libucrtd:argv_data.obj
 0001:000dc3c0       __p___argc                 00000001800dd3c0 f   libucrtd:argv_data.obj
 0001:000dc3d0       __p___argv                 00000001800dd3d0 f   libucrtd:argv_data.obj
 0001:000dc3e0       __p___wargv                00000001800dd3e0 f   libucrtd:argv_data.obj
 0001:000dc3f0       __p__acmdln                00000001800dd3f0 f   libucrtd:argv_data.obj
 0001:000dc400       __p__pgmptr                00000001800dd400 f   libucrtd:argv_data.obj
 0001:000dc410       __p__wcmdln                00000001800dd410 f   libucrtd:argv_data.obj
 0001:000dc420       __p__wpgmptr               00000001800dd420 f   libucrtd:argv_data.obj
 0001:000dc430       _get_pgmptr                00000001800dd430 f   libucrtd:argv_data.obj
 0001:000dc600       _get_wpgmptr               00000001800dd600 f   libucrtd:argv_data.obj
 0001:000dc890       __acrt_MultiByteToWideChar 00000001800dd890 f   libucrtd:multibytetowidechar.obj
 0001:000dc9d0       __acrt_WideCharToMultiByte 00000001800dd9d0 f   libucrtd:widechartomultibyte.obj
 0001:000dcd20       __dcrt_get_narrow_environment_from_os 00000001800ddd20 f   libucrtd:get_environment_from_os.obj
 0001:000dcfd0       __dcrt_get_wide_environment_from_os 00000001800ddfd0 f   libucrtd:get_environment_from_os.obj
 0001:000dee00       ??$get_or_create_environment_nolock@$$V@?$__crt_char_traits@D@@SAPEAPEADXZ 00000001800dfe00 f i libucrtd:setenv.obj
 0001:000dee20       ??$get_or_create_environment_nolock@$$V@?$__crt_char_traits@_W@@SAPEAPEA_WXZ 00000001800dfe20 f i libucrtd:setenv.obj
 0001:000dee40       ??$set_environment_variable@AEBQEADQEAD@?$__crt_char_traits@D@@SAHAEBQEAD$$QEBQEAD@Z 00000001800dfe40 f i libucrtd:setenv.obj
 0001:000dee80       ??$set_environment_variable@AEBQEA_WQEA_W@?$__crt_char_traits@_W@@SAHAEBQEA_W$$QEBQEA_W@Z 00000001800dfe80 f i libucrtd:setenv.obj
 0001:000deec0       ??$tcschr@AEBQEADD@?$__crt_char_traits@D@@SAPEADAEBQEAD$$QEAD@Z 00000001800dfec0 f i libucrtd:setenv.obj
 0001:000def10       ??$tcschr@AEBQEA_WD@?$__crt_char_traits@_W@@SAPEA_WAEBQEA_W$$QEAD@Z 00000001800dff10 f i libucrtd:setenv.obj
 0001:000def60       ??$tcscpy_s@AEAPEADAEB_KAEAPEAD@?$__crt_char_traits@D@@SAHAEAPEADAEB_K0@Z 00000001800dff60 f i libucrtd:setenv.obj
 0001:000defb0       ??$tcscpy_s@AEAPEA_WAEB_KAEAPEA_W@?$__crt_char_traits@_W@@SAHAEAPEA_WAEB_K0@Z 00000001800dffb0 f i libucrtd:setenv.obj
 0001:000df000       ??$tcscpy_s@AEBQEADAEB_KAEBQEAD@?$__crt_char_traits@D@@SAHAEBQEADAEB_K0@Z 00000001800e0000 f i libucrtd:setenv.obj
 0001:000df050       ??$tcscpy_s@AEBQEA_WAEB_KAEBQEA_W@?$__crt_char_traits@_W@@SAHAEBQEA_WAEB_K0@Z 00000001800e0050 f i libucrtd:setenv.obj
 0001:000df0a0       ??$tcslen@AEBQEAD@?$__crt_char_traits@D@@SA_KAEBQEAD@Z 00000001800e00a0 f i libucrtd:setenv.obj
 0001:000df0d0       ??$tcslen@AEBQEA_W@?$__crt_char_traits@_W@@SA_KAEBQEA_W@Z 00000001800e00d0 f i libucrtd:setenv.obj
 0001:000df100       ??$tcsnicoll@AEBQEBDAEAPEADAEB_K@?$__crt_char_traits@D@@SAHAEBQEBDAEAPEADAEB_K@Z 00000001800e0100 f i libucrtd:setenv.obj
 0001:000df150       ??$tcsnicoll@AEBQEB_WAEAPEA_WAEB_K@?$__crt_char_traits@_W@@SAHAEBQEB_WAEAPEA_WAEB_K@Z 00000001800e0150 f i libucrtd:setenv.obj
 0001:000df1a0       ??$tcsnlen@PEADH@?$__crt_char_traits@D@@SA_K$$QEAPEAD$$QEAH@Z 00000001800e01a0 f i libucrtd:setenv.obj
 0001:000df1e0       ??$tcsnlen@PEA_WH@?$__crt_char_traits@_W@@SA_K$$QEAPEA_W$$QEAH@Z 00000001800e01e0 f i libucrtd:setenv.obj
 0001:000df2c0       ?strchr@@YAPEADQEADH@Z     00000001800e02c0 f i libucrtd:setenv.obj
 0001:000df2f0       ?wcschr@@YAPEA_WPEA_W_W@Z  00000001800e02f0 f i libucrtd:setenv.obj
 0001:000df320       __dcrt_set_variable_in_narrow_environment_nolock 00000001800e0320 f   libucrtd:setenv.obj
 0001:000df350       __dcrt_set_variable_in_wide_environment_nolock 00000001800e0350 f   libucrtd:setenv.obj
 0001:000df380       __acrt_getheap             00000001800e0380 f   libucrtd:heap_handle.obj
 0001:000df3f0       __acrt_initialize_heap     00000001800e03f0 f   libucrtd:heap_handle.obj
 0001:000df420       __acrt_uninitialize_heap   00000001800e0420 f   libucrtd:heap_handle.obj
 0001:000df440       _get_heap_handle           00000001800e0440 f   libucrtd:heap_handle.obj
 0001:000df4b0       __acrt_execute_initializers 00000001800e04b0 f   libucrtd:shared_initialization.obj
 0001:000df5f0       __acrt_execute_uninitializers 00000001800e05f0 f   libucrtd:shared_initialization.obj
 0001:000df6a0       ??$__crt_fast_decode_pointer@P6AHPEAU_exception@@@Z@@YAP6AHPEAU_exception@@@ZQ6AH0@Z@Z 00000001800e06a0 f i libucrtd:matherr.obj
 0001:000df6f0       ??$__crt_fast_encode_pointer@P6AHPEAU_exception@@@Z@@YAP6AHPEAU_exception@@@ZQ6AH0@Z@Z 00000001800e06f0 f i libucrtd:matherr.obj
 0001:000df740       ?initialize@?$dual_state_global@P6AHPEAU_exception@@@Z@__crt_state_management@@QEAAXQ6AHPEAU_exception@@@Z@Z 00000001800e0740 f i libucrtd:matherr.obj
 0001:000df7a0       ?value@?$dual_state_global@P6AHPEAU_exception@@@Z@__crt_state_management@@QEAAAEAP6AHPEAU_exception@@@ZXZ 00000001800e07a0 f i libucrtd:matherr.obj
 0001:000df7d0       __acrt_has_user_matherr    00000001800e07d0 f   libucrtd:matherr.obj
 0001:000df820       __acrt_initialize_user_matherr 00000001800e0820 f   libucrtd:matherr.obj
 0001:000df850       __acrt_invoke_user_matherr 00000001800e0850 f   libucrtd:matherr.obj
 0001:000df8d0       __setusermatherr           00000001800e08d0 f   libucrtd:matherr.obj
 0001:000df910       _chvalidator               00000001800e0910 f   libucrtd:isctype.obj
 0001:000df9a0       _chvalidator_l             00000001800e09a0 f   libucrtd:isctype.obj
 0001:000dfa70       _isctype                   00000001800e0a70 f   libucrtd:isctype.obj
 0001:000dfad0       _isctype_l                 00000001800e0ad0 f   libucrtd:isctype.obj
 0001:000dfda0       _free_base                 00000001800e0da0 f   libucrtd:free_base.obj
 0001:000dfea0       _expand                    00000001800e0ea0 f   libucrtd:expand.obj
 0001:000dfee0       _expand_base               00000001800e0ee0 f   libucrtd:expand.obj
 0001:000e00d0       ?value@?$dual_state_global@J@__crt_state_management@@QEAAAEAJXZ 00000001800e10d0 f i libucrtd:new_mode.obj
 0001:000e0100       _query_new_mode            00000001800e1100 f   libucrtd:new_mode.obj
 0001:000e0130       _set_new_mode              00000001800e1130 f   libucrtd:new_mode.obj
 0001:000e0230       _CrtDefaultAllocHook       00000001800e1230 f   libucrtd:debug_heap_hook.obj
 0001:000e0250       _mbsdec                    00000001800e1250 f   libucrtd:mbsdec.obj
 0001:000e0280       _mbsdec_l                  00000001800e1280 f   libucrtd:mbsdec.obj
 0001:000e0de0       strncpy_s                  00000001800e1de0 f   libucrtd:strncpy_s.obj
 0001:000e1070       __acrt_report_runtime_error 00000001800e2070 f   libucrtd:report_runtime_error.obj
 0001:000e1380       _query_app_type            00000001800e2380 f   libucrtd:report_runtime_error.obj
 0001:000e1390       _set_app_type              00000001800e2390 f   libucrtd:report_runtime_error.obj
 0001:000e13b0       _iswctype_l                00000001800e23b0 f   libucrtd:iswctype.obj
 0001:000e13e0       iswctype                   00000001800e23e0 f   libucrtd:iswctype.obj
 0001:000e1490       __acrt_add_locale_ref      00000001800e2490 f   libucrtd:locale_refcounting.obj
 0001:000e1640       __acrt_free_locale         00000001800e2640 f   libucrtd:locale_refcounting.obj
 0001:000e1aa0       __acrt_locale_add_lc_time_reference 00000001800e2aa0 f   libucrtd:locale_refcounting.obj
 0001:000e1af0       __acrt_locale_free_lc_time_if_unreferenced 00000001800e2af0 f   libucrtd:locale_refcounting.obj
 0001:000e1b60       __acrt_locale_release_lc_time_reference 00000001800e2b60 f   libucrtd:locale_refcounting.obj
 0001:000e1bb0       __acrt_release_locale_ref  00000001800e2bb0 f   libucrtd:locale_refcounting.obj
 0001:000e1d70       __acrt_update_thread_locale_data 00000001800e2d70 f   libucrtd:locale_refcounting.obj
 0001:000e1e40       _updatetlocinfoEx_nolock   00000001800e2e40 f   libucrtd:locale_refcounting.obj
 0001:000e20a0       __acrt_DownlevelLCIDToLocaleName 00000001800e30a0 f   libucrtd:lcidtoname_downlevel.obj
 0001:000e21e0       __acrt_DownlevelLocaleNameToLCID 00000001800e31e0 f   libucrtd:lcidtoname_downlevel.obj
 0001:000e2250       ??$?RG@__crt_internal_free_policy@@QEBAXQEBG@Z 00000001800e3250 f i libucrtd:initctype.obj
 0001:000e2280       ??$?RJ@__crt_internal_free_policy@@QEBAXQEBJ@Z 00000001800e3280 f i libucrtd:initctype.obj
 0001:000e22b0       ??0?$__crt_unique_heap_ptr@GU__crt_internal_free_policy@@@@QEAA@QEAG@Z 00000001800e32b0 f i libucrtd:initctype.obj
 0001:000e22e0       ??0?$__crt_unique_heap_ptr@JU__crt_internal_free_policy@@@@QEAA@QEAJ@Z 00000001800e32e0 f i libucrtd:initctype.obj
 0001:000e2310       ??1?$__crt_unique_heap_ptr@GU__crt_internal_free_policy@@@@QEAA@XZ 00000001800e3310 f i libucrtd:initctype.obj
 0001:000e2330       ??1?$__crt_unique_heap_ptr@JU__crt_internal_free_policy@@@@QEAA@XZ 00000001800e3330 f i libucrtd:initctype.obj
 0001:000e2350       ?detach@?$__crt_unique_heap_ptr@GU__crt_internal_free_policy@@@@QEAAPEAGXZ 00000001800e3350 f i libucrtd:initctype.obj
 0001:000e2390       ?detach@?$__crt_unique_heap_ptr@JU__crt_internal_free_policy@@@@QEAAPEAJXZ 00000001800e3390 f i libucrtd:initctype.obj
 0001:000e23d0       ?release@?$__crt_unique_heap_ptr@GU__crt_internal_free_policy@@@@QEAAXXZ 00000001800e33d0 f i libucrtd:initctype.obj
 0001:000e2410       ?release@?$__crt_unique_heap_ptr@JU__crt_internal_free_policy@@@@QEAAXXZ 00000001800e3410 f i libucrtd:initctype.obj
 0001:000e2450       ___lc_codepage_func        00000001800e3450 f   libucrtd:initctype.obj
 0001:000e24a0       ___lc_collate_cp_func      00000001800e34a0 f   libucrtd:initctype.obj
 0001:000e24f0       ___lc_locale_name_func     00000001800e34f0 f   libucrtd:initctype.obj
 0001:000e2540       ___mb_cur_max_func         00000001800e3540 f   libucrtd:initctype.obj
 0001:000e2590       ___mb_cur_max_l_func       00000001800e3590 f   libucrtd:initctype.obj
 0001:000e25e0       __acrt_locale_initialize_ctype 00000001800e35e0 f   libucrtd:initctype.obj
 0001:000e3340       ??$?RUlconv@@@__crt_internal_free_policy@@QEBAXQEBUlconv@@@Z 00000001800e4340 f i libucrtd:initmon.obj
 0001:000e3370       ??0?$__crt_unique_heap_ptr@Ulconv@@U__crt_internal_free_policy@@@@QEAA@QEAUlconv@@@Z 00000001800e4370 f i libucrtd:initmon.obj
 0001:000e33a0       ??1?$__crt_unique_heap_ptr@Ulconv@@U__crt_internal_free_policy@@@@QEAA@XZ 00000001800e43a0 f i libucrtd:initmon.obj
 0001:000e33c0       ?detach@?$__crt_unique_heap_ptr@Ulconv@@U__crt_internal_free_policy@@@@QEAAPEAUlconv@@XZ 00000001800e43c0 f i libucrtd:initmon.obj
 0001:000e3400       ?release@?$__crt_unique_heap_ptr@Ulconv@@U__crt_internal_free_policy@@@@QEAAXXZ 00000001800e4400 f i libucrtd:initmon.obj
 0001:000e3440       __acrt_locale_free_monetary 00000001800e4440 f   libucrtd:initmon.obj
 0001:000e36e0       __acrt_locale_initialize_monetary 00000001800e46e0 f   libucrtd:initmon.obj
 0001:000e42f0       __acrt_locale_free_numeric 00000001800e52f0 f   libucrtd:initnum.obj
 0001:000e4400       __acrt_locale_initialize_numeric 00000001800e5400 f   libucrtd:initnum.obj
 0001:000e4b80       ??$?RU__crt_lc_time_data@@@__crt_internal_free_policy@@QEBAXQEBU__crt_lc_time_data@@@Z 00000001800e5b80 f i libucrtd:inittime.obj
 0001:000e4cd0       ??0?$__crt_unique_heap_ptr@U__crt_lc_time_data@@U__crt_internal_free_policy@@@@QEAA@QEAU__crt_lc_time_data@@@Z 00000001800e5cd0 f i libucrtd:inittime.obj
 0001:000e4d00       ??1?$__crt_unique_heap_ptr@U__crt_lc_time_data@@U__crt_internal_free_policy@@@@QEAA@XZ 00000001800e5d00 f i libucrtd:inittime.obj
 0001:000e4d20       ??B?$__crt_unique_heap_ptr@U__crt_lc_time_data@@U__crt_internal_free_policy@@@@QEBA_NXZ 00000001800e5d20 f i libucrtd:inittime.obj
 0001:000e4d40       ?detach@?$__crt_unique_heap_ptr@U__crt_lc_time_data@@U__crt_internal_free_policy@@@@QEAAPEAU__crt_lc_time_data@@XZ 00000001800e5d40 f i libucrtd:inittime.obj
 0001:000e4df0       ?get@?$__crt_unique_heap_ptr@U__crt_lc_time_data@@U__crt_internal_free_policy@@@@QEBAPEAU__crt_lc_time_data@@XZ 00000001800e5df0 f i libucrtd:inittime.obj
 0001:000e5600       ?is_valid@?$__crt_unique_heap_ptr@U__crt_lc_time_data@@U__crt_internal_free_policy@@@@QEBA_NXZ 00000001800e6600 f i libucrtd:inittime.obj
 0001:000e5640       ?release@?$__crt_unique_heap_ptr@U__crt_lc_time_data@@U__crt_internal_free_policy@@@@QEAAXXZ 00000001800e6640 f i libucrtd:inittime.obj
 0001:000e5680       __acrt_locale_free_time    00000001800e6680 f   libucrtd:inittime.obj
 0001:000e5850       __acrt_locale_initialize_time 00000001800e6850 f   libucrtd:inittime.obj
 0001:000e5910       __pctype_func              00000001800e6910 f   libucrtd:ctype.obj
 0001:000e5960       __pwctype_func             00000001800e6960 f   libucrtd:ctype.obj
 0001:000e6300       wcsncat_s                  00000001800e7300 f   libucrtd:wcsncat_s.obj
 0001:000e6350       wcscmp                     00000001800e7350 f   libucrtd:wcscmp.obj
 0001:000e6420       wcscspn                    00000001800e7420 f   libucrtd:wcscspn.obj
 0001:000e64e0       wcspbrk                    00000001800e74e0 f   libucrtd:wcspbrk.obj
 0001:000e6580       ??0?$__crt_scoped_stack_ptr@_W@@QEAA@U?$__crt_scoped_stack_ptr_tag@_W@@@Z 00000001800e7580 f i libucrtd:getstringtypea.obj
 0001:000e65b0       ??0?$__crt_scoped_stack_ptr_tag@_W@@QEAA@QEA_W@Z 00000001800e75b0 f i libucrtd:getstringtypea.obj
 0001:000e65e0       ??1?$__crt_scoped_stack_ptr@_W@@QEAA@XZ 00000001800e75e0 f i libucrtd:getstringtypea.obj
 0001:000e6610       ?get@?$__crt_scoped_stack_ptr@_W@@QEBAPEA_WXZ 00000001800e7610 f i libucrtd:getstringtypea.obj
 0001:000e6630       _MallocaComputeSize        00000001800e7630 f i libucrtd:getstringtypea.obj
 0001:000e6680       _MarkAllocaS               00000001800e7680 f i libucrtd:getstringtypea.obj
 0001:000e66c0       __acrt_GetStringTypeA      00000001800e76c0 f   libucrtd:getstringtypea.obj
 0001:000e69c0       _freea_crt                 00000001800e79c0 f i libucrtd:getstringtypea.obj
 0001:000e7aa0       __acrt_get_qualified_locale 00000001800e8aa0 f   libucrtd:get_qualified_locale.obj
